---
triple:          'arm64-apple-darwin'
binary-path:     './a.out'
relocations:
  - { offsetInCU: 0x3F, offset: 0x3F, size: 0x8, addend: 0x0, symName: _fileIo, symObjAddr: 0x16C438, symBinAddr: 0x10002C000, symSize: 0x0 }
  - { offsetInCU: 0x78, offset: 0x78, size: 0x8, addend: 0x0, symName: __ZNSt3__119piecewise_constructE, symObjAddr: 0x23408, symBinAddr: 0x100026CBC, symSize: 0x0 }
  - { offsetInCU: 0xEE6F, offset: 0xEE6F, size: 0x8, addend: 0x0, symName: __ZNSt3__16chronomiB8ue170006IxNS_5ratioILl1ELl1000000000EEExS3_EENS_11common_typeIJNS0_8durationIT_T0_EENS5_IT1_T2_EEEE4typeERKS8_RKSB_, symObjAddr: 0x5B50, symBinAddr: 0x100008D08, symSize: 0x70 }
  - { offsetInCU: 0xEEEB, offset: 0xEEEB, size: 0x8, addend: 0x0, symName: __ZNSt3__16chrono13duration_castB8ue170006INS0_8durationIxNS_5ratioILl1ELl1000000EEEEExNS3_ILl1ELl1000000000EEEEENS_9enable_ifIXsr13__is_durationIT_EE5valueES8_E4typeERKNS2_IT0_T1_EE, symObjAddr: 0x6FC, symBinAddr: 0x1000038B4, symSize: 0x30 }
  - { offsetInCU: 0xEF32, offset: 0xEF32, size: 0x8, addend: 0x0, symName: __ZNSt3__16chronomiB8ue170006INS0_12steady_clockENS0_8durationIxNS_5ratioILl1ELl1000000000EEEEES6_EENS_11common_typeIJT0_T1_EE4typeERKNS0_10time_pointIT_S8_EERKNSC_ISD_S9_EE, symObjAddr: 0x72C, symBinAddr: 0x1000038E4, symSize: 0x58 }
  - { offsetInCU: 0x1111E, offset: 0x1111E, size: 0x8, addend: 0x0, symName: __ZNSt3__17advanceB8ue170006IPNS_12basic_stringIcNS_11char_traitsIcEENS_9allocatorIcEEEEllvEEvRT_T0_, symObjAddr: 0x7ADC, symBinAddr: 0x10000AC94, symSize: 0x38 }
  - { offsetInCU: 0x1139E, offset: 0x1139E, size: 0x8, addend: 0x0, symName: __ZNSt3__17advanceB8ue170006INS_16reverse_iteratorIPNS_12basic_stringIcNS_11char_traitsIcEENS_9allocatorIcEEEEEEllvEEvRT_T0_, symObjAddr: 0x7F20, symBinAddr: 0x10000B0D8, symSize: 0x38 }
  - { offsetInCU: 0x1173B, offset: 0x1173B, size: 0x8, addend: 0x0, symName: __ZNSt3__17advanceB8ue170006IPillvEEvRT_T0_, symObjAddr: 0xB344, symBinAddr: 0x10000E4FC, symSize: 0x38 }
  - { offsetInCU: 0x137A4, offset: 0x137A4, size: 0x8, addend: 0x0, symName: __ZNSt3__17advanceB8ue170006IPNS_4pairINS_12basic_stringIcNS_11char_traitsIcEENS_9allocatorIcEEEEiEEllvEEvRT_T0_, symObjAddr: 0xD3AC, symBinAddr: 0x100010564, symSize: 0x38 }
  - { offsetInCU: 0x1380F, offset: 0x1380F, size: 0x8, addend: 0x0, symName: '__ZNSt3__111__introsortINS_17_ClassicAlgPolicyERZ16getTopKInterestsRKNS_3mapIiNS2_INS_12basic_stringIcNS_11char_traitsIcEENS_9allocatorIcEEEEiNS_4lessIS8_EENS6_INS_4pairIKS8_iEEEEEENS9_IiEENS6_INSB_IKiSF_EEEEEEiE3$_0PNSB_IS8_iEELb0EEEvT1_SR_T0_NS_15iterator_traitsISR_E15difference_typeEb', symObjAddr: 0xD940, symBinAddr: 0x100010AF8, symSize: 0x434 }
  - { offsetInCU: 0x1393A, offset: 0x1393A, size: 0x8, addend: 0x0, symName: '__ZNSt3__126__insertion_sort_unguardedB8ue170006INS_17_ClassicAlgPolicyERZ16getTopKInterestsRKNS_3mapIiNS2_INS_12basic_stringIcNS_11char_traitsIcEENS_9allocatorIcEEEEiNS_4lessIS8_EENS6_INS_4pairIKS8_iEEEEEENS9_IiEENS6_INSB_IKiSF_EEEEEEiE3$_0PNSB_IS8_iEEEEvT1_SR_T0_', symObjAddr: 0xE064, symBinAddr: 0x10001121C, symSize: 0x158 }
  - { offsetInCU: 0x13A12, offset: 0x13A12, size: 0x8, addend: 0x0, symName: '__ZNSt3__111__sift_downB8ue170006INS_17_ClassicAlgPolicyERZ16getTopKInterestsRKNS_3mapIiNS2_INS_12basic_stringIcNS_11char_traitsIcEENS_9allocatorIcEEEEiNS_4lessIS8_EENS6_INS_4pairIKS8_iEEEEEENS9_IiEENS6_INSB_IKiSF_EEEEEEiE3$_0PNSB_IS8_iEEEEvT1_OT0_NS_15iterator_traitsISR_E15difference_typeESR_', symObjAddr: 0xF5DC, symBinAddr: 0x100012794, symSize: 0x244 }
  - { offsetInCU: 0x13ABF, offset: 0x13ABF, size: 0x8, addend: 0x0, symName: '__ZNSt3__117__floyd_sift_downB8ue170006INS_17_ClassicAlgPolicyERZ16getTopKInterestsRKNS_3mapIiNS2_INS_12basic_stringIcNS_11char_traitsIcEENS_9allocatorIcEEEEiNS_4lessIS8_EENS6_INS_4pairIKS8_iEEEEEENS9_IiEENS6_INSB_IKiSF_EEEEEEiE3$_0PNSB_IS8_iEEEET1_SR_OT0_NS_15iterator_traitsISR_E15difference_typeE', symObjAddr: 0xFA00, symBinAddr: 0x100012BB8, symSize: 0x100 }
  - { offsetInCU: 0x13B57, offset: 0x13B57, size: 0x8, addend: 0x0, symName: '__ZNSt3__131__partition_with_equals_on_leftB8ue170006INS_17_ClassicAlgPolicyEPNS_4pairINS_12basic_stringIcNS_11char_traitsIcEENS_9allocatorIcEEEEiEERZ16getTopKInterestsRKNS_3mapIiNSB_IS8_iNS_4lessIS8_EENS6_INS2_IKS8_iEEEEEENSC_IiEENS6_INS2_IKiSH_EEEEEEiE3$_0EET0_SR_SR_T1_', symObjAddr: 0xE3C8, symBinAddr: 0x100011580, symSize: 0x250 }
  - { offsetInCU: 0x13C14, offset: 0x13C14, size: 0x8, addend: 0x0, symName: '__ZNSt3__118__bitset_partitionB8ue170006INS_17_ClassicAlgPolicyEPNS_4pairINS_12basic_stringIcNS_11char_traitsIcEENS_9allocatorIcEEEEiEERZ16getTopKInterestsRKNS_3mapIiNSB_IS8_iNS_4lessIS8_EENS6_INS2_IKS8_iEEEEEENSC_IiEENS6_INS2_IKiSH_EEEEEEiE3$_0EENS2_IT0_bEESR_SR_T1_', symObjAddr: 0xE618, symBinAddr: 0x1000117D0, symSize: 0x37C }
  - { offsetInCU: 0x13D10, offset: 0x13D10, size: 0x8, addend: 0x0, symName: __ZNSt3__124__swap_bitmap_pos_withinB8ue170006INS_17_ClassicAlgPolicyEPNS_4pairINS_12basic_stringIcNS_11char_traitsIcEENS_9allocatorIcEEEEiEEEEvRT0_SC_RySD_, symObjAddr: 0x10184, symBinAddr: 0x10001333C, symSize: 0x1E0 }
  - { offsetInCU: 0x13DDD, offset: 0x13DDD, size: 0x8, addend: 0x0, symName: '__ZNSt3__132__partition_with_equals_on_rightB8ue170006INS_17_ClassicAlgPolicyEPNS_4pairINS_12basic_stringIcNS_11char_traitsIcEENS_9allocatorIcEEEEiEERZ16getTopKInterestsRKNS_3mapIiNSB_IS8_iNS_4lessIS8_EENS6_INS2_IKS8_iEEEEEENSC_IiEENS6_INS2_IKiSH_EEEEEEiE3$_0EENS2_IT0_bEESR_SR_T1_', symObjAddr: 0xE994, symBinAddr: 0x100011B4C, symSize: 0x260 }
  - { offsetInCU: 0x13EA7, offset: 0x13EA7, size: 0x8, addend: 0x0, symName: '__ZNSt3__127__insertion_sort_incompleteB8ue170006INS_17_ClassicAlgPolicyERZ16getTopKInterestsRKNS_3mapIiNS2_INS_12basic_stringIcNS_11char_traitsIcEENS_9allocatorIcEEEEiNS_4lessIS8_EENS6_INS_4pairIKS8_iEEEEEENS9_IiEENS6_INSB_IKiSF_EEEEEEiE3$_0PNSB_IS8_iEEEEbT1_SR_T0_', symObjAddr: 0xEBF4, symBinAddr: 0x100011DAC, symSize: 0x360 }
  - { offsetInCU: 0x14059, offset: 0x14059, size: 0x8, addend: 0x0, symName: __ZNSt3__111__introsortINS_17_ClassicAlgPolicyERNS_6__lessIvvEEPNS_12basic_stringIcNS_11char_traitsIcEENS_9allocatorIcEEEELb0EEEvT1_SC_T0_NS_15iterator_traitsISC_E15difference_typeEb, symObjAddr: 0x10D24, symBinAddr: 0x100013EDC, symSize: 0x470 }
  - { offsetInCU: 0x1430B, offset: 0x1430B, size: 0x8, addend: 0x0, symName: __ZNSt3__126__insertion_sort_unguardedB8ue170006INS_17_ClassicAlgPolicyERNS_6__lessIvvEEPNS_12basic_stringIcNS_11char_traitsIcEENS_9allocatorIcEEEEEEvT1_SC_T0_, symObjAddr: 0x11484, symBinAddr: 0x10001463C, symSize: 0x158 }
  - { offsetInCU: 0x143E3, offset: 0x143E3, size: 0x8, addend: 0x0, symName: __ZNSt3__111__sift_downB8ue170006INS_17_ClassicAlgPolicyERNS_6__lessIvvEEPNS_12basic_stringIcNS_11char_traitsIcEENS_9allocatorIcEEEEEEvT1_OT0_NS_15iterator_traitsISC_E15difference_typeESC_, symObjAddr: 0x12C1C, symBinAddr: 0x100015DD4, symSize: 0x254 }
  - { offsetInCU: 0x14490, offset: 0x14490, size: 0x8, addend: 0x0, symName: __ZNSt3__117__floyd_sift_downB8ue170006INS_17_ClassicAlgPolicyERNS_6__lessIvvEEPNS_12basic_stringIcNS_11char_traitsIcEENS_9allocatorIcEEEEEET1_SC_OT0_NS_15iterator_traitsISC_E15difference_typeE, symObjAddr: 0x13050, symBinAddr: 0x100016208, symSize: 0x108 }
  - { offsetInCU: 0x14528, offset: 0x14528, size: 0x8, addend: 0x0, symName: __ZNSt3__131__partition_with_equals_on_leftB8ue170006INS_17_ClassicAlgPolicyEPNS_12basic_stringIcNS_11char_traitsIcEENS_9allocatorIcEEEERNS_6__lessIvvEEEET0_SC_SC_T1_, symObjAddr: 0x117E8, symBinAddr: 0x1000149A0, symSize: 0x250 }
  - { offsetInCU: 0x145E4, offset: 0x145E4, size: 0x8, addend: 0x0, symName: __ZNSt3__118__bitset_partitionB8ue170006INS_17_ClassicAlgPolicyEPNS_12basic_stringIcNS_11char_traitsIcEENS_9allocatorIcEEEERNS_6__lessIvvEEEENS_4pairIT0_bEESD_SD_T1_, symObjAddr: 0x11A38, symBinAddr: 0x100014BF0, symSize: 0x384 }
  - { offsetInCU: 0x146E0, offset: 0x146E0, size: 0x8, addend: 0x0, symName: __ZNSt3__124__swap_bitmap_pos_withinB8ue170006INS_17_ClassicAlgPolicyEPNS_12basic_stringIcNS_11char_traitsIcEENS_9allocatorIcEEEEEEvRT0_SA_RySB_, symObjAddr: 0x137F8, symBinAddr: 0x1000169B0, symSize: 0x1E8 }
  - { offsetInCU: 0x147AD, offset: 0x147AD, size: 0x8, addend: 0x0, symName: __ZNSt3__132__partition_with_equals_on_rightB8ue170006INS_17_ClassicAlgPolicyEPNS_12basic_stringIcNS_11char_traitsIcEENS_9allocatorIcEEEERNS_6__lessIvvEEEENS_4pairIT0_bEESD_SD_T1_, symObjAddr: 0x11DBC, symBinAddr: 0x100014F74, symSize: 0x260 }
  - { offsetInCU: 0x14878, offset: 0x14878, size: 0x8, addend: 0x0, symName: __ZNSt3__127__insertion_sort_incompleteB8ue170006INS_17_ClassicAlgPolicyERNS_6__lessIvvEEPNS_12basic_stringIcNS_11char_traitsIcEENS_9allocatorIcEEEEEEbT1_SC_T0_, symObjAddr: 0x1201C, symBinAddr: 0x1000151D4, symSize: 0x360 }
  - { offsetInCU: 0x163FB, offset: 0x163FB, size: 0x8, addend: 0x0, symName: __ZNSt3__17advanceB8ue170006IPNS_6vectorIiNS_9allocatorIiEEEEllvEEvRT_T0_, symObjAddr: 0x14E14, symBinAddr: 0x100017FCC, symSize: 0x38 }
  - { offsetInCU: 0x1667B, offset: 0x1667B, size: 0x8, addend: 0x0, symName: __ZNSt3__17advanceB8ue170006INS_16reverse_iteratorIPNS_6vectorIiNS_9allocatorIiEEEEEEllvEEvRT_T0_, symObjAddr: 0x15244, symBinAddr: 0x1000183FC, symSize: 0x38 }
  - { offsetInCU: 0x167B3, offset: 0x167B3, size: 0x8, addend: 0x0, symName: __ZNSt3__16copy_nB8ue170006IPKcmPcEENS_9enable_ifIXsr37__has_random_access_iterator_categoryIT_EE5valueET1_E4typeES5_T0_S6_, symObjAddr: 0x16A88, symBinAddr: 0x100019C40, symSize: 0x44 }
  - { offsetInCU: 0x1683A, offset: 0x1683A, size: 0x8, addend: 0x0, symName: __ZNSt3__124__put_character_sequenceB8ue170006IcNS_11char_traitsIcEEEERNS_13basic_ostreamIT_T0_EES7_PKS4_m, symObjAddr: 0x1747C, symBinAddr: 0x10001A634, symSize: 0x1EC }
  - { offsetInCU: 0x267E8, offset: 0x267E8, size: 0x8, addend: 0x0, symName: __ZNSt3__1lsB8ue170006INS_11char_traitsIcEEEERNS_13basic_ostreamIcT_EES6_PKc, symObjAddr: 0x4BC, symBinAddr: 0x100003674, symSize: 0x48 }
  - { offsetInCU: 0x2682E, offset: 0x2682E, size: 0x8, addend: 0x0, symName: __ZNSt3__14endlB8ue170006IcNS_11char_traitsIcEEEERNS_13basic_ostreamIT_T0_EES7_, symObjAddr: 0x530, symBinAddr: 0x1000036E8, symSize: 0x58 }
  - { offsetInCU: 0x2686E, offset: 0x2686E, size: 0x8, addend: 0x0, symName: __ZNSt3__1neB8ue170006IPKiEEbRKNS_11__wrap_iterIT_EES7_, symObjAddr: 0x5E8, symBinAddr: 0x1000037A0, symSize: 0x34 }
  - { offsetInCU: 0x268B1, offset: 0x268B1, size: 0x8, addend: 0x0, symName: __ZNSt3__1lsB8ue170006INS_11char_traitsIcEEEERNS_13basic_ostreamIcT_EES6_c, symObjAddr: 0x670, symBinAddr: 0x100003828, symSize: 0x34 }
  - { offsetInCU: 0x27044, offset: 0x27044, size: 0x8, addend: 0x0, symName: __ZNSt3__1lsB8ue170006IcNS_11char_traitsIcEENS_9allocatorIcEEEERNS_13basic_ostreamIT_T0_EES9_RKNS_12basic_stringIS6_S7_T1_EE, symObjAddr: 0xC30, symBinAddr: 0x100003DE8, symSize: 0x4C }
  - { offsetInCU: 0x27606, offset: 0x27606, size: 0x8, addend: 0x0, symName: __ZNSt3__17getlineB8ue170006IcNS_11char_traitsIcEENS_9allocatorIcEEEERNS_13basic_istreamIT_T0_EES9_RNS_12basic_stringIS6_S7_T1_EES6_, symObjAddr: 0xDB8, symBinAddr: 0x100003F70, symSize: 0x238 }
  - { offsetInCU: 0x276CF, offset: 0x276CF, size: 0x8, addend: 0x0, symName: __ZNSt3__1neB8ue170006ERKNS_14__map_iteratorINS_15__tree_iteratorINS_12__value_typeIiNS_6vectorIiNS_9allocatorIiEEEEEEPNS_11__tree_nodeIS7_PvEElEEEESF_, symObjAddr: 0x1800, symBinAddr: 0x1000049B8, symSize: 0x30 }
  - { offsetInCU: 0x2770C, offset: 0x2770C, size: 0x8, addend: 0x0, symName: __ZNSt3__1neB8ue170006ERKNS_20__map_const_iteratorINS_21__tree_const_iteratorINS_12__value_typeIiNS_6vectorINS_12basic_stringIcNS_11char_traitsIcEENS_9allocatorIcEEEENS7_IS9_EEEEEEPNS_11__tree_nodeISC_PvEElEEEESK_, symObjAddr: 0x2114, symBinAddr: 0x1000052CC, symSize: 0x30 }
  - { offsetInCU: 0x27749, offset: 0x27749, size: 0x8, addend: 0x0, symName: __ZNSt3__1neB8ue170006IPKNS_12basic_stringIcNS_11char_traitsIcEENS_9allocatorIcEEEEEEbRKNS_11__wrap_iterIT_EESD_, symObjAddr: 0x2284, symBinAddr: 0x10000543C, symSize: 0x34 }
  - { offsetInCU: 0x2778C, offset: 0x2778C, size: 0x8, addend: 0x0, symName: __ZNSt3__1neB8ue170006ERKNS_14__map_iteratorINS_15__tree_iteratorINS_12__value_typeIiNS_3mapINS_12basic_stringIcNS_11char_traitsIcEENS_9allocatorIcEEEEiNS_4lessIS9_EENS7_INS_4pairIKS9_iEEEEEEEEPNS_11__tree_nodeISH_PvEElEEEESP_, symObjAddr: 0x2460, symBinAddr: 0x100005618, symSize: 0x30 }
  - { offsetInCU: 0x277C9, offset: 0x277C9, size: 0x8, addend: 0x0, symName: __ZNSt3__1neB8ue170006ERKNS_14__map_iteratorINS_15__tree_iteratorINS_12__value_typeINS_12basic_stringIcNS_11char_traitsIcEENS_9allocatorIcEEEEiEEPNS_11__tree_nodeIS9_PvEElEEEESH_, symObjAddr: 0x2528, symBinAddr: 0x1000056E0, symSize: 0x30 }
  - { offsetInCU: 0x27806, offset: 0x27806, size: 0x8, addend: 0x0, symName: __ZNSt3__1neB8ue170006ERKNS_20__map_const_iteratorINS_21__tree_const_iteratorINS_12__value_typeIiNS_3mapINS_12basic_stringIcNS_11char_traitsIcEENS_9allocatorIcEEEEiNS_4lessIS9_EENS7_INS_4pairIKS9_iEEEEEEEEPNS_11__tree_nodeISH_PvEElEEEESP_, symObjAddr: 0x2A34, symBinAddr: 0x100005BEC, symSize: 0x30 }
  - { offsetInCU: 0x27843, offset: 0x27843, size: 0x8, addend: 0x0, symName: '__ZNSt3__14sortB8ue170006INS_11__wrap_iterIPNS_4pairINS_12basic_stringIcNS_11char_traitsIcEENS_9allocatorIcEEEEiEEEEZ16getTopKInterestsRKNS_3mapIiNSC_IS8_iNS_4lessIS8_EENS6_INS2_IKS8_iEEEEEENSD_IiEENS6_INS2_IKiSI_EEEEEEiE3$_0EEvT_SR_T0_', symObjAddr: 0x2B38, symBinAddr: 0x100005CF0, symSize: 0x40 }
  - { offsetInCU: 0x2789D, offset: 0x2789D, size: 0x8, addend: 0x0, symName: __ZNSt3__1neB8ue170006ERKNS_14__map_iteratorINS_15__tree_iteratorINS_12__value_typeIiNS_6vectorINS_12basic_stringIcNS_11char_traitsIcEENS_9allocatorIcEEEENS7_IS9_EEEEEEPNS_11__tree_nodeISC_PvEElEEEESK_, symObjAddr: 0x2CEC, symBinAddr: 0x100005EA4, symSize: 0x30 }
  - { offsetInCU: 0x278DA, offset: 0x278DA, size: 0x8, addend: 0x0, symName: __ZNSt3__1neB8ue170006IPNS_12basic_stringIcNS_11char_traitsIcEENS_9allocatorIcEEEEEEbRKNS_11__wrap_iterIT_EESC_, symObjAddr: 0x2DA4, symBinAddr: 0x100005F5C, symSize: 0x34 }
  - { offsetInCU: 0x2791D, offset: 0x2791D, size: 0x8, addend: 0x0, symName: __ZNSt3__14sortB8ue170006INS_11__wrap_iterIPNS_12basic_stringIcNS_11char_traitsIcEENS_9allocatorIcEEEEEEEEvT_SA_, symObjAddr: 0x3268, symBinAddr: 0x100006420, symSize: 0x3C }
  - { offsetInCU: 0x2795F, offset: 0x2795F, size: 0x8, addend: 0x0, symName: __ZNSt3__1neB8ue170006ERKNS_14__map_iteratorINS_15__tree_iteratorINS_12__value_typeINS_6vectorINS_12basic_stringIcNS_11char_traitsIcEENS_9allocatorIcEEEENS7_IS9_EEEENS3_IiNS7_IiEEEEEEPNS_11__tree_nodeISE_PvEElEEEESM_, symObjAddr: 0x33C0, symBinAddr: 0x100006578, symSize: 0x30 }
  - { offsetInCU: 0x2799C, offset: 0x2799C, size: 0x8, addend: 0x0, symName: __ZNSt3__1neB8ue170006IPNS_6vectorIiNS_9allocatorIiEEEEEEbRKNS_11__wrap_iterIT_EESA_, symObjAddr: 0x3510, symBinAddr: 0x1000066C8, symSize: 0x34 }
  - { offsetInCU: 0x279DF, offset: 0x279DF, size: 0x8, addend: 0x0, symName: __ZNSt3__1neB8ue170006IPiEEbRKNS_11__wrap_iterIT_EES6_, symObjAddr: 0x35BC, symBinAddr: 0x100006774, symSize: 0x34 }
  - { offsetInCU: 0x27A22, offset: 0x27A22, size: 0x8, addend: 0x0, symName: __ZNSt3__1plB8ue170006IcNS_11char_traitsIcEENS_9allocatorIcEEEENS_12basic_stringIT_T0_T1_EEOS9_PKS6_, symObjAddr: 0x4ED4, symBinAddr: 0x10000808C, symSize: 0x40 }
  - { offsetInCU: 0x27A7A, offset: 0x27A7A, size: 0x8, addend: 0x0, symName: __ZNSt3__1plB8ue170006IcNS_11char_traitsIcEENS_9allocatorIcEEEENS_12basic_stringIT_T0_T1_EEOS9_SA_, symObjAddr: 0x4F14, symBinAddr: 0x1000080CC, symSize: 0x40 }
  - { offsetInCU: 0x27AD2, offset: 0x27AD2, size: 0x8, addend: 0x0, symName: __ZNSt3__1plB8ue170006IcNS_11char_traitsIcEENS_9allocatorIcEEEENS_12basic_stringIT_T0_T1_EERKS9_PKS6_, symObjAddr: 0x4F54, symBinAddr: 0x10000810C, symSize: 0x11C }
  - { offsetInCU: 0x27B73, offset: 0x27B73, size: 0x8, addend: 0x0, symName: __ZNSt3__1eqB8ue170006IPKiEEbRKNS_11__wrap_iterIT_EES7_, symObjAddr: 0x5A2C, symBinAddr: 0x100008BE4, symSize: 0x48 }
  - { offsetInCU: 0x27BD2, offset: 0x27BD2, size: 0x8, addend: 0x0, symName: __ZNSt3__17getlineB8ue170006IcNS_11char_traitsIcEENS_9allocatorIcEEEERNS_13basic_istreamIT_T0_EES9_RNS_12basic_stringIS6_S7_T1_EE, symObjAddr: 0x5EE0, symBinAddr: 0x100009098, symSize: 0x5C }
  - { offsetInCU: 0x27C2A, offset: 0x27C2A, size: 0x8, addend: 0x0, symName: __ZNSt3__19use_facetB8ue170006INS_5ctypeIcEEEERKT_RKNS_6localeE, symObjAddr: 0x5FC0, symBinAddr: 0x100009178, symSize: 0x2C }
  - { offsetInCU: 0x280F7, offset: 0x280F7, size: 0x8, addend: 0x0, symName: __ZNSt3__119__libcpp_deallocateB8ue170006EPvmm, symObjAddr: 0x633C, symBinAddr: 0x1000094F4, symSize: 0x60 }
  - { offsetInCU: 0x2815D, offset: 0x2815D, size: 0x8, addend: 0x0, symName: __ZNSt3__124__is_overaligned_for_newB8ue170006Em, symObjAddr: 0x639C, symBinAddr: 0x100009554, symSize: 0x20 }
  - { offsetInCU: 0x2818A, offset: 0x2818A, size: 0x8, addend: 0x0, symName: __ZNSt3__127__do_deallocate_handle_sizeB8ue170006IJSt11align_val_tEEEvPvmDpT_, symObjAddr: 0x63BC, symBinAddr: 0x100009574, symSize: 0x30 }
  - { offsetInCU: 0x281DD, offset: 0x281DD, size: 0x8, addend: 0x0, symName: __ZNSt3__127__do_deallocate_handle_sizeB8ue170006IJEEEvPvmDpT_, symObjAddr: 0x63EC, symBinAddr: 0x1000095A4, symSize: 0x28 }
  - { offsetInCU: 0x2821B, offset: 0x2821B, size: 0x8, addend: 0x0, symName: __ZNSt3__124__libcpp_operator_deleteB8ue170006IJPvSt11align_val_tEEEvDpT_, symObjAddr: 0x6414, symBinAddr: 0x1000095CC, symSize: 0x2C }
  - { offsetInCU: 0x28264, offset: 0x28264, size: 0x8, addend: 0x0, symName: __ZNSt3__124__libcpp_operator_deleteB8ue170006IJPvEEEvDpT_, symObjAddr: 0x6440, symBinAddr: 0x1000095F8, symSize: 0x24 }
  - { offsetInCU: 0x2829A, offset: 0x2829A, size: 0x8, addend: 0x0, symName: __ZNSt3__112__to_addressB8ue170006INS_12basic_stringIcNS_11char_traitsIcEENS_9allocatorIcEEEEEEPT_S8_, symObjAddr: 0x6894, symBinAddr: 0x100009A4C, symSize: 0x14 }
  - { offsetInCU: 0x282F5, offset: 0x282F5, size: 0x8, addend: 0x0, symName: __ZNSt3__112construct_atB8ue170006INS_12basic_stringIcNS_11char_traitsIcEENS_9allocatorIcEEEEJRKS6_EPS6_EEPT_SB_DpOT0_, symObjAddr: 0x6920, symBinAddr: 0x100009AD8, symSize: 0x3C }
  - { offsetInCU: 0x28367, offset: 0x28367, size: 0x8, addend: 0x0, symName: __ZNSt3__13maxB8ue170006ImEERKT_S3_S3_, symObjAddr: 0x6CA4, symBinAddr: 0x100009E5C, symSize: 0x2C }
  - { offsetInCU: 0x283AA, offset: 0x283AA, size: 0x8, addend: 0x0, symName: __ZNSt3__13minB8ue170006ImEERKT_S3_S3_, symObjAddr: 0x6CD0, symBinAddr: 0x100009E88, symSize: 0x2C }
  - { offsetInCU: 0x285D7, offset: 0x285D7, size: 0x8, addend: 0x0, symName: __ZNSt3__13minB8ue170006ImNS_6__lessIvvEEEERKT_S5_S5_T0_, symObjAddr: 0x6D60, symBinAddr: 0x100009F18, symSize: 0x54 }
  - { offsetInCU: 0x288C5, offset: 0x288C5, size: 0x8, addend: 0x0, symName: __ZNSt3__120__throw_length_errorB8ue170006EPKc, symObjAddr: 0x6E44, symBinAddr: 0x100009FFC, symSize: 0x64 }
  - { offsetInCU: 0x288EF, offset: 0x288EF, size: 0x8, addend: 0x0, symName: __ZNSt3__13maxB8ue170006ImNS_6__lessIvvEEEERKT_S5_S5_T0_, symObjAddr: 0x6F88, symBinAddr: 0x10000A140, symSize: 0x54 }
  - { offsetInCU: 0x28949, offset: 0x28949, size: 0x8, addend: 0x0, symName: __ZNSt3__119__allocate_at_leastB8ue170006INS_9allocatorINS_12basic_stringIcNS_11char_traitsIcEENS1_IcEEEEEEEENS_19__allocation_resultINS_16allocator_traitsIT_E7pointerEEERSA_m, symObjAddr: 0x70F8, symBinAddr: 0x10000A2B0, symSize: 0x40 }
  - { offsetInCU: 0x2898C, offset: 0x2898C, size: 0x8, addend: 0x0, symName: __ZNSt3__117__libcpp_allocateB8ue170006Emm, symObjAddr: 0x7280, symBinAddr: 0x10000A438, symSize: 0x60 }
  - { offsetInCU: 0x289E6, offset: 0x289E6, size: 0x8, addend: 0x0, symName: __ZNSt3__121__libcpp_operator_newB8ue170006IJmSt11align_val_tEEEPvDpT_, symObjAddr: 0x72E0, symBinAddr: 0x10000A498, symSize: 0x2C }
  - { offsetInCU: 0x28A33, offset: 0x28A33, size: 0x8, addend: 0x0, symName: __ZNSt3__121__libcpp_operator_newB8ue170006IJmEEEPvDpT_, symObjAddr: 0x730C, symBinAddr: 0x10000A4C4, symSize: 0x24 }
  - { offsetInCU: 0x28A6C, offset: 0x28A6C, size: 0x8, addend: 0x0, symName: __ZNSt3__142__uninitialized_allocator_move_if_noexceptB8ue170006INS_9allocatorINS_12basic_stringIcNS_11char_traitsIcEENS1_IcEEEEEENS_16reverse_iteratorIPS6_EESA_SA_EET2_RT_T0_T1_SB_, symObjAddr: 0x7468, symBinAddr: 0x10000A620, symSize: 0x12C }
  - { offsetInCU: 0x28B0D, offset: 0x28B0D, size: 0x8, addend: 0x0, symName: __ZNSt3__14swapB8ue170006IPNS_12basic_stringIcNS_11char_traitsIcEENS_9allocatorIcEEEEEENS_9enable_ifIXaasr21is_move_constructibleIT_EE5valuesr18is_move_assignableIS9_EE5valueEvE4typeERS9_SC_, symObjAddr: 0x75E0, symBinAddr: 0x10000A798, symSize: 0x3C }
  - { offsetInCU: 0x28B5D, offset: 0x28B5D, size: 0x8, addend: 0x0, symName: __ZNSt3__122__make_exception_guardB8ue170006INS_29_AllocatorDestroyRangeReverseINS_9allocatorINS_12basic_stringIcNS_11char_traitsIcEENS2_IcEEEEEENS_16reverse_iteratorIPS7_EEEEEENS_28__exception_guard_exceptionsIT_EESE_, symObjAddr: 0x772C, symBinAddr: 0x10000A8E4, symSize: 0x4C }
  - { offsetInCU: 0x28B93, offset: 0x28B93, size: 0x8, addend: 0x0, symName: __ZNSt3__1neB8ue170006IPNS_12basic_stringIcNS_11char_traitsIcEENS_9allocatorIcEEEES7_EEbRKNS_16reverse_iteratorIT_EERKNS8_IT0_EE, symObjAddr: 0x77BC, symBinAddr: 0x10000A974, symSize: 0x48 }
  - { offsetInCU: 0x28BDF, offset: 0x28BDF, size: 0x8, addend: 0x0, symName: __ZNSt3__112__to_addressB8ue170006INS_16reverse_iteratorIPNS_12basic_stringIcNS_11char_traitsIcEENS_9allocatorIcEEEEEEvEEu7__decayIDTclsr19__to_address_helperIT_EE6__callclsr3stdE7declvalIRKSA_EEEEESC_, symObjAddr: 0x7834, symBinAddr: 0x10000A9EC, symSize: 0x24 }
  - { offsetInCU: 0x28C15, offset: 0x28C15, size: 0x8, addend: 0x0, symName: __ZNSt3__112construct_atB8ue170006INS_12basic_stringIcNS_11char_traitsIcEENS_9allocatorIcEEEEJS6_EPS6_EEPT_S9_DpOT0_, symObjAddr: 0x7984, symBinAddr: 0x10000AB3C, symSize: 0x3C }
  - { offsetInCU: 0x28CB0, offset: 0x28CB0, size: 0x8, addend: 0x0, symName: __ZNSt3__14prevB8ue170006IPNS_12basic_stringIcNS_11char_traitsIcEENS_9allocatorIcEEEEEENS_9enable_ifIXsr29__has_input_iterator_categoryIT_EE5valueES9_E4typeES9_NS_15iterator_traitsIS9_E15difference_typeE, symObjAddr: 0x7AA0, symBinAddr: 0x10000AC58, symSize: 0x3C }
  - { offsetInCU: 0x28CF4, offset: 0x28CF4, size: 0x8, addend: 0x0, symName: __ZNSt3__121__convert_to_integralB8ue170006El, symObjAddr: 0x7B14, symBinAddr: 0x10000ACCC, symSize: 0x14 }
  - { offsetInCU: 0x28D20, offset: 0x28D20, size: 0x8, addend: 0x0, symName: __ZNSt3__19__advanceB8ue170006IPNS_12basic_stringIcNS_11char_traitsIcEENS_9allocatorIcEEEEEEvRT_NS_15iterator_traitsIS8_E15difference_typeENS_26random_access_iterator_tagE, symObjAddr: 0x7B28, symBinAddr: 0x10000ACE0, symSize: 0x30 }
  - { offsetInCU: 0x28D6A, offset: 0x28D6A, size: 0x8, addend: 0x0, symName: __ZNSt3__119__allocator_destroyB8ue170006INS_9allocatorINS_12basic_stringIcNS_11char_traitsIcEENS1_IcEEEEEENS_16reverse_iteratorINS8_IPS6_EEEESB_EEvRT_T0_T1_, symObjAddr: 0x7C5C, symBinAddr: 0x10000AE14, symSize: 0x70 }
  - { offsetInCU: 0x28DCF, offset: 0x28DCF, size: 0x8, addend: 0x0, symName: __ZNSt3__1neB8ue170006INS_16reverse_iteratorIPNS_12basic_stringIcNS_11char_traitsIcEENS_9allocatorIcEEEEEES9_EEbRKNS1_IT_EERKNS1_IT0_EE, symObjAddr: 0x7D08, symBinAddr: 0x10000AEC0, symSize: 0x60 }
  - { offsetInCU: 0x28E1B, offset: 0x28E1B, size: 0x8, addend: 0x0, symName: __ZNSt3__112__to_addressB8ue170006INS_16reverse_iteratorINS1_IPNS_12basic_stringIcNS_11char_traitsIcEENS_9allocatorIcEEEEEEEEvEEu7__decayIDTclsr19__to_address_helperIT_EE6__callclsr3stdE7declvalIRKSB_EEEEESD_, symObjAddr: 0x7D90, symBinAddr: 0x10000AF48, symSize: 0x24 }
  - { offsetInCU: 0x28E51, offset: 0x28E51, size: 0x8, addend: 0x0, symName: __ZNSt3__110destroy_atB8ue170006INS_12basic_stringIcNS_11char_traitsIcEENS_9allocatorIcEEEELi0EEEvPT_, symObjAddr: 0x7E08, symBinAddr: 0x10000AFC0, symSize: 0x24 }
  - { offsetInCU: 0x28E88, offset: 0x28E88, size: 0x8, addend: 0x0, symName: __ZNSt3__112__destroy_atB8ue170006INS_12basic_stringIcNS_11char_traitsIcEENS_9allocatorIcEEEELi0EEEvPT_, symObjAddr: 0x7E2C, symBinAddr: 0x10000AFE4, symSize: 0x24 }
  - { offsetInCU: 0x28EE8, offset: 0x28EE8, size: 0x8, addend: 0x0, symName: __ZNSt3__14prevB8ue170006INS_16reverse_iteratorIPNS_12basic_stringIcNS_11char_traitsIcEENS_9allocatorIcEEEEEEEENS_9enable_ifIXsr29__has_input_iterator_categoryIT_EE5valueESB_E4typeESB_NS_15iterator_traitsISB_E15difference_typeE, symObjAddr: 0x7ED4, symBinAddr: 0x10000B08C, symSize: 0x4C }
  - { offsetInCU: 0x28F2B, offset: 0x28F2B, size: 0x8, addend: 0x0, symName: __ZNSt3__19__advanceB8ue170006INS_16reverse_iteratorIPNS_12basic_stringIcNS_11char_traitsIcEENS_9allocatorIcEEEEEEEEvRT_NS_15iterator_traitsISA_E15difference_typeENS_26random_access_iterator_tagE, symObjAddr: 0x7F58, symBinAddr: 0x10000B110, symSize: 0x2C }
  - { offsetInCU: 0x28F75, offset: 0x28F75, size: 0x8, addend: 0x0, symName: __ZNSt3__18distanceB8ue170006IPNS_12basic_stringIcNS_11char_traitsIcEENS_9allocatorIcEEEEEENS_15iterator_traitsIT_E15difference_typeES9_S9_, symObjAddr: 0x853C, symBinAddr: 0x10000B6F4, symSize: 0x2C }
  - { offsetInCU: 0x28FB8, offset: 0x28FB8, size: 0x8, addend: 0x0, symName: __ZNSt3__14nextB8ue170006IPNS_12basic_stringIcNS_11char_traitsIcEENS_9allocatorIcEEEEEENS_9enable_ifIXsr29__has_input_iterator_categoryIT_EE5valueES9_E4typeES9_NS_15iterator_traitsIS9_E15difference_typeE, symObjAddr: 0x8568, symBinAddr: 0x10000B720, symSize: 0x34 }
  - { offsetInCU: 0x28FFB, offset: 0x28FFB, size: 0x8, addend: 0x0, symName: __ZNSt3__14copyB8ue170006IPNS_12basic_stringIcNS_11char_traitsIcEENS_9allocatorIcEEEES7_EET0_T_S9_S8_, symObjAddr: 0x859C, symBinAddr: 0x10000B754, symSize: 0x40 }
  - { offsetInCU: 0x29055, offset: 0x29055, size: 0x8, addend: 0x0, symName: __ZNSt3__16__copyB8ue170006INS_17_ClassicAlgPolicyEPNS_12basic_stringIcNS_11char_traitsIcEENS_9allocatorIcEEEES8_S8_EENS_4pairIT0_T2_EESA_T1_SB_, symObjAddr: 0x8668, symBinAddr: 0x10000B820, symSize: 0x44 }
  - { offsetInCU: 0x290C1, offset: 0x290C1, size: 0x8, addend: 0x0, symName: __ZNSt3__130__uninitialized_allocator_copyB8ue170006INS_9allocatorINS_12basic_stringIcNS_11char_traitsIcEENS1_IcEEEEEEPS6_S8_S8_EET2_RT_T0_T1_S9_, symObjAddr: 0x8840, symBinAddr: 0x10000B9F8, symSize: 0x80 }
  - { offsetInCU: 0x2915E, offset: 0x2915E, size: 0x8, addend: 0x0, symName: __ZNSt3__114__unwrap_rangeB8ue170006IPNS_12basic_stringIcNS_11char_traitsIcEENS_9allocatorIcEEEES7_EEDaT_T0_, symObjAddr: 0x88C0, symBinAddr: 0x10000BA78, symSize: 0x3C }
  - { offsetInCU: 0x291AA, offset: 0x291AA, size: 0x8, addend: 0x0, symName: __ZNSt3__135__uninitialized_allocator_copy_implB8ue170006INS_9allocatorINS_12basic_stringIcNS_11char_traitsIcEENS1_IcEEEEEEPS6_S8_S8_EET2_RT_T0_T1_S9_, symObjAddr: 0x88FC, symBinAddr: 0x10000BAB4, symSize: 0xF4 }
  - { offsetInCU: 0x29248, offset: 0x29248, size: 0x8, addend: 0x0, symName: __ZNSt3__113__unwrap_iterB8ue170006IPNS_12basic_stringIcNS_11char_traitsIcEENS_9allocatorIcEEEENS_18__unwrap_iter_implIS7_Lb1EEELi0EEEDTclsrT0_8__unwrapclsr3stdE7declvalIT_EEEESB_, symObjAddr: 0x89F0, symBinAddr: 0x10000BBA8, symSize: 0x24 }
  - { offsetInCU: 0x2928C, offset: 0x2928C, size: 0x8, addend: 0x0, symName: __ZNSt3__113__rewrap_iterB8ue170006IPNS_12basic_stringIcNS_11char_traitsIcEENS_9allocatorIcEEEES7_NS_18__unwrap_iter_implIS7_Lb1EEEEET_SA_T0_, symObjAddr: 0x8A14, symBinAddr: 0x10000BBCC, symSize: 0x3C }
  - { offsetInCU: 0x29405, offset: 0x29405, size: 0x8, addend: 0x0, symName: __ZNSt3__122__make_exception_guardB8ue170006INS_29_AllocatorDestroyRangeReverseINS_9allocatorINS_12basic_stringIcNS_11char_traitsIcEENS2_IcEEEEEEPS7_EEEENS_28__exception_guard_exceptionsIT_EESC_, symObjAddr: 0x8B18, symBinAddr: 0x10000BCD0, symSize: 0x4C }
  - { offsetInCU: 0x2943B, offset: 0x2943B, size: 0x8, addend: 0x0, symName: __ZNSt3__112construct_atB8ue170006INS_12basic_stringIcNS_11char_traitsIcEENS_9allocatorIcEEEEJRS6_EPS6_EEPT_SA_DpOT0_, symObjAddr: 0x8CBC, symBinAddr: 0x10000BE74, symSize: 0x3C }
  - { offsetInCU: 0x294AD, offset: 0x294AD, size: 0x8, addend: 0x0, symName: __ZNSt3__119__allocator_destroyB8ue170006INS_9allocatorINS_12basic_stringIcNS_11char_traitsIcEENS1_IcEEEEEENS_16reverse_iteratorIPS6_EESA_EEvRT_T0_T1_, symObjAddr: 0x8DB0, symBinAddr: 0x10000BF68, symSize: 0x70 }
  - { offsetInCU: 0x29563, offset: 0x29563, size: 0x8, addend: 0x0, symName: __ZNSt3__123__dispatch_copy_or_moveB8ue170006INS_17_ClassicAlgPolicyENS_11__copy_loopIS1_EENS_14__copy_trivialEPNS_12basic_stringIcNS_11char_traitsIcEENS_9allocatorIcEEEESB_SB_EENS_4pairIT2_T4_EESD_T3_SE_, symObjAddr: 0x8E9C, symBinAddr: 0x10000C054, symSize: 0x44 }
  - { offsetInCU: 0x295E1, offset: 0x295E1, size: 0x8, addend: 0x0, symName: __ZNSt3__121__unwrap_and_dispatchB8ue170006INS_10__overloadINS_11__copy_loopINS_17_ClassicAlgPolicyEEENS_14__copy_trivialEEEPNS_12basic_stringIcNS_11char_traitsIcEENS_9allocatorIcEEEESD_SD_Li0EEENS_4pairIT0_T2_EESF_T1_SG_, symObjAddr: 0x8EE0, symBinAddr: 0x10000C098, symSize: 0xB4 }
  - { offsetInCU: 0x296CA, offset: 0x296CA, size: 0x8, addend: 0x0, symName: __ZNSt3__19make_pairB8ue170006IPNS_12basic_stringIcNS_11char_traitsIcEENS_9allocatorIcEEEES7_EENS_4pairINS_18__unwrap_ref_decayIT_E4typeENS9_IT0_E4typeEEEOSA_OSD_, symObjAddr: 0x901C, symBinAddr: 0x10000C1D4, symSize: 0x38 }
  - { offsetInCU: 0x29719, offset: 0x29719, size: 0x8, addend: 0x0, symName: __ZNSt3__114__rewrap_rangeB8ue170006IPNS_12basic_stringIcNS_11char_traitsIcEENS_9allocatorIcEEEES7_S7_EET0_S8_T1_, symObjAddr: 0x9054, symBinAddr: 0x10000C20C, symSize: 0x2C }
  - { offsetInCU: 0x2976F, offset: 0x2976F, size: 0x8, addend: 0x0, symName: __ZNSt3__110__distanceB8ue170006IPNS_12basic_stringIcNS_11char_traitsIcEENS_9allocatorIcEEEEEENS_15iterator_traitsIT_E15difference_typeES9_S9_NS_26random_access_iterator_tagE, symObjAddr: 0x9208, symBinAddr: 0x10000C3C0, symSize: 0x28 }
  - { offsetInCU: 0x297BD, offset: 0x297BD, size: 0x8, addend: 0x0, symName: __ZNSt3__112__to_addressB8ue170006IiEEPT_S2_, symObjAddr: 0x9850, symBinAddr: 0x10000CA08, symSize: 0x14 }
  - { offsetInCU: 0x29819, offset: 0x29819, size: 0x8, addend: 0x0, symName: __ZNSt3__112construct_atB8ue170006IiJiEPiEEPT_S3_DpOT0_, symObjAddr: 0x98D4, symBinAddr: 0x10000CA8C, symSize: 0x2C }
  - { offsetInCU: 0x2988A, offset: 0x2988A, size: 0x8, addend: 0x0, symName: __ZNSt3__119__allocate_at_leastB8ue170006INS_9allocatorIiEEEENS_19__allocation_resultINS_16allocator_traitsIT_E7pointerEEERS5_m, symObjAddr: 0x9E40, symBinAddr: 0x10000CFF8, symSize: 0x40 }
  - { offsetInCU: 0x298CD, offset: 0x298CD, size: 0x8, addend: 0x0, symName: __ZNSt3__142__uninitialized_allocator_move_if_noexceptB8ue170006INS_9allocatorIiEENS_16reverse_iteratorIPiEES5_ivEET1_RT_T0_S9_S6_, symObjAddr: 0xA0AC, symBinAddr: 0x10000D264, symSize: 0x78 }
  - { offsetInCU: 0x2994C, offset: 0x2994C, size: 0x8, addend: 0x0, symName: __ZNSt3__14swapB8ue170006IPiEENS_9enable_ifIXaasr21is_move_constructibleIT_EE5valuesr18is_move_assignableIS3_EE5valueEvE4typeERS3_S6_, symObjAddr: 0xA170, symBinAddr: 0x10000D328, symSize: 0x3C }
  - { offsetInCU: 0x2999C, offset: 0x2999C, size: 0x8, addend: 0x0, symName: __ZNSt3__14moveB8ue170006INS_16reverse_iteratorIPiEES3_EET0_T_S5_S4_, symObjAddr: 0xA2A0, symBinAddr: 0x10000D458, symSize: 0x78 }
  - { offsetInCU: 0x299F6, offset: 0x299F6, size: 0x8, addend: 0x0, symName: __ZNSt3__16__moveB8ue170006INS_17_ClassicAlgPolicyENS_16reverse_iteratorIPiEES4_S4_EENS_4pairIT0_T2_EES6_T1_S7_, symObjAddr: 0xA318, symBinAddr: 0x10000D4D0, symSize: 0x64 }
  - { offsetInCU: 0x29A62, offset: 0x29A62, size: 0x8, addend: 0x0, symName: __ZNSt3__123__dispatch_copy_or_moveB8ue170006INS_17_ClassicAlgPolicyENS_11__move_loopIS1_EENS_14__move_trivialENS_16reverse_iteratorIPiEES7_S7_EENS_4pairIT2_T4_EES9_T3_SA_, symObjAddr: 0xA37C, symBinAddr: 0x10000D534, symSize: 0x64 }
  - { offsetInCU: 0x29AE0, offset: 0x29AE0, size: 0x8, addend: 0x0, symName: __ZNSt3__121__unwrap_and_dispatchB8ue170006INS_10__overloadINS_11__move_loopINS_17_ClassicAlgPolicyEEENS_14__move_trivialEEENS_16reverse_iteratorIPiEES9_S9_Li0EEENS_4pairIT0_T2_EESB_T1_SC_, symObjAddr: 0xA3E0, symBinAddr: 0x10000D598, symSize: 0x12C }
  - { offsetInCU: 0x29B70, offset: 0x29B70, size: 0x8, addend: 0x0, symName: __ZNSt3__114__unwrap_rangeB8ue170006INS_16reverse_iteratorIPiEES3_EEDaT_T0_, symObjAddr: 0xA50C, symBinAddr: 0x10000D6C4, symSize: 0x4C }
  - { offsetInCU: 0x29CE2, offset: 0x29CE2, size: 0x8, addend: 0x0, symName: __ZNSt3__113__unwrap_iterB8ue170006INS_16reverse_iteratorIPiEENS_18__unwrap_iter_implIS3_Lb0EEELi0EEEDTclsrT0_8__unwrapclsr3stdE7declvalIT_EEEES7_, symObjAddr: 0xA5F8, symBinAddr: 0x10000D7B0, symSize: 0x44 }
  - { offsetInCU: 0x29D26, offset: 0x29D26, size: 0x8, addend: 0x0, symName: __ZNSt3__19make_pairB8ue170006INS_16reverse_iteratorIPiEES3_EENS_4pairINS_18__unwrap_ref_decayIT_E4typeENS5_IT0_E4typeEEEOS6_OS9_, symObjAddr: 0xA63C, symBinAddr: 0x10000D7F4, symSize: 0x38 }
  - { offsetInCU: 0x29D75, offset: 0x29D75, size: 0x8, addend: 0x0, symName: __ZNSt3__114__rewrap_rangeB8ue170006INS_16reverse_iteratorIPiEES3_S3_EET0_S4_T1_, symObjAddr: 0xA674, symBinAddr: 0x10000D82C, symSize: 0x5C }
  - { offsetInCU: 0x29DCA, offset: 0x29DCA, size: 0x8, addend: 0x0, symName: __ZNSt3__113__rewrap_iterB8ue170006INS_16reverse_iteratorIPiEES3_NS_18__unwrap_iter_implIS3_Lb0EEEEET_S6_T0_, symObjAddr: 0xA6D0, symBinAddr: 0x10000D888, symSize: 0x74 }
  - { offsetInCU: 0x29E6F, offset: 0x29E6F, size: 0x8, addend: 0x0, symName: __ZNSt3__1neB8ue170006IPiS1_EEbRKNS_16reverse_iteratorIT_EERKNS2_IT0_EE, symObjAddr: 0xA838, symBinAddr: 0x10000D9F0, symSize: 0x48 }
  - { offsetInCU: 0x2A109, offset: 0x2A109, size: 0x8, addend: 0x0, symName: __ZNSt3__110destroy_atB8ue170006IiLi0EEEvPT_, symObjAddr: 0xABC4, symBinAddr: 0x10000DD7C, symSize: 0x24 }
  - { offsetInCU: 0x2A141, offset: 0x2A141, size: 0x8, addend: 0x0, symName: __ZNSt3__112__destroy_atB8ue170006IiLi0EEEvPT_, symObjAddr: 0xABE8, symBinAddr: 0x10000DDA0, symSize: 0x10 }
  - { offsetInCU: 0x2A179, offset: 0x2A179, size: 0x8, addend: 0x0, symName: __ZNSt3__112construct_atB8ue170006IiJRKiEPiEEPT_S5_DpOT0_, symObjAddr: 0xAE1C, symBinAddr: 0x10000DFD4, symSize: 0x2C }
  - { offsetInCU: 0x2A1EA, offset: 0x2A1EA, size: 0x8, addend: 0x0, symName: __ZNSt3__18distanceB8ue170006IPiEENS_15iterator_traitsIT_E15difference_typeES3_S3_, symObjAddr: 0xB048, symBinAddr: 0x10000E200, symSize: 0x2C }
  - { offsetInCU: 0x2A22D, offset: 0x2A22D, size: 0x8, addend: 0x0, symName: __ZNSt3__14nextB8ue170006IPiEENS_9enable_ifIXsr29__has_input_iterator_categoryIT_EE5valueES3_E4typeES3_NS_15iterator_traitsIS3_E15difference_typeE, symObjAddr: 0xB074, symBinAddr: 0x10000E22C, symSize: 0x34 }
  - { offsetInCU: 0x2A270, offset: 0x2A270, size: 0x8, addend: 0x0, symName: __ZNSt3__14copyB8ue170006IPiS1_EET0_T_S3_S2_, symObjAddr: 0xB0A8, symBinAddr: 0x10000E260, symSize: 0x40 }
  - { offsetInCU: 0x2A2CA, offset: 0x2A2CA, size: 0x8, addend: 0x0, symName: __ZNSt3__16__copyB8ue170006INS_17_ClassicAlgPolicyEPiS2_S2_EENS_4pairIT0_T2_EES4_T1_S5_, symObjAddr: 0xB174, symBinAddr: 0x10000E32C, symSize: 0x44 }
  - { offsetInCU: 0x2A337, offset: 0x2A337, size: 0x8, addend: 0x0, symName: __ZNSt3__19__advanceB8ue170006IPiEEvRT_NS_15iterator_traitsIS2_E15difference_typeENS_26random_access_iterator_tagE, symObjAddr: 0xB37C, symBinAddr: 0x10000E534, symSize: 0x28 }
  - { offsetInCU: 0x2A381, offset: 0x2A381, size: 0x8, addend: 0x0, symName: __ZNSt3__130__uninitialized_allocator_copyB8ue170006INS_9allocatorIiEEPiS3_S3_EET2_RT_T0_T1_S4_, symObjAddr: 0xB3A4, symBinAddr: 0x10000E55C, symSize: 0x80 }
  - { offsetInCU: 0x2A41E, offset: 0x2A41E, size: 0x8, addend: 0x0, symName: __ZNSt3__114__unwrap_rangeB8ue170006IPiS1_EEDaT_T0_, symObjAddr: 0xB424, symBinAddr: 0x10000E5DC, symSize: 0x3C }
  - { offsetInCU: 0x2A46A, offset: 0x2A46A, size: 0x8, addend: 0x0, symName: __ZNSt3__135__uninitialized_allocator_copy_implB8ue170006INS_9allocatorIiEEiiiLPv0EEEPT2_RT_PT0_S9_S5_, symObjAddr: 0xB460, symBinAddr: 0x10000E618, symSize: 0x38 }
  - { offsetInCU: 0x2A4EC, offset: 0x2A4EC, size: 0x8, addend: 0x0, symName: __ZNSt3__113__unwrap_iterB8ue170006IPiNS_18__unwrap_iter_implIS1_Lb1EEELi0EEEDTclsrT0_8__unwrapclsr3stdE7declvalIT_EEEES5_, symObjAddr: 0xB498, symBinAddr: 0x10000E650, symSize: 0x24 }
  - { offsetInCU: 0x2A530, offset: 0x2A530, size: 0x8, addend: 0x0, symName: __ZNSt3__113__rewrap_iterB8ue170006IPiS1_NS_18__unwrap_iter_implIS1_Lb1EEEEET_S4_T0_, symObjAddr: 0xB4BC, symBinAddr: 0x10000E674, symSize: 0x3C }
  - { offsetInCU: 0x2A72B, offset: 0x2A72B, size: 0x8, addend: 0x0, symName: __ZNSt3__123__dispatch_copy_or_moveB8ue170006INS_17_ClassicAlgPolicyENS_11__copy_loopIS1_EENS_14__copy_trivialEPiS5_S5_EENS_4pairIT2_T4_EES7_T3_S8_, symObjAddr: 0xB634, symBinAddr: 0x10000E7EC, symSize: 0x44 }
  - { offsetInCU: 0x2A7A9, offset: 0x2A7A9, size: 0x8, addend: 0x0, symName: __ZNSt3__121__unwrap_and_dispatchB8ue170006INS_10__overloadINS_11__copy_loopINS_17_ClassicAlgPolicyEEENS_14__copy_trivialEEEPiS7_S7_Li0EEENS_4pairIT0_T2_EES9_T1_SA_, symObjAddr: 0xB678, symBinAddr: 0x10000E830, symSize: 0xB4 }
  - { offsetInCU: 0x2A8B9, offset: 0x2A8B9, size: 0x8, addend: 0x0, symName: __ZNSt3__19make_pairB8ue170006IPiS1_EENS_4pairINS_18__unwrap_ref_decayIT_E4typeENS3_IT0_E4typeEEEOS4_OS7_, symObjAddr: 0xB774, symBinAddr: 0x10000E92C, symSize: 0x38 }
  - { offsetInCU: 0x2A908, offset: 0x2A908, size: 0x8, addend: 0x0, symName: __ZNSt3__114__rewrap_rangeB8ue170006IPiS1_S1_EET0_S2_T1_, symObjAddr: 0xB7AC, symBinAddr: 0x10000E964, symSize: 0x2C }
  - { offsetInCU: 0x2A95D, offset: 0x2A95D, size: 0x8, addend: 0x0, symName: __ZNSt3__119__copy_trivial_implB8ue170006IiiEENS_4pairIPT_PT0_EES3_S3_S5_, symObjAddr: 0xB7D8, symBinAddr: 0x10000E990, symSize: 0x80 }
  - { offsetInCU: 0x2A9C5, offset: 0x2A9C5, size: 0x8, addend: 0x0, symName: __ZNSt3__119__constexpr_memmoveB8ue170006IiiLi0EEEPT_S2_PT0_NS_15__element_countE, symObjAddr: 0xB858, symBinAddr: 0x10000EA10, symSize: 0x64 }
  - { offsetInCU: 0x2AA33, offset: 0x2AA33, size: 0x8, addend: 0x0, symName: __ZNSt3__19make_pairB8ue170006IRPiS1_EENS_4pairINS_18__unwrap_ref_decayIT_E4typeENS4_IT0_E4typeEEEOS5_OS8_, symObjAddr: 0xB8BC, symBinAddr: 0x10000EA74, symSize: 0x38 }
  - { offsetInCU: 0x2AA83, offset: 0x2AA83, size: 0x8, addend: 0x0, symName: __ZNSt3__110__distanceB8ue170006IPiEENS_15iterator_traitsIT_E15difference_typeES3_S3_NS_26random_access_iterator_tagE, symObjAddr: 0xBB3C, symBinAddr: 0x10000ECF4, symSize: 0x28 }
  - { offsetInCU: 0x2AAD0, offset: 0x2AAD0, size: 0x8, addend: 0x0, symName: __ZNSt3__1eqB8ue170006IPKNS_12basic_stringIcNS_11char_traitsIcEENS_9allocatorIcEEEEEEbRKNS_11__wrap_iterIT_EESD_, symObjAddr: 0xBD10, symBinAddr: 0x10000EEC8, symSize: 0x48 }
  - { offsetInCU: 0x2AB13, offset: 0x2AB13, size: 0x8, addend: 0x0, symName: __ZNSt3__18distanceB8ue170006INS_20__map_const_iteratorINS_21__tree_const_iteratorINS_12__value_typeINS_12basic_stringIcNS_11char_traitsIcEENS_9allocatorIcEEEEiEEPNS_11__tree_nodeISA_PvEElEEEEEENS_15iterator_traitsIT_E15difference_typeESI_SI_, symObjAddr: 0xBE40, symBinAddr: 0x10000EFF8, symSize: 0x3C }
  - { offsetInCU: 0x2AB56, offset: 0x2AB56, size: 0x8, addend: 0x0, symName: __ZNSt3__110__distanceB8ue170006INS_20__map_const_iteratorINS_21__tree_const_iteratorINS_12__value_typeINS_12basic_stringIcNS_11char_traitsIcEENS_9allocatorIcEEEEiEEPNS_11__tree_nodeISA_PvEElEEEEEENS_15iterator_traitsIT_E15difference_typeESI_SI_NS_18input_iterator_tagE, symObjAddr: 0xC00C, symBinAddr: 0x10000F1C4, symSize: 0x5C }
  - { offsetInCU: 0x2ABB2, offset: 0x2ABB2, size: 0x8, addend: 0x0, symName: __ZNSt3__1neB8ue170006ERKNS_20__map_const_iteratorINS_21__tree_const_iteratorINS_12__value_typeINS_12basic_stringIcNS_11char_traitsIcEENS_9allocatorIcEEEEiEEPNS_11__tree_nodeIS9_PvEElEEEESH_, symObjAddr: 0xC068, symBinAddr: 0x10000F220, symSize: 0x30 }
  - { offsetInCU: 0x2ABEF, offset: 0x2ABEF, size: 0x8, addend: 0x0, symName: __ZNSt3__1neB8ue170006ERKNS_21__tree_const_iteratorINS_12__value_typeINS_12basic_stringIcNS_11char_traitsIcEENS_9allocatorIcEEEEiEEPNS_11__tree_nodeIS8_PvEElEESF_, symObjAddr: 0xC0C4, symBinAddr: 0x10000F27C, symSize: 0x34 }
  - { offsetInCU: 0x2AC2D, offset: 0x2AC2D, size: 0x8, addend: 0x0, symName: __ZNSt3__1eqB8ue170006ERKNS_21__tree_const_iteratorINS_12__value_typeINS_12basic_stringIcNS_11char_traitsIcEENS_9allocatorIcEEEEiEEPNS_11__tree_nodeIS8_PvEElEESF_, symObjAddr: 0xC0F8, symBinAddr: 0x10000F2B0, symSize: 0x30 }
  - { offsetInCU: 0x2AC69, offset: 0x2AC69, size: 0x8, addend: 0x0, symName: __ZNSt3__116__tree_next_iterB8ue170006IPNS_15__tree_end_nodeIPNS_16__tree_node_baseIPvEEEES5_EET_T0_, symObjAddr: 0xC160, symBinAddr: 0x10000F318, symSize: 0x90 }
  - { offsetInCU: 0x2ACA8, offset: 0x2ACA8, size: 0x8, addend: 0x0, symName: __ZNSt3__110__tree_minB8ue170006IPNS_16__tree_node_baseIPvEEEET_S5_, symObjAddr: 0xC1F0, symBinAddr: 0x10000F3A8, symSize: 0x40 }
  - { offsetInCU: 0x2ACDD, offset: 0x2ACDD, size: 0x8, addend: 0x0, symName: __ZNSt3__120__tree_is_left_childB8ue170006IPNS_16__tree_node_baseIPvEEEEbT_, symObjAddr: 0xC230, symBinAddr: 0x10000F3E8, symSize: 0x2C }
  - { offsetInCU: 0x2AD11, offset: 0x2AD11, size: 0x8, addend: 0x0, symName: __ZNSt3__122__make_exception_guardB8ue170006INS_6vectorINS_4pairINS_12basic_stringIcNS_11char_traitsIcEENS_9allocatorIcEEEEiEENS6_IS9_EEE16__destroy_vectorEEENS_28__exception_guard_exceptionsIT_EESE_, symObjAddr: 0xC274, symBinAddr: 0x10000F42C, symSize: 0x40 }
  - { offsetInCU: 0x2AD46, offset: 0x2AD46, size: 0x8, addend: 0x0, symName: __ZNSt3__119__allocate_at_leastB8ue170006INS_9allocatorINS_4pairINS_12basic_stringIcNS_11char_traitsIcEENS1_IcEEEEiEEEEEENS_19__allocation_resultINS_16allocator_traitsIT_E7pointerEEERSC_m, symObjAddr: 0xC56C, symBinAddr: 0x10000F724, symSize: 0x40 }
  - { offsetInCU: 0x2AD8A, offset: 0x2AD8A, size: 0x8, addend: 0x0, symName: __ZNSt3__112__to_addressB8ue170006INS_4pairINS_12basic_stringIcNS_11char_traitsIcEENS_9allocatorIcEEEEiEEEEPT_SA_, symObjAddr: 0xC880, symBinAddr: 0x10000FA38, symSize: 0x14 }
  - { offsetInCU: 0x2ADBE, offset: 0x2ADBE, size: 0x8, addend: 0x0, symName: __ZNSt3__130__uninitialized_allocator_copyB8ue170006INS_9allocatorINS_4pairINS_12basic_stringIcNS_11char_traitsIcEENS1_IcEEEEiEEEENS_20__map_const_iteratorINS_21__tree_const_iteratorINS_12__value_typeIS7_iEEPNS_11__tree_nodeISD_PvEElEEEESJ_PS8_EET2_RT_T0_T1_SL_, symObjAddr: 0xC930, symBinAddr: 0x10000FAE8, symSize: 0x90 }
  - { offsetInCU: 0x2AE5B, offset: 0x2AE5B, size: 0x8, addend: 0x0, symName: __ZNSt3__114__unwrap_rangeB8ue170006INS_20__map_const_iteratorINS_21__tree_const_iteratorINS_12__value_typeINS_12basic_stringIcNS_11char_traitsIcEENS_9allocatorIcEEEEiEEPNS_11__tree_nodeISA_PvEElEEEESG_EEDaT_T0_, symObjAddr: 0xCA30, symBinAddr: 0x10000FBE8, symSize: 0x4C }
  - { offsetInCU: 0x2AEA7, offset: 0x2AEA7, size: 0x8, addend: 0x0, symName: __ZNSt3__135__uninitialized_allocator_copy_implB8ue170006INS_9allocatorINS_4pairINS_12basic_stringIcNS_11char_traitsIcEENS1_IcEEEEiEEEENS_20__map_const_iteratorINS_21__tree_const_iteratorINS_12__value_typeIS7_iEEPNS_11__tree_nodeISD_PvEElEEEESJ_PS8_EET2_RT_T0_T1_SL_, symObjAddr: 0xCA7C, symBinAddr: 0x10000FC34, symSize: 0x110 }
  - { offsetInCU: 0x2AF45, offset: 0x2AF45, size: 0x8, addend: 0x0, symName: __ZNSt3__113__unwrap_iterB8ue170006IPNS_4pairINS_12basic_stringIcNS_11char_traitsIcEENS_9allocatorIcEEEEiEENS_18__unwrap_iter_implIS9_Lb1EEELi0EEEDTclsrT0_8__unwrapclsr3stdE7declvalIT_EEEESD_, symObjAddr: 0xCB8C, symBinAddr: 0x10000FD44, symSize: 0x24 }
  - { offsetInCU: 0x2AF89, offset: 0x2AF89, size: 0x8, addend: 0x0, symName: __ZNSt3__113__rewrap_iterB8ue170006IPNS_4pairINS_12basic_stringIcNS_11char_traitsIcEENS_9allocatorIcEEEEiEES9_NS_18__unwrap_iter_implIS9_Lb1EEEEET_SC_T0_, symObjAddr: 0xCBB0, symBinAddr: 0x10000FD68, symSize: 0x3C }
  - { offsetInCU: 0x2B014, offset: 0x2B014, size: 0x8, addend: 0x0, symName: __ZNSt3__113__unwrap_iterB8ue170006INS_20__map_const_iteratorINS_21__tree_const_iteratorINS_12__value_typeINS_12basic_stringIcNS_11char_traitsIcEENS_9allocatorIcEEEEiEEPNS_11__tree_nodeISA_PvEElEEEENS_18__unwrap_iter_implISG_Lb0EEELi0EEEDTclsrT0_8__unwrapclsr3stdE7declvalIT_EEEESK_, symObjAddr: 0xCC54, symBinAddr: 0x10000FE0C, symSize: 0x34 }
  - { offsetInCU: 0x2B0A0, offset: 0x2B0A0, size: 0x8, addend: 0x0, symName: __ZNSt3__122__make_exception_guardB8ue170006INS_29_AllocatorDestroyRangeReverseINS_9allocatorINS_4pairINS_12basic_stringIcNS_11char_traitsIcEENS2_IcEEEEiEEEEPS9_EEEENS_28__exception_guard_exceptionsIT_EESE_, symObjAddr: 0xCD14, symBinAddr: 0x10000FECC, symSize: 0x4C }
  - { offsetInCU: 0x2B0FD, offset: 0x2B0FD, size: 0x8, addend: 0x0, symName: __ZNSt3__112construct_atB8ue170006INS_4pairINS_12basic_stringIcNS_11char_traitsIcEENS_9allocatorIcEEEEiEEJRKNS1_IKS7_iEEEPS8_EEPT_SF_DpOT0_, symObjAddr: 0xCEE0, symBinAddr: 0x100010098, symSize: 0x3C }
  - { offsetInCU: 0x2B1A2, offset: 0x2B1A2, size: 0x8, addend: 0x0, symName: __ZNSt3__17launderB8ue170006IKNS_4pairIKNS_12basic_stringIcNS_11char_traitsIcEENS_9allocatorIcEEEEiEEEEPT_SC_, symObjAddr: 0xD00C, symBinAddr: 0x1000101C4, symSize: 0x24 }
  - { offsetInCU: 0x2B1DA, offset: 0x2B1DA, size: 0x8, addend: 0x0, symName: __ZNSt3__19__launderB8ue170006IKNS_4pairIKNS_12basic_stringIcNS_11char_traitsIcEENS_9allocatorIcEEEEiEEEEPT_SC_, symObjAddr: 0xD030, symBinAddr: 0x1000101E8, symSize: 0x14 }
  - { offsetInCU: 0x2B210, offset: 0x2B210, size: 0x8, addend: 0x0, symName: __ZNSt3__119__allocator_destroyB8ue170006INS_9allocatorINS_4pairINS_12basic_stringIcNS_11char_traitsIcEENS1_IcEEEEiEEEENS_16reverse_iteratorIPS8_EESC_EEvRT_T0_T1_, symObjAddr: 0xD0FC, symBinAddr: 0x1000102B4, symSize: 0x70 }
  - { offsetInCU: 0x2B273, offset: 0x2B273, size: 0x8, addend: 0x0, symName: __ZNSt3__1neB8ue170006IPNS_4pairINS_12basic_stringIcNS_11char_traitsIcEENS_9allocatorIcEEEEiEES9_EEbRKNS_16reverse_iteratorIT_EERKNSA_IT0_EE, symObjAddr: 0xD1A0, symBinAddr: 0x100010358, symSize: 0x48 }
  - { offsetInCU: 0x2B2BF, offset: 0x2B2BF, size: 0x8, addend: 0x0, symName: __ZNSt3__112__to_addressB8ue170006INS_16reverse_iteratorIPNS_4pairINS_12basic_stringIcNS_11char_traitsIcEENS_9allocatorIcEEEEiEEEEvEEu7__decayIDTclsr19__to_address_helperIT_EE6__callclsr3stdE7declvalIRKSC_EEEEESE_, symObjAddr: 0xD210, symBinAddr: 0x1000103C8, symSize: 0x24 }
  - { offsetInCU: 0x2B2F5, offset: 0x2B2F5, size: 0x8, addend: 0x0, symName: __ZNSt3__110destroy_atB8ue170006INS_4pairINS_12basic_stringIcNS_11char_traitsIcEENS_9allocatorIcEEEEiEELi0EEEvPT_, symObjAddr: 0xD26C, symBinAddr: 0x100010424, symSize: 0x24 }
  - { offsetInCU: 0x2B32C, offset: 0x2B32C, size: 0x8, addend: 0x0, symName: __ZNSt3__112__destroy_atB8ue170006INS_4pairINS_12basic_stringIcNS_11char_traitsIcEENS_9allocatorIcEEEEiEELi0EEEvPT_, symObjAddr: 0xD290, symBinAddr: 0x100010448, symSize: 0x24 }
  - { offsetInCU: 0x2B38C, offset: 0x2B38C, size: 0x8, addend: 0x0, symName: __ZNSt3__14prevB8ue170006IPNS_4pairINS_12basic_stringIcNS_11char_traitsIcEENS_9allocatorIcEEEEiEEEENS_9enable_ifIXsr29__has_input_iterator_categoryIT_EE5valueESB_E4typeESB_NS_15iterator_traitsISB_E15difference_typeE, symObjAddr: 0xD370, symBinAddr: 0x100010528, symSize: 0x3C }
  - { offsetInCU: 0x2B3D0, offset: 0x2B3D0, size: 0x8, addend: 0x0, symName: __ZNSt3__19__advanceB8ue170006IPNS_4pairINS_12basic_stringIcNS_11char_traitsIcEENS_9allocatorIcEEEEiEEEEvRT_NS_15iterator_traitsISA_E15difference_typeENS_26random_access_iterator_tagE, symObjAddr: 0xD3E4, symBinAddr: 0x10001059C, symSize: 0x28 }
  - { offsetInCU: 0x2B46D, offset: 0x2B46D, size: 0x8, addend: 0x0, symName: '__ZNSt3__111__sort_implB8ue170006INS_17_ClassicAlgPolicyENS_11__wrap_iterIPNS_4pairINS_12basic_stringIcNS_11char_traitsIcEENS_9allocatorIcEEEEiEEEEZ16getTopKInterestsRKNS_3mapIiNSD_IS9_iNS_4lessIS9_EENS7_INS3_IKS9_iEEEEEENSE_IiEENS7_INS3_IKiSJ_EEEEEEiE3$_0EEvT0_SS_RT1_', symObjAddr: 0xD788, symBinAddr: 0x100010940, symSize: 0xA8 }
  - { offsetInCU: 0x2B4D1, offset: 0x2B4D1, size: 0x8, addend: 0x0, symName: __ZNSt3__123__debug_randomize_rangeB8ue170006INS_17_ClassicAlgPolicyENS_11__wrap_iterIPNS_4pairINS_12basic_stringIcNS_11char_traitsIcEENS_9allocatorIcEEEEiEEEESC_EEvT0_T1_, symObjAddr: 0xD830, symBinAddr: 0x1000109E8, symSize: 0x14 }
  - { offsetInCU: 0x2B522, offset: 0x2B522, size: 0x8, addend: 0x0, symName: '__ZNSt3__115__sort_dispatchB8ue170006INS_17_ClassicAlgPolicyEPNS_4pairINS_12basic_stringIcNS_11char_traitsIcEENS_9allocatorIcEEEEiEEZ16getTopKInterestsRKNS_3mapIiNSB_IS8_iNS_4lessIS8_EENS6_INS2_IKS8_iEEEEEENSC_IiEENS6_INS2_IKiSH_EEEEEEiE3$_0EEvT0_SQ_RT1_', symObjAddr: 0xD844, symBinAddr: 0x1000109FC, symSize: 0x64 }
  - { offsetInCU: 0x2B5A0, offset: 0x2B5A0, size: 0x8, addend: 0x0, symName: __ZNSt3__113__unwrap_iterB8ue170006INS_11__wrap_iterIPNS_4pairINS_12basic_stringIcNS_11char_traitsIcEENS_9allocatorIcEEEEiEEEENS_18__unwrap_iter_implISB_Lb1EEELi0EEEDTclsrT0_8__unwrapclsr3stdE7declvalIT_EEEESF_, symObjAddr: 0xD8A8, symBinAddr: 0x100010A60, symSize: 0x2C }
  - { offsetInCU: 0x2B5E5, offset: 0x2B5E5, size: 0x8, addend: 0x0, symName: '__ZNSt3__135__check_strict_weak_ordering_sortedB8ue170006IPNS_4pairINS_12basic_stringIcNS_11char_traitsIcEENS_9allocatorIcEEEEiEEZ16getTopKInterestsRKNS_3mapIiNSA_IS7_iNS_4lessIS7_EENS5_INS1_IKS7_iEEEEEENSB_IiEENS5_INS1_IKiSG_EEEEEEiE3$_0EEvT_SP_RT0_', symObjAddr: 0xD8D4, symBinAddr: 0x100010A8C, symSize: 0x18 }
  - { offsetInCU: 0x2B63B, offset: 0x2B63B, size: 0x8, addend: 0x0, symName: __ZNSt3__17__log2iB8ue170006IlEET_S1_, symObjAddr: 0xD8EC, symBinAddr: 0x100010AA4, symSize: 0x54 }
  - { offsetInCU: 0x2B673, offset: 0x2B673, size: 0x8, addend: 0x0, symName: __ZNSt3__112__libcpp_clzB8ue170006Em, symObjAddr: 0xDD8C, symBinAddr: 0x100010F44, symSize: 0x1C }
  - { offsetInCU: 0x2B69E, offset: 0x2B69E, size: 0x8, addend: 0x0, symName: '__ZNSt3__124__sort3_maybe_branchlessB8ue170006INS_17_ClassicAlgPolicyERZ16getTopKInterestsRKNS_3mapIiNS2_INS_12basic_stringIcNS_11char_traitsIcEENS_9allocatorIcEEEEiNS_4lessIS8_EENS6_INS_4pairIKS8_iEEEEEENS9_IiEENS6_INSB_IKiSF_EEEEEEiE3$_0PNSB_IS8_iEEEENS_9enable_ifIXntsr21__use_branchless_sortIT0_T1_EE5valueEvE4typeEST_ST_ST_SS_', symObjAddr: 0xDE10, symBinAddr: 0x100010FC8, symSize: 0x3C }
  - { offsetInCU: 0x2B70F, offset: 0x2B70F, size: 0x8, addend: 0x0, symName: '__ZNSt3__124__sort4_maybe_branchlessB8ue170006INS_17_ClassicAlgPolicyERZ16getTopKInterestsRKNS_3mapIiNS2_INS_12basic_stringIcNS_11char_traitsIcEENS_9allocatorIcEEEEiNS_4lessIS8_EENS6_INS_4pairIKS8_iEEEEEENS9_IiEENS6_INSB_IKiSF_EEEEEEiE3$_0PNSB_IS8_iEEEENS_9enable_ifIXntsr21__use_branchless_sortIT0_T1_EE5valueEvE4typeEST_ST_ST_ST_SS_', symObjAddr: 0xDE4C, symBinAddr: 0x100011004, symSize: 0x44 }
  - { offsetInCU: 0x2B78E, offset: 0x2B78E, size: 0x8, addend: 0x0, symName: '__ZNSt3__124__sort5_maybe_branchlessB8ue170006INS_17_ClassicAlgPolicyERZ16getTopKInterestsRKNS_3mapIiNS2_INS_12basic_stringIcNS_11char_traitsIcEENS_9allocatorIcEEEEiNS_4lessIS8_EENS6_INS_4pairIKS8_iEEEEEENS9_IiEENS6_INSB_IKiSF_EEEEEEiE3$_0PNSB_IS8_iEEEENS_9enable_ifIXntsr21__use_branchless_sortIT0_T1_EE5valueEvE4typeEST_ST_ST_ST_ST_SS_', symObjAddr: 0xDE90, symBinAddr: 0x100011048, symSize: 0x4C }
  - { offsetInCU: 0x2B81B, offset: 0x2B81B, size: 0x8, addend: 0x0, symName: '__ZNSt3__116__insertion_sortB8ue170006INS_17_ClassicAlgPolicyERZ16getTopKInterestsRKNS_3mapIiNS2_INS_12basic_stringIcNS_11char_traitsIcEENS_9allocatorIcEEEEiNS_4lessIS8_EENS6_INS_4pairIKS8_iEEEEEENS9_IiEENS6_INSB_IKiSF_EEEEEEiE3$_0PNSB_IS8_iEEEEvT1_SR_T0_', symObjAddr: 0xDEDC, symBinAddr: 0x100011094, symSize: 0x188 }
  - { offsetInCU: 0x2B8CE, offset: 0x2B8CE, size: 0x8, addend: 0x0, symName: '__ZNSt3__114__partial_sortB8ue170006INS_17_ClassicAlgPolicyERZ16getTopKInterestsRKNS_3mapIiNS2_INS_12basic_stringIcNS_11char_traitsIcEENS_9allocatorIcEEEEiNS_4lessIS8_EENS6_INS_4pairIKS8_iEEEEEENS9_IiEENS6_INSB_IKiSF_EEEEEEiE3$_0PNSB_IS8_iEESQ_EET1_SR_SR_T2_RT0_', symObjAddr: 0xE1BC, symBinAddr: 0x100011374, symSize: 0x94 }
  - { offsetInCU: 0x2B956, offset: 0x2B956, size: 0x8, addend: 0x0, symName: '__ZNSt3__17__sort3B8ue170006INS_17_ClassicAlgPolicyERZ16getTopKInterestsRKNS_3mapIiNS2_INS_12basic_stringIcNS_11char_traitsIcEENS_9allocatorIcEEEEiNS_4lessIS8_EENS6_INS_4pairIKS8_iEEEEEENS9_IiEENS6_INSB_IKiSF_EEEEEEiE3$_0PNSB_IS8_iEEEEjT1_SR_SR_T0_', symObjAddr: 0xE250, symBinAddr: 0x100011408, symSize: 0x144 }
  - { offsetInCU: 0x2B9D5, offset: 0x2B9D5, size: 0x8, addend: 0x0, symName: __ZNSt3__19iter_swapB8ue170006IPNS_4pairINS_12basic_stringIcNS_11char_traitsIcEENS_9allocatorIcEEEEiEES9_EEvT_T0_, symObjAddr: 0xEF6C, symBinAddr: 0x100012124, symSize: 0x2C }
  - { offsetInCU: 0x2BA1D, offset: 0x2BA1D, size: 0x8, addend: 0x0, symName: __ZNSt3__14swapB8ue170006INS_12basic_stringIcNS_11char_traitsIcEENS_9allocatorIcEEEEiEENS_9enable_ifIXaasr14__is_swappableIT_EE5valuesr14__is_swappableIT0_EE5valueEvE4typeERNS_4pairIS8_S9_EESE_, symObjAddr: 0xEF98, symBinAddr: 0x100012150, symSize: 0x2C }
  - { offsetInCU: 0x2BA6C, offset: 0x2BA6C, size: 0x8, addend: 0x0, symName: __ZNSt3__14swapB8ue170006IcNS_11char_traitsIcEENS_9allocatorIcEEEEvRNS_12basic_stringIT_T0_T1_EESA_, symObjAddr: 0xF008, symBinAddr: 0x1000121C0, symSize: 0x2C }
  - { offsetInCU: 0x2BAC1, offset: 0x2BAC1, size: 0x8, addend: 0x0, symName: __ZNSt3__14swapB8ue170006IiEENS_9enable_ifIXaasr21is_move_constructibleIT_EE5valuesr18is_move_assignableIS2_EE5valueEvE4typeERS2_S5_, symObjAddr: 0xF034, symBinAddr: 0x1000121EC, symSize: 0x3C }
  - { offsetInCU: 0x2BB12, offset: 0x2BB12, size: 0x8, addend: 0x0, symName: __ZNSt3__14swapB8ue170006INS_12basic_stringIcNS_11char_traitsIcEENS_9allocatorIcEEE5__repEEENS_9enable_ifIXaasr21is_move_constructibleIT_EE5valuesr18is_move_assignableIS9_EE5valueEvE4typeERS9_SC_, symObjAddr: 0xF0D4, symBinAddr: 0x10001228C, symSize: 0x54 }
  - { offsetInCU: 0x2BB62, offset: 0x2BB62, size: 0x8, addend: 0x0, symName: __ZNSt3__116__swap_allocatorB8ue170006INS_9allocatorIcEEEEvRT_S4_, symObjAddr: 0xF128, symBinAddr: 0x1000122E0, symSize: 0x2C }
  - { offsetInCU: 0x2BBA2, offset: 0x2BBA2, size: 0x8, addend: 0x0, symName: __ZNSt3__116__swap_allocatorB8ue170006INS_9allocatorIcEEEEvRT_S4_NS_17integral_constantIbLb0EEE, symObjAddr: 0xF154, symBinAddr: 0x10001230C, symSize: 0x14 }
  - { offsetInCU: 0x2BBE6, offset: 0x2BBE6, size: 0x8, addend: 0x0, symName: '__ZNSt3__17__sort4B8ue170006INS_17_ClassicAlgPolicyERZ16getTopKInterestsRKNS_3mapIiNS2_INS_12basic_stringIcNS_11char_traitsIcEENS_9allocatorIcEEEEiNS_4lessIS8_EENS6_INS_4pairIKS8_iEEEEEENS9_IiEENS6_INSB_IKiSF_EEEEEEiE3$_0PNSB_IS8_iEEEEvT1_SR_SR_SR_T0_', symObjAddr: 0xF168, symBinAddr: 0x100012320, symSize: 0xB8 }
  - { offsetInCU: 0x2BC61, offset: 0x2BC61, size: 0x8, addend: 0x0, symName: '__ZNSt3__17__sort5B8ue170006INS_17_ClassicAlgPolicyERZ16getTopKInterestsRKNS_3mapIiNS2_INS_12basic_stringIcNS_11char_traitsIcEENS_9allocatorIcEEEEiNS_4lessIS8_EENS6_INS_4pairIKS8_iEEEEEENS9_IiEENS6_INSB_IKiSF_EEEEEEiE3$_0PNSB_IS8_iEEEEvT1_SR_SR_SR_SR_T0_', symObjAddr: 0xF220, symBinAddr: 0x1000123D8, symSize: 0xE8 }
  - { offsetInCU: 0x2BD0F, offset: 0x2BD0F, size: 0x8, addend: 0x0, symName: __ZNSt3__123__debug_randomize_rangeB8ue170006INS_17_ClassicAlgPolicyEPNS_4pairINS_12basic_stringIcNS_11char_traitsIcEENS_9allocatorIcEEEEiEESA_EEvT0_T1_, symObjAddr: 0xF400, symBinAddr: 0x1000125B8, symSize: 0x14 }
  - { offsetInCU: 0x2BD60, offset: 0x2BD60, size: 0x8, addend: 0x0, symName: '__ZNSt3__119__partial_sort_implB8ue170006INS_17_ClassicAlgPolicyERZ16getTopKInterestsRKNS_3mapIiNS2_INS_12basic_stringIcNS_11char_traitsIcEENS_9allocatorIcEEEEiNS_4lessIS8_EENS6_INS_4pairIKS8_iEEEEEENS9_IiEENS6_INSB_IKiSF_EEEEEEiE3$_0PNSB_IS8_iEESQ_EET1_SR_SR_T2_OT0_', symObjAddr: 0xF414, symBinAddr: 0x1000125CC, symSize: 0x110 }
  - { offsetInCU: 0x2BDF6, offset: 0x2BDF6, size: 0x8, addend: 0x0, symName: '__ZNSt3__111__make_heapB8ue170006INS_17_ClassicAlgPolicyERZ16getTopKInterestsRKNS_3mapIiNS2_INS_12basic_stringIcNS_11char_traitsIcEENS_9allocatorIcEEEEiNS_4lessIS8_EENS6_INS_4pairIKS8_iEEEEEENS9_IiEENS6_INSB_IKiSF_EEEEEEiE3$_0PNSB_IS8_iEEEEvT1_SR_OT0_', symObjAddr: 0xF524, symBinAddr: 0x1000126DC, symSize: 0xB8 }
  - { offsetInCU: 0x2BE98, offset: 0x2BE98, size: 0x8, addend: 0x0, symName: '__ZNSt3__111__sort_heapB8ue170006INS_17_ClassicAlgPolicyERZ16getTopKInterestsRKNS_3mapIiNS2_INS_12basic_stringIcNS_11char_traitsIcEENS_9allocatorIcEEEEiNS_4lessIS8_EENS6_INS_4pairIKS8_iEEEEEENS9_IiEENS6_INSB_IKiSF_EEEEEEiE3$_0PNSB_IS8_iEEEEvT1_SR_OT0_', symObjAddr: 0xF820, symBinAddr: 0x1000129D8, symSize: 0xA8 }
  - { offsetInCU: 0x2BF3A, offset: 0x2BF3A, size: 0x8, addend: 0x0, symName: '__ZNSt3__110__pop_heapB8ue170006INS_17_ClassicAlgPolicyEZ16getTopKInterestsRKNS_3mapIiNS2_INS_12basic_stringIcNS_11char_traitsIcEENS_9allocatorIcEEEEiNS_4lessIS8_EENS6_INS_4pairIKS8_iEEEEEENS9_IiEENS6_INSB_IKiSF_EEEEEEiE3$_0PNSB_IS8_iEEEEvT1_SQ_RT0_NS_15iterator_traitsISQ_E15difference_typeE', symObjAddr: 0xF8C8, symBinAddr: 0x100012A80, symSize: 0x138 }
  - { offsetInCU: 0x2BFE2, offset: 0x2BFE2, size: 0x8, addend: 0x0, symName: '__ZNSt3__19__sift_upB8ue170006INS_17_ClassicAlgPolicyERZ16getTopKInterestsRKNS_3mapIiNS2_INS_12basic_stringIcNS_11char_traitsIcEENS_9allocatorIcEEEEiNS_4lessIS8_EENS6_INS_4pairIKS8_iEEEEEENS9_IiEENS6_INSB_IKiSF_EEEEEEiE3$_0PNSB_IS8_iEEEEvT1_SR_OT0_NS_15iterator_traitsISR_E15difference_typeE', symObjAddr: 0xFB00, symBinAddr: 0x100012CB8, symSize: 0x154 }
  - { offsetInCU: 0x2C082, offset: 0x2C082, size: 0x8, addend: 0x0, symName: '__ZNSt3__122__populate_left_bitsetB8ue170006IRZ16getTopKInterestsRKNS_3mapIiNS1_INS_12basic_stringIcNS_11char_traitsIcEENS_9allocatorIcEEEEiNS_4lessIS7_EENS5_INS_4pairIKS7_iEEEEEENS8_IiEENS5_INSA_IKiSE_EEEEEEiE3$_0PNSA_IS7_iEESO_EEvT0_T_RT1_Ry', symObjAddr: 0xFC54, symBinAddr: 0x100012E0C, symSize: 0xA8 }
  - { offsetInCU: 0x2C13D, offset: 0x2C13D, size: 0x8, addend: 0x0, symName: '__ZNSt3__123__populate_right_bitsetB8ue170006IRZ16getTopKInterestsRKNS_3mapIiNS1_INS_12basic_stringIcNS_11char_traitsIcEENS_9allocatorIcEEEEiNS_4lessIS7_EENS5_INS_4pairIKS7_iEEEEEENS8_IiEENS5_INSA_IKiSE_EEEEEEiE3$_0PNSA_IS7_iEESO_EEvT0_T_RT1_Ry', symObjAddr: 0xFCFC, symBinAddr: 0x100012EB4, symSize: 0xA0 }
  - { offsetInCU: 0x2C1F8, offset: 0x2C1F8, size: 0x8, addend: 0x0, symName: __ZNSt3__117__swap_bitmap_posB8ue170006INS_17_ClassicAlgPolicyEPNS_4pairINS_12basic_stringIcNS_11char_traitsIcEENS_9allocatorIcEEEEiEEEEvT0_SB_RySC_, symObjAddr: 0xFD9C, symBinAddr: 0x100012F54, symSize: 0x100 }
  - { offsetInCU: 0x2C299, offset: 0x2C299, size: 0x8, addend: 0x0, symName: '__ZNSt3__133__bitset_partition_partial_blocksB8ue170006INS_17_ClassicAlgPolicyERZ16getTopKInterestsRKNS_3mapIiNS2_INS_12basic_stringIcNS_11char_traitsIcEENS_9allocatorIcEEEEiNS_4lessIS8_EENS6_INS_4pairIKS8_iEEEEEENS9_IiEENS6_INSB_IKiSF_EEEEEEiE3$_0PNSB_IS8_iEESP_EEvRT1_SS_T0_RT2_RySW_', symObjAddr: 0xFE9C, symBinAddr: 0x100013054, symSize: 0x2E8 }
  - { offsetInCU: 0x2C41A, offset: 0x2C41A, size: 0x8, addend: 0x0, symName: __ZNSt3__19make_pairB8ue170006IRPNS_4pairINS_12basic_stringIcNS_11char_traitsIcEENS_9allocatorIcEEEEiEERbEENS1_INS_18__unwrap_ref_decayIT_E4typeENSC_IT0_E4typeEEEOSD_OSG_, symObjAddr: 0x10364, symBinAddr: 0x10001351C, symSize: 0x38 }
  - { offsetInCU: 0x2C46A, offset: 0x2C46A, size: 0x8, addend: 0x0, symName: __ZNSt3__112__libcpp_ctzB8ue170006Ey, symObjAddr: 0x1039C, symBinAddr: 0x100013554, symSize: 0x20 }
  - { offsetInCU: 0x2C496, offset: 0x2C496, size: 0x8, addend: 0x0, symName: __ZNSt3__113__libcpp_blsrB8ue170006Ey, symObjAddr: 0x103BC, symBinAddr: 0x100013574, symSize: 0x2C }
  - { offsetInCU: 0x2C4C2, offset: 0x2C4C2, size: 0x8, addend: 0x0, symName: __ZNSt3__112__libcpp_clzB8ue170006Ey, symObjAddr: 0x1041C, symBinAddr: 0x1000135D4, symSize: 0x1C }
  - { offsetInCU: 0x2C614, offset: 0x2C614, size: 0x8, addend: 0x0, symName: __ZNSt3__112__to_addressB8ue170006INS_11__wrap_iterIPNS_4pairINS_12basic_stringIcNS_11char_traitsIcEENS_9allocatorIcEEEEiEEEEvEEu7__decayIDTclsr19__to_address_helperIT_EE6__callclsr3stdE7declvalIRKSC_EEEEESE_, symObjAddr: 0x104D4, symBinAddr: 0x10001368C, symSize: 0x24 }
  - { offsetInCU: 0x2C6B1, offset: 0x2C6B1, size: 0x8, addend: 0x0, symName: __ZNSt3__1eqB8ue170006IPNS_12basic_stringIcNS_11char_traitsIcEENS_9allocatorIcEEEEEEbRKNS_11__wrap_iterIT_EESC_, symObjAddr: 0x106B4, symBinAddr: 0x10001386C, symSize: 0x48 }
  - { offsetInCU: 0x2C6F4, offset: 0x2C6F4, size: 0x8, addend: 0x0, symName: __ZNSt3__122__make_exception_guardB8ue170006INS_6vectorINS_12basic_stringIcNS_11char_traitsIcEENS_9allocatorIcEEEENS5_IS7_EEE16__destroy_vectorEEENS_28__exception_guard_exceptionsIT_EESC_, symObjAddr: 0x10A58, symBinAddr: 0x100013C10, symSize: 0x40 }
  - { offsetInCU: 0x2C729, offset: 0x2C729, size: 0x8, addend: 0x0, symName: __ZNSt3__14sortB8ue170006INS_11__wrap_iterIPNS_12basic_stringIcNS_11char_traitsIcEENS_9allocatorIcEEEEEENS_6__lessIvvEEEEvT_SC_T0_, symObjAddr: 0x10B80, symBinAddr: 0x100013D38, symSize: 0x40 }
  - { offsetInCU: 0x2C783, offset: 0x2C783, size: 0x8, addend: 0x0, symName: __ZNSt3__111__sort_implB8ue170006INS_17_ClassicAlgPolicyENS_11__wrap_iterIPNS_12basic_stringIcNS_11char_traitsIcEENS_9allocatorIcEEEEEENS_6__lessIvvEEEEvT0_SD_RT1_, symObjAddr: 0x10BC0, symBinAddr: 0x100013D78, symSize: 0xA8 }
  - { offsetInCU: 0x2C7E7, offset: 0x2C7E7, size: 0x8, addend: 0x0, symName: __ZNSt3__123__debug_randomize_rangeB8ue170006INS_17_ClassicAlgPolicyENS_11__wrap_iterIPNS_12basic_stringIcNS_11char_traitsIcEENS_9allocatorIcEEEEEESA_EEvT0_T1_, symObjAddr: 0x10C68, symBinAddr: 0x100013E20, symSize: 0x14 }
  - { offsetInCU: 0x2C838, offset: 0x2C838, size: 0x8, addend: 0x0, symName: __ZNSt3__115__sort_dispatchB8ue170006INS_17_ClassicAlgPolicyEPNS_12basic_stringIcNS_11char_traitsIcEENS_9allocatorIcEEEENS_6__lessIvvEEEEvT0_SB_RT1_, symObjAddr: 0x10C7C, symBinAddr: 0x100013E34, symSize: 0x64 }
  - { offsetInCU: 0x2C8B6, offset: 0x2C8B6, size: 0x8, addend: 0x0, symName: __ZNSt3__113__unwrap_iterB8ue170006INS_11__wrap_iterIPNS_12basic_stringIcNS_11char_traitsIcEENS_9allocatorIcEEEEEENS_18__unwrap_iter_implIS9_Lb1EEELi0EEEDTclsrT0_8__unwrapclsr3stdE7declvalIT_EEEESD_, symObjAddr: 0x10CE0, symBinAddr: 0x100013E98, symSize: 0x2C }
  - { offsetInCU: 0x2C8FB, offset: 0x2C8FB, size: 0x8, addend: 0x0, symName: __ZNSt3__135__check_strict_weak_ordering_sortedB8ue170006IPNS_12basic_stringIcNS_11char_traitsIcEENS_9allocatorIcEEEENS_6__lessIvvEEEEvT_SA_RT0_, symObjAddr: 0x10D0C, symBinAddr: 0x100013EC4, symSize: 0x18 }
  - { offsetInCU: 0x2C951, offset: 0x2C951, size: 0x8, addend: 0x0, symName: __ZNSt3__124__sort3_maybe_branchlessB8ue170006INS_17_ClassicAlgPolicyERNS_6__lessIvvEEPNS_12basic_stringIcNS_11char_traitsIcEENS_9allocatorIcEEEEEENS_9enable_ifIXntsr21__use_branchless_sortIT0_T1_EE5valueEvE4typeESE_SE_SE_SD_, symObjAddr: 0x11230, symBinAddr: 0x1000143E8, symSize: 0x3C }
  - { offsetInCU: 0x2C9C2, offset: 0x2C9C2, size: 0x8, addend: 0x0, symName: __ZNSt3__124__sort4_maybe_branchlessB8ue170006INS_17_ClassicAlgPolicyERNS_6__lessIvvEEPNS_12basic_stringIcNS_11char_traitsIcEENS_9allocatorIcEEEEEENS_9enable_ifIXntsr21__use_branchless_sortIT0_T1_EE5valueEvE4typeESE_SE_SE_SE_SD_, symObjAddr: 0x1126C, symBinAddr: 0x100014424, symSize: 0x44 }
  - { offsetInCU: 0x2CA41, offset: 0x2CA41, size: 0x8, addend: 0x0, symName: __ZNSt3__124__sort5_maybe_branchlessB8ue170006INS_17_ClassicAlgPolicyERNS_6__lessIvvEEPNS_12basic_stringIcNS_11char_traitsIcEENS_9allocatorIcEEEEEENS_9enable_ifIXntsr21__use_branchless_sortIT0_T1_EE5valueEvE4typeESE_SE_SE_SE_SE_SD_, symObjAddr: 0x112B0, symBinAddr: 0x100014468, symSize: 0x4C }
  - { offsetInCU: 0x2CACE, offset: 0x2CACE, size: 0x8, addend: 0x0, symName: __ZNSt3__116__insertion_sortB8ue170006INS_17_ClassicAlgPolicyERNS_6__lessIvvEEPNS_12basic_stringIcNS_11char_traitsIcEENS_9allocatorIcEEEEEEvT1_SC_T0_, symObjAddr: 0x112FC, symBinAddr: 0x1000144B4, symSize: 0x188 }
  - { offsetInCU: 0x2CB81, offset: 0x2CB81, size: 0x8, addend: 0x0, symName: __ZNSt3__114__partial_sortB8ue170006INS_17_ClassicAlgPolicyERNS_6__lessIvvEEPNS_12basic_stringIcNS_11char_traitsIcEENS_9allocatorIcEEEESB_EET1_SC_SC_T2_RT0_, symObjAddr: 0x115DC, symBinAddr: 0x100014794, symSize: 0x94 }
  - { offsetInCU: 0x2CC09, offset: 0x2CC09, size: 0x8, addend: 0x0, symName: __ZNSt3__17__sort3B8ue170006INS_17_ClassicAlgPolicyERNS_6__lessIvvEEPNS_12basic_stringIcNS_11char_traitsIcEENS_9allocatorIcEEEEEEjT1_SC_SC_T0_, symObjAddr: 0x11670, symBinAddr: 0x100014828, symSize: 0x144 }
  - { offsetInCU: 0x2CC89, offset: 0x2CC89, size: 0x8, addend: 0x0, symName: __ZNSt3__1ltB8ue170006ENS_15strong_orderingENS_20_CmpUnspecifiedParamE, symObjAddr: 0x12394, symBinAddr: 0x10001554C, symSize: 0x24 }
  - { offsetInCU: 0x2CCC2, offset: 0x2CCC2, size: 0x8, addend: 0x0, symName: __ZNSt3__1ssB8ue170006IcNS_11char_traitsIcEENS_9allocatorIcEEEEDaRKNS_12basic_stringIT_T0_T1_EESC_, symObjAddr: 0x123B8, symBinAddr: 0x100015570, symSize: 0x5C }
  - { offsetInCU: 0x2CD36, offset: 0x2CD36, size: 0x8, addend: 0x0, symName: __ZNSt3__1ssB8ue170006IcNS_11char_traitsIcEEEEDaNS_17basic_string_viewIT_T0_EES7_, symObjAddr: 0x12448, symBinAddr: 0x100015600, symSize: 0x7C }
  - { offsetInCU: 0x2CD86, offset: 0x2CD86, size: 0x8, addend: 0x0, symName: __ZNSt3__112__to_addressB8ue170006IKcEEPT_S3_, symObjAddr: 0x12718, symBinAddr: 0x1000158D0, symSize: 0x14 }
  - { offsetInCU: 0x2CDED, offset: 0x2CDED, size: 0x8, addend: 0x0, symName: __ZNSt3__19iter_swapB8ue170006IPNS_12basic_stringIcNS_11char_traitsIcEENS_9allocatorIcEEEES7_EEvT_T0_, symObjAddr: 0x12828, symBinAddr: 0x1000159E0, symSize: 0x2C }
  - { offsetInCU: 0x2CE35, offset: 0x2CE35, size: 0x8, addend: 0x0, symName: __ZNSt3__17__sort4B8ue170006INS_17_ClassicAlgPolicyERNS_6__lessIvvEEPNS_12basic_stringIcNS_11char_traitsIcEENS_9allocatorIcEEEEEEvT1_SC_SC_SC_T0_, symObjAddr: 0x12854, symBinAddr: 0x100015A0C, symSize: 0xB8 }
  - { offsetInCU: 0x2CEB0, offset: 0x2CEB0, size: 0x8, addend: 0x0, symName: __ZNSt3__17__sort5B8ue170006INS_17_ClassicAlgPolicyERNS_6__lessIvvEEPNS_12basic_stringIcNS_11char_traitsIcEENS_9allocatorIcEEEEEEvT1_SC_SC_SC_SC_T0_, symObjAddr: 0x1290C, symBinAddr: 0x100015AC4, symSize: 0xE8 }
  - { offsetInCU: 0x2CF5E, offset: 0x2CF5E, size: 0x8, addend: 0x0, symName: __ZNSt3__123__debug_randomize_rangeB8ue170006INS_17_ClassicAlgPolicyEPNS_12basic_stringIcNS_11char_traitsIcEENS_9allocatorIcEEEES8_EEvT0_T1_, symObjAddr: 0x12A38, symBinAddr: 0x100015BF0, symSize: 0x14 }
  - { offsetInCU: 0x2CFAF, offset: 0x2CFAF, size: 0x8, addend: 0x0, symName: __ZNSt3__119__partial_sort_implB8ue170006INS_17_ClassicAlgPolicyERNS_6__lessIvvEEPNS_12basic_stringIcNS_11char_traitsIcEENS_9allocatorIcEEEESB_EET1_SC_SC_T2_OT0_, symObjAddr: 0x12A4C, symBinAddr: 0x100015C04, symSize: 0x110 }
  - { offsetInCU: 0x2D045, offset: 0x2D045, size: 0x8, addend: 0x0, symName: __ZNSt3__111__make_heapB8ue170006INS_17_ClassicAlgPolicyERNS_6__lessIvvEEPNS_12basic_stringIcNS_11char_traitsIcEENS_9allocatorIcEEEEEEvT1_SC_OT0_, symObjAddr: 0x12B5C, symBinAddr: 0x100015D14, symSize: 0xC0 }
  - { offsetInCU: 0x2D0E7, offset: 0x2D0E7, size: 0x8, addend: 0x0, symName: __ZNSt3__111__sort_heapB8ue170006INS_17_ClassicAlgPolicyERNS_6__lessIvvEEPNS_12basic_stringIcNS_11char_traitsIcEENS_9allocatorIcEEEEEEvT1_SC_OT0_, symObjAddr: 0x12E70, symBinAddr: 0x100016028, symSize: 0xA8 }
  - { offsetInCU: 0x2D189, offset: 0x2D189, size: 0x8, addend: 0x0, symName: __ZNSt3__110__pop_heapB8ue170006INS_17_ClassicAlgPolicyENS_6__lessIvvEEPNS_12basic_stringIcNS_11char_traitsIcEENS_9allocatorIcEEEEEEvT1_SB_RT0_NS_15iterator_traitsISB_E15difference_typeE, symObjAddr: 0x12F18, symBinAddr: 0x1000160D0, symSize: 0x138 }
  - { offsetInCU: 0x2D231, offset: 0x2D231, size: 0x8, addend: 0x0, symName: __ZNSt3__19__sift_upB8ue170006INS_17_ClassicAlgPolicyERNS_6__lessIvvEEPNS_12basic_stringIcNS_11char_traitsIcEENS_9allocatorIcEEEEEEvT1_SC_OT0_NS_15iterator_traitsISC_E15difference_typeE, symObjAddr: 0x13158, symBinAddr: 0x100016310, symSize: 0x164 }
  - { offsetInCU: 0x2D2D1, offset: 0x2D2D1, size: 0x8, addend: 0x0, symName: __ZNSt3__122__populate_left_bitsetB8ue170006IRNS_6__lessIvvEEPNS_12basic_stringIcNS_11char_traitsIcEENS_9allocatorIcEEEES9_EEvT0_T_RT1_Ry, symObjAddr: 0x132BC, symBinAddr: 0x100016474, symSize: 0xA8 }
  - { offsetInCU: 0x2D38C, offset: 0x2D38C, size: 0x8, addend: 0x0, symName: __ZNSt3__123__populate_right_bitsetB8ue170006IRNS_6__lessIvvEEPNS_12basic_stringIcNS_11char_traitsIcEENS_9allocatorIcEEEES9_EEvT0_T_RT1_Ry, symObjAddr: 0x13364, symBinAddr: 0x10001651C, symSize: 0xA0 }
  - { offsetInCU: 0x2D447, offset: 0x2D447, size: 0x8, addend: 0x0, symName: __ZNSt3__117__swap_bitmap_posB8ue170006INS_17_ClassicAlgPolicyEPNS_12basic_stringIcNS_11char_traitsIcEENS_9allocatorIcEEEEEEvT0_S9_RySA_, symObjAddr: 0x13404, symBinAddr: 0x1000165BC, symSize: 0x104 }
  - { offsetInCU: 0x2D4E8, offset: 0x2D4E8, size: 0x8, addend: 0x0, symName: __ZNSt3__133__bitset_partition_partial_blocksB8ue170006INS_17_ClassicAlgPolicyERNS_6__lessIvvEEPNS_12basic_stringIcNS_11char_traitsIcEENS_9allocatorIcEEEESA_EEvRT1_SD_T0_RT2_RySH_, symObjAddr: 0x13508, symBinAddr: 0x1000166C0, symSize: 0x2F0 }
  - { offsetInCU: 0x2D669, offset: 0x2D669, size: 0x8, addend: 0x0, symName: __ZNSt3__19make_pairB8ue170006IRPNS_12basic_stringIcNS_11char_traitsIcEENS_9allocatorIcEEEERbEENS_4pairINS_18__unwrap_ref_decayIT_E4typeENSB_IT0_E4typeEEEOSC_OSF_, symObjAddr: 0x139E0, symBinAddr: 0x100016B98, symSize: 0x38 }
  - { offsetInCU: 0x2D7DF, offset: 0x2D7DF, size: 0x8, addend: 0x0, symName: __ZNSt3__112__to_addressB8ue170006INS_11__wrap_iterIPNS_12basic_stringIcNS_11char_traitsIcEENS_9allocatorIcEEEEEEvEEu7__decayIDTclsr19__to_address_helperIT_EE6__callclsr3stdE7declvalIRKSA_EEEEESC_, symObjAddr: 0x13AE8, symBinAddr: 0x100016CA0, symSize: 0x24 }
  - { offsetInCU: 0x2D87D, offset: 0x2D87D, size: 0x8, addend: 0x0, symName: __ZNSt3__112__to_addressB8ue170006INS_6vectorIiNS_9allocatorIiEEEEEEPT_S6_, symObjAddr: 0x13DC4, symBinAddr: 0x100016F7C, symSize: 0x14 }
  - { offsetInCU: 0x2D8D8, offset: 0x2D8D8, size: 0x8, addend: 0x0, symName: __ZNSt3__112construct_atB8ue170006INS_6vectorIiNS_9allocatorIiEEEEJRKS4_EPS4_EEPT_S9_DpOT0_, symObjAddr: 0x13E50, symBinAddr: 0x100017008, symSize: 0x3C }
  - { offsetInCU: 0x2D94A, offset: 0x2D94A, size: 0x8, addend: 0x0, symName: __ZNSt3__119__allocate_at_leastB8ue170006INS_9allocatorINS_6vectorIiNS1_IiEEEEEEEENS_19__allocation_resultINS_16allocator_traitsIT_E7pointerEEERS8_m, symObjAddr: 0x14400, symBinAddr: 0x1000175B8, symSize: 0x40 }
  - { offsetInCU: 0x2D98D, offset: 0x2D98D, size: 0x8, addend: 0x0, symName: __ZNSt3__142__uninitialized_allocator_move_if_noexceptB8ue170006INS_9allocatorINS_6vectorIiNS1_IiEEEEEENS_16reverse_iteratorIPS4_EES8_S8_EET2_RT_T0_T1_S9_, symObjAddr: 0x1468C, symBinAddr: 0x100017844, symSize: 0x12C }
  - { offsetInCU: 0x2DA2E, offset: 0x2DA2E, size: 0x8, addend: 0x0, symName: __ZNSt3__14swapB8ue170006IPNS_6vectorIiNS_9allocatorIiEEEEEENS_9enable_ifIXaasr21is_move_constructibleIT_EE5valuesr18is_move_assignableIS7_EE5valueEvE4typeERS7_SA_, symObjAddr: 0x14804, symBinAddr: 0x1000179BC, symSize: 0x3C }
  - { offsetInCU: 0x2DA7E, offset: 0x2DA7E, size: 0x8, addend: 0x0, symName: __ZNSt3__122__make_exception_guardB8ue170006INS_29_AllocatorDestroyRangeReverseINS_9allocatorINS_6vectorIiNS2_IiEEEEEENS_16reverse_iteratorIPS5_EEEEEENS_28__exception_guard_exceptionsIT_EESC_, symObjAddr: 0x14950, symBinAddr: 0x100017B08, symSize: 0x4C }
  - { offsetInCU: 0x2DAB4, offset: 0x2DAB4, size: 0x8, addend: 0x0, symName: __ZNSt3__1neB8ue170006IPNS_6vectorIiNS_9allocatorIiEEEES5_EEbRKNS_16reverse_iteratorIT_EERKNS6_IT0_EE, symObjAddr: 0x149E0, symBinAddr: 0x100017B98, symSize: 0x48 }
  - { offsetInCU: 0x2DB00, offset: 0x2DB00, size: 0x8, addend: 0x0, symName: __ZNSt3__112__to_addressB8ue170006INS_16reverse_iteratorIPNS_6vectorIiNS_9allocatorIiEEEEEEvEEu7__decayIDTclsr19__to_address_helperIT_EE6__callclsr3stdE7declvalIRKS8_EEEEESA_, symObjAddr: 0x14A58, symBinAddr: 0x100017C10, symSize: 0x24 }
  - { offsetInCU: 0x2DB36, offset: 0x2DB36, size: 0x8, addend: 0x0, symName: __ZNSt3__112construct_atB8ue170006INS_6vectorIiNS_9allocatorIiEEEEJS4_EPS4_EEPT_S7_DpOT0_, symObjAddr: 0x14BA8, symBinAddr: 0x100017D60, symSize: 0x3C }
  - { offsetInCU: 0x2DBD1, offset: 0x2DBD1, size: 0x8, addend: 0x0, symName: __ZNSt3__14prevB8ue170006IPNS_6vectorIiNS_9allocatorIiEEEEEENS_9enable_ifIXsr29__has_input_iterator_categoryIT_EE5valueES7_E4typeES7_NS_15iterator_traitsIS7_E15difference_typeE, symObjAddr: 0x14DD8, symBinAddr: 0x100017F90, symSize: 0x3C }
  - { offsetInCU: 0x2DC15, offset: 0x2DC15, size: 0x8, addend: 0x0, symName: __ZNSt3__19__advanceB8ue170006IPNS_6vectorIiNS_9allocatorIiEEEEEEvRT_NS_15iterator_traitsIS6_E15difference_typeENS_26random_access_iterator_tagE, symObjAddr: 0x14E4C, symBinAddr: 0x100018004, symSize: 0x30 }
  - { offsetInCU: 0x2DC5F, offset: 0x2DC5F, size: 0x8, addend: 0x0, symName: __ZNSt3__119__allocator_destroyB8ue170006INS_9allocatorINS_6vectorIiNS1_IiEEEEEENS_16reverse_iteratorINS6_IPS4_EEEES9_EEvRT_T0_T1_, symObjAddr: 0x14F80, symBinAddr: 0x100018138, symSize: 0x70 }
  - { offsetInCU: 0x2DCC4, offset: 0x2DCC4, size: 0x8, addend: 0x0, symName: __ZNSt3__1neB8ue170006INS_16reverse_iteratorIPNS_6vectorIiNS_9allocatorIiEEEEEES7_EEbRKNS1_IT_EERKNS1_IT0_EE, symObjAddr: 0x1502C, symBinAddr: 0x1000181E4, symSize: 0x60 }
  - { offsetInCU: 0x2DD10, offset: 0x2DD10, size: 0x8, addend: 0x0, symName: __ZNSt3__112__to_addressB8ue170006INS_16reverse_iteratorINS1_IPNS_6vectorIiNS_9allocatorIiEEEEEEEEvEEu7__decayIDTclsr19__to_address_helperIT_EE6__callclsr3stdE7declvalIRKS9_EEEEESB_, symObjAddr: 0x150B4, symBinAddr: 0x10001826C, symSize: 0x24 }
  - { offsetInCU: 0x2DD46, offset: 0x2DD46, size: 0x8, addend: 0x0, symName: __ZNSt3__110destroy_atB8ue170006INS_6vectorIiNS_9allocatorIiEEEELi0EEEvPT_, symObjAddr: 0x1512C, symBinAddr: 0x1000182E4, symSize: 0x24 }
  - { offsetInCU: 0x2DD7D, offset: 0x2DD7D, size: 0x8, addend: 0x0, symName: __ZNSt3__112__destroy_atB8ue170006INS_6vectorIiNS_9allocatorIiEEEELi0EEEvPT_, symObjAddr: 0x15150, symBinAddr: 0x100018308, symSize: 0x24 }
  - { offsetInCU: 0x2DDDD, offset: 0x2DDDD, size: 0x8, addend: 0x0, symName: __ZNSt3__14prevB8ue170006INS_16reverse_iteratorIPNS_6vectorIiNS_9allocatorIiEEEEEEEENS_9enable_ifIXsr29__has_input_iterator_categoryIT_EE5valueES9_E4typeES9_NS_15iterator_traitsIS9_E15difference_typeE, symObjAddr: 0x151F8, symBinAddr: 0x1000183B0, symSize: 0x4C }
  - { offsetInCU: 0x2DE20, offset: 0x2DE20, size: 0x8, addend: 0x0, symName: __ZNSt3__19__advanceB8ue170006INS_16reverse_iteratorIPNS_6vectorIiNS_9allocatorIiEEEEEEEEvRT_NS_15iterator_traitsIS8_E15difference_typeENS_26random_access_iterator_tagE, symObjAddr: 0x1527C, symBinAddr: 0x100018434, symSize: 0x2C }
  - { offsetInCU: 0x2DE6A, offset: 0x2DE6A, size: 0x8, addend: 0x0, symName: __ZNSt3__1eqB8ue170006IPNS_6vectorIiNS_9allocatorIiEEEEEEbRKNS_11__wrap_iterIT_EESA_, symObjAddr: 0x15634, symBinAddr: 0x1000187EC, symSize: 0x48 }
  - { offsetInCU: 0x2DEAD, offset: 0x2DEAD, size: 0x8, addend: 0x0, symName: __ZNSt3__1eqB8ue170006IPiEEbRKNS_11__wrap_iterIT_EES6_, symObjAddr: 0x15718, symBinAddr: 0x1000188D0, symSize: 0x48 }
  - { offsetInCU: 0x2DEF0, offset: 0x2DEF0, size: 0x8, addend: 0x0, symName: __ZNSt3__122__make_exception_guardB8ue170006INS_6vectorIiNS_9allocatorIiEEE16__destroy_vectorEEENS_28__exception_guard_exceptionsIT_EES7_, symObjAddr: 0x15D7C, symBinAddr: 0x100018F34, symSize: 0x40 }
  - { offsetInCU: 0x2DF26, offset: 0x2DF26, size: 0x8, addend: 0x0, symName: __ZNSt3__112__to_addressB8ue170006IcEEPT_S2_, symObjAddr: 0x16450, symBinAddr: 0x100019608, symSize: 0x14 }
  - { offsetInCU: 0x2DF5A, offset: 0x2DF5A, size: 0x8, addend: 0x0, symName: __ZNSt3__118__constexpr_strlenB8ue170006EPKc, symObjAddr: 0x1653C, symBinAddr: 0x1000196F4, symSize: 0x24 }
  - { offsetInCU: 0x2DF86, offset: 0x2DF86, size: 0x8, addend: 0x0, symName: __ZNSt3__14copyB8ue170006IPKcPcEET0_T_S5_S4_, symObjAddr: 0x16ACC, symBinAddr: 0x100019C84, symSize: 0x40 }
  - { offsetInCU: 0x2DFE0, offset: 0x2DFE0, size: 0x8, addend: 0x0, symName: __ZNSt3__16__copyB8ue170006INS_17_ClassicAlgPolicyEPKcS3_PcEENS_4pairIT0_T2_EES6_T1_S7_, symObjAddr: 0x16B0C, symBinAddr: 0x100019CC4, symSize: 0x44 }
  - { offsetInCU: 0x2E04C, offset: 0x2E04C, size: 0x8, addend: 0x0, symName: __ZNSt3__123__dispatch_copy_or_moveB8ue170006INS_17_ClassicAlgPolicyENS_11__copy_loopIS1_EENS_14__copy_trivialEPKcS6_PcEENS_4pairIT2_T4_EES9_T3_SA_, symObjAddr: 0x16B50, symBinAddr: 0x100019D08, symSize: 0x44 }
  - { offsetInCU: 0x2E0CA, offset: 0x2E0CA, size: 0x8, addend: 0x0, symName: __ZNSt3__121__unwrap_and_dispatchB8ue170006INS_10__overloadINS_11__copy_loopINS_17_ClassicAlgPolicyEEENS_14__copy_trivialEEEPKcS8_PcLi0EEENS_4pairIT0_T2_EESB_T1_SC_, symObjAddr: 0x16B94, symBinAddr: 0x100019D4C, symSize: 0xB4 }
  - { offsetInCU: 0x2E158, offset: 0x2E158, size: 0x8, addend: 0x0, symName: __ZNSt3__114__unwrap_rangeB8ue170006IPKcS2_EEDaT_T0_, symObjAddr: 0x16C48, symBinAddr: 0x100019E00, symSize: 0x3C }
  - { offsetInCU: 0x2E2A7, offset: 0x2E2A7, size: 0x8, addend: 0x0, symName: __ZNSt3__113__unwrap_iterB8ue170006IPcNS_18__unwrap_iter_implIS1_Lb1EEELi0EEEDTclsrT0_8__unwrapclsr3stdE7declvalIT_EEEES5_, symObjAddr: 0x16CCC, symBinAddr: 0x100019E84, symSize: 0x24 }
  - { offsetInCU: 0x2E2EB, offset: 0x2E2EB, size: 0x8, addend: 0x0, symName: __ZNSt3__19make_pairB8ue170006IPKcPcEENS_4pairINS_18__unwrap_ref_decayIT_E4typeENS5_IT0_E4typeEEEOS6_OS9_, symObjAddr: 0x16CF0, symBinAddr: 0x100019EA8, symSize: 0x38 }
  - { offsetInCU: 0x2E33A, offset: 0x2E33A, size: 0x8, addend: 0x0, symName: __ZNSt3__114__rewrap_rangeB8ue170006IPKcS2_S2_EET0_S3_T1_, symObjAddr: 0x16D28, symBinAddr: 0x100019EE0, symSize: 0x2C }
  - { offsetInCU: 0x2E38F, offset: 0x2E38F, size: 0x8, addend: 0x0, symName: __ZNSt3__113__rewrap_iterB8ue170006IPcS1_NS_18__unwrap_iter_implIS1_Lb1EEEEET_S4_T0_, symObjAddr: 0x16D54, symBinAddr: 0x100019F0C, symSize: 0x3C }
  - { offsetInCU: 0x2E500, offset: 0x2E500, size: 0x8, addend: 0x0, symName: __ZNSt3__113__unwrap_iterB8ue170006IPKcNS_18__unwrap_iter_implIS2_Lb1EEELi0EEEDTclsrT0_8__unwrapclsr3stdE7declvalIT_EEEES6_, symObjAddr: 0x16DE8, symBinAddr: 0x100019FA0, symSize: 0x24 }
  - { offsetInCU: 0x2E597, offset: 0x2E597, size: 0x8, addend: 0x0, symName: __ZNSt3__119__copy_trivial_implB8ue170006IKccEENS_4pairIPT_PT0_EES4_S4_S6_, symObjAddr: 0x16EA0, symBinAddr: 0x10001A058, symSize: 0x78 }
  - { offsetInCU: 0x2E5FF, offset: 0x2E5FF, size: 0x8, addend: 0x0, symName: __ZNSt3__119__constexpr_memmoveB8ue170006IcKcLi0EEEPT_S3_PT0_NS_15__element_countE, symObjAddr: 0x16F18, symBinAddr: 0x10001A0D0, symSize: 0x64 }
  - { offsetInCU: 0x2E66D, offset: 0x2E66D, size: 0x8, addend: 0x0, symName: __ZNSt3__19make_pairB8ue170006IRPKcPcEENS_4pairINS_18__unwrap_ref_decayIT_E4typeENS6_IT0_E4typeEEEOS7_OSA_, symObjAddr: 0x16F7C, symBinAddr: 0x10001A134, symSize: 0x38 }
  - { offsetInCU: 0x2E70F, offset: 0x2E70F, size: 0x8, addend: 0x0, symName: __ZNSt3__113__rewrap_iterB8ue170006IPKcS2_NS_18__unwrap_iter_implIS2_Lb1EEEEET_S5_T0_, symObjAddr: 0x170E4, symBinAddr: 0x10001A29C, symSize: 0x3C }
  - { offsetInCU: 0x2E764, offset: 0x2E764, size: 0x8, addend: 0x0, symName: __ZNSt3__16fill_nB8ue170006IPcmcEET_S2_T0_RKT1_, symObjAddr: 0x171B0, symBinAddr: 0x10001A368, symSize: 0x44 }
  - { offsetInCU: 0x2E7C8, offset: 0x2E7C8, size: 0x8, addend: 0x0, symName: __ZNSt3__18__fill_nB8ue170006IPcmcEET_S2_T0_RKT1_, symObjAddr: 0x171F4, symBinAddr: 0x10001A3AC, symSize: 0x64 }
  - { offsetInCU: 0x2E82B, offset: 0x2E82B, size: 0x8, addend: 0x0, symName: __ZNSt3__121__convert_to_integralB8ue170006Em, symObjAddr: 0x17258, symBinAddr: 0x10001A410, symSize: 0x14 }
  - { offsetInCU: 0x2E856, offset: 0x2E856, size: 0x8, addend: 0x0, symName: __ZNSt3__116__pad_and_outputB8ue170006IcNS_11char_traitsIcEEEENS_19ostreambuf_iteratorIT_T0_EES6_PKS4_S8_S8_RNS_8ios_baseES4_, symObjAddr: 0x17684, symBinAddr: 0x10001A83C, symSize: 0x240 }
  - { offsetInCU: 0x2E958, offset: 0x2E958, size: 0x8, addend: 0x0, symName: __ZNSt3__110destroy_atB8ue170006INS_4pairIKiNS_6vectorINS_12basic_stringIcNS_11char_traitsIcEENS_9allocatorIcEEEENS7_IS9_EEEEEELi0EEEvPT_, symObjAddr: 0x18240, symBinAddr: 0x10001B3F8, symSize: 0x24 }
  - { offsetInCU: 0x2E98F, offset: 0x2E98F, size: 0x8, addend: 0x0, symName: __ZNSt3__112__destroy_atB8ue170006INS_4pairIKiNS_6vectorINS_12basic_stringIcNS_11char_traitsIcEENS_9allocatorIcEEEENS7_IS9_EEEEEELi0EEEvPT_, symObjAddr: 0x18264, symBinAddr: 0x10001B41C, symSize: 0x24 }
  - { offsetInCU: 0x2E9C6, offset: 0x2E9C6, size: 0x8, addend: 0x0, symName: __ZNSt3__17launderB8ue170006INS_4pairIKiNS_6vectorINS_12basic_stringIcNS_11char_traitsIcEENS_9allocatorIcEEEENS7_IS9_EEEEEEEEPT_SE_, symObjAddr: 0x18308, symBinAddr: 0x10001B4C0, symSize: 0x24 }
  - { offsetInCU: 0x2E9FE, offset: 0x2E9FE, size: 0x8, addend: 0x0, symName: __ZNSt3__19__launderB8ue170006INS_4pairIKiNS_6vectorINS_12basic_stringIcNS_11char_traitsIcEENS_9allocatorIcEEEENS7_IS9_EEEEEEEEPT_SE_, symObjAddr: 0x1832C, symBinAddr: 0x10001B4E4, symSize: 0x14 }
  - { offsetInCU: 0x2EA6B, offset: 0x2EA6B, size: 0x8, addend: 0x0, symName: __ZNSt3__116forward_as_tupleB8ue170006IJRKiEEENS_5tupleIJDpOT_EEES6_, symObjAddr: 0x18930, symBinAddr: 0x10001BAE8, symSize: 0x2C }
  - { offsetInCU: 0x2EAA5, offset: 0x2EAA5, size: 0x8, addend: 0x0, symName: __ZNSt3__116forward_as_tupleB8ue170006IJEEENS_5tupleIJDpOT_EEES4_, symObjAddr: 0x1895C, symBinAddr: 0x10001BB14, symSize: 0x4 }
  - { offsetInCU: 0x2EAC8, offset: 0x2EAC8, size: 0x8, addend: 0x0, symName: __ZNSt3__17launderB8ue170006IKNS_4pairIKiNS_6vectorINS_12basic_stringIcNS_11char_traitsIcEENS_9allocatorIcEEEENS7_IS9_EEEEEEEEPT_SF_, symObjAddr: 0x18F78, symBinAddr: 0x10001C130, symSize: 0x24 }
  - { offsetInCU: 0x2EB00, offset: 0x2EB00, size: 0x8, addend: 0x0, symName: __ZNSt3__19__launderB8ue170006IKNS_4pairIKiNS_6vectorINS_12basic_stringIcNS_11char_traitsIcEENS_9allocatorIcEEEENS7_IS9_EEEEEEEEPT_SF_, symObjAddr: 0x18F9C, symBinAddr: 0x10001C154, symSize: 0x14 }
  - { offsetInCU: 0x2EB7B, offset: 0x2EB7B, size: 0x8, addend: 0x0, symName: __ZNSt3__112construct_atB8ue170006INS_4pairIKiNS_6vectorINS_12basic_stringIcNS_11char_traitsIcEENS_9allocatorIcEEEENS7_IS9_EEEEEEJRKNS_21piecewise_construct_tENS_5tupleIJRS2_EEENSG_IJEEEEPSC_EEPT_SM_DpOT0_, symObjAddr: 0x192B8, symBinAddr: 0x10001C470, symSize: 0x50 }
  - { offsetInCU: 0x2EC1F, offset: 0x2EC1F, size: 0x8, addend: 0x0, symName: __ZNSt3__13getB8ue170006ILm0EJRKiEEERNS_13tuple_elementIXT_ENS_5tupleIJDpT0_EEEE4typeERS7_, symObjAddr: 0x193D4, symBinAddr: 0x10001C58C, symSize: 0x24 }
  - { offsetInCU: 0x2EC62, offset: 0x2EC62, size: 0x8, addend: 0x0, symName: __ZNSt3__127__tree_balance_after_insertB8ue170006IPNS_16__tree_node_baseIPvEEEEvT_S5_, symObjAddr: 0x19484, symBinAddr: 0x10001C63C, symSize: 0x27C }
  - { offsetInCU: 0x2ECDE, offset: 0x2ECDE, size: 0x8, addend: 0x0, symName: __ZNSt3__118__tree_left_rotateB8ue170006IPNS_16__tree_node_baseIPvEEEEvT_, symObjAddr: 0x19728, symBinAddr: 0x10001C8E0, symSize: 0xD8 }
  - { offsetInCU: 0x2ED20, offset: 0x2ED20, size: 0x8, addend: 0x0, symName: __ZNSt3__119__tree_right_rotateB8ue170006IPNS_16__tree_node_baseIPvEEEEvT_, symObjAddr: 0x19800, symBinAddr: 0x10001C9B8, symSize: 0xCC }
  - { offsetInCU: 0x2EDB9, offset: 0x2EDB9, size: 0x8, addend: 0x0, symName: __ZNSt3__110destroy_atB8ue170006INS_4pairIKiNS_6vectorIiNS_9allocatorIiEEEEEELi0EEEvPT_, symObjAddr: 0x1A14C, symBinAddr: 0x10001D304, symSize: 0x24 }
  - { offsetInCU: 0x2EDF0, offset: 0x2EDF0, size: 0x8, addend: 0x0, symName: __ZNSt3__112__destroy_atB8ue170006INS_4pairIKiNS_6vectorIiNS_9allocatorIiEEEEEELi0EEEvPT_, symObjAddr: 0x1A170, symBinAddr: 0x10001D328, symSize: 0x24 }
  - { offsetInCU: 0x2EE27, offset: 0x2EE27, size: 0x8, addend: 0x0, symName: __ZNSt3__17launderB8ue170006INS_4pairIKiNS_6vectorIiNS_9allocatorIiEEEEEEEEPT_S9_, symObjAddr: 0x1A214, symBinAddr: 0x10001D3CC, symSize: 0x24 }
  - { offsetInCU: 0x2EE5F, offset: 0x2EE5F, size: 0x8, addend: 0x0, symName: __ZNSt3__19__launderB8ue170006INS_4pairIKiNS_6vectorIiNS_9allocatorIiEEEEEEEEPT_S9_, symObjAddr: 0x1A238, symBinAddr: 0x10001D3F0, symSize: 0x14 }
  - { offsetInCU: 0x2EE95, offset: 0x2EE95, size: 0x8, addend: 0x0, symName: __ZNSt3__1neB8ue170006ERKNS_15__tree_iteratorINS_12__value_typeIiNS_6vectorIiNS_9allocatorIiEEEEEEPNS_11__tree_nodeIS6_PvEElEESD_, symObjAddr: 0x1A4AC, symBinAddr: 0x10001D664, symSize: 0x34 }
  - { offsetInCU: 0x2EED2, offset: 0x2EED2, size: 0x8, addend: 0x0, symName: __ZNSt3__17launderB8ue170006IKNS_4pairIKiNS_6vectorIiNS_9allocatorIiEEEEEEEEPT_SA_, symObjAddr: 0x1A654, symBinAddr: 0x10001D80C, symSize: 0x24 }
  - { offsetInCU: 0x2EF0A, offset: 0x2EF0A, size: 0x8, addend: 0x0, symName: __ZNSt3__19__launderB8ue170006IKNS_4pairIKiNS_6vectorIiNS_9allocatorIiEEEEEEEEPT_SA_, symObjAddr: 0x1A678, symBinAddr: 0x10001D830, symSize: 0x14 }
  - { offsetInCU: 0x2EF41, offset: 0x2EF41, size: 0x8, addend: 0x0, symName: __ZNSt3__1eqB8ue170006ERKNS_15__tree_iteratorINS_12__value_typeIiNS_6vectorIiNS_9allocatorIiEEEEEEPNS_11__tree_nodeIS6_PvEElEESD_, symObjAddr: 0x1A6AC, symBinAddr: 0x10001D864, symSize: 0x30 }
  - { offsetInCU: 0x2EFC2, offset: 0x2EFC2, size: 0x8, addend: 0x0, symName: __ZNSt3__112construct_atB8ue170006INS_4pairIKiNS_6vectorIiNS_9allocatorIiEEEEEEJRKNS_21piecewise_construct_tENS_5tupleIJRS2_EEENSB_IJEEEEPS7_EEPT_SH_DpOT0_, symObjAddr: 0x1B01C, symBinAddr: 0x10001E1D4, symSize: 0x50 }
  - { offsetInCU: 0x2F08D, offset: 0x2F08D, size: 0x8, addend: 0x0, symName: __ZNSt3__110destroy_atB8ue170006INS_4pairIKiNS_3mapINS_12basic_stringIcNS_11char_traitsIcEENS_9allocatorIcEEEEiNS_4lessIS9_EENS7_INS1_IKS9_iEEEEEEEELi0EEEvPT_, symObjAddr: 0x1B918, symBinAddr: 0x10001EAD0, symSize: 0x24 }
  - { offsetInCU: 0x2F0C4, offset: 0x2F0C4, size: 0x8, addend: 0x0, symName: __ZNSt3__112__destroy_atB8ue170006INS_4pairIKiNS_3mapINS_12basic_stringIcNS_11char_traitsIcEENS_9allocatorIcEEEEiNS_4lessIS9_EENS7_INS1_IKS9_iEEEEEEEELi0EEEvPT_, symObjAddr: 0x1B93C, symBinAddr: 0x10001EAF4, symSize: 0x24 }
  - { offsetInCU: 0x2F0FB, offset: 0x2F0FB, size: 0x8, addend: 0x0, symName: __ZNSt3__110destroy_atB8ue170006INS_4pairIKNS_12basic_stringIcNS_11char_traitsIcEENS_9allocatorIcEEEEiEELi0EEEvPT_, symObjAddr: 0x1BC2C, symBinAddr: 0x10001EDE4, symSize: 0x24 }
  - { offsetInCU: 0x2F132, offset: 0x2F132, size: 0x8, addend: 0x0, symName: __ZNSt3__112__destroy_atB8ue170006INS_4pairIKNS_12basic_stringIcNS_11char_traitsIcEENS_9allocatorIcEEEEiEELi0EEEvPT_, symObjAddr: 0x1BC50, symBinAddr: 0x10001EE08, symSize: 0x24 }
  - { offsetInCU: 0x2F169, offset: 0x2F169, size: 0x8, addend: 0x0, symName: __ZNSt3__17launderB8ue170006INS_4pairIKNS_12basic_stringIcNS_11char_traitsIcEENS_9allocatorIcEEEEiEEEEPT_SB_, symObjAddr: 0x1BCF0, symBinAddr: 0x10001EEA8, symSize: 0x24 }
  - { offsetInCU: 0x2F1A1, offset: 0x2F1A1, size: 0x8, addend: 0x0, symName: __ZNSt3__19__launderB8ue170006INS_4pairIKNS_12basic_stringIcNS_11char_traitsIcEENS_9allocatorIcEEEEiEEEEPT_SB_, symObjAddr: 0x1BD14, symBinAddr: 0x10001EECC, symSize: 0x14 }
  - { offsetInCU: 0x2F1D7, offset: 0x2F1D7, size: 0x8, addend: 0x0, symName: __ZNSt3__17launderB8ue170006INS_4pairIKiNS_3mapINS_12basic_stringIcNS_11char_traitsIcEENS_9allocatorIcEEEEiNS_4lessIS9_EENS7_INS1_IKS9_iEEEEEEEEEEPT_SI_, symObjAddr: 0x1BDDC, symBinAddr: 0x10001EF94, symSize: 0x24 }
  - { offsetInCU: 0x2F20F, offset: 0x2F20F, size: 0x8, addend: 0x0, symName: __ZNSt3__19__launderB8ue170006INS_4pairIKiNS_3mapINS_12basic_stringIcNS_11char_traitsIcEENS_9allocatorIcEEEEiNS_4lessIS9_EENS7_INS1_IKS9_iEEEEEEEEEEPT_SI_, symObjAddr: 0x1BE00, symBinAddr: 0x10001EFB8, symSize: 0x14 }
  - { offsetInCU: 0x2F245, offset: 0x2F245, size: 0x8, addend: 0x0, symName: __ZNSt3__1neB8ue170006ERKNS_21__tree_const_iteratorINS_12__value_typeIiNS_6vectorINS_12basic_stringIcNS_11char_traitsIcEENS_9allocatorIcEEEENS6_IS8_EEEEEEPNS_11__tree_nodeISB_PvEElEESI_, symObjAddr: 0x1C074, symBinAddr: 0x10001F22C, symSize: 0x34 }
  - { offsetInCU: 0x2F283, offset: 0x2F283, size: 0x8, addend: 0x0, symName: __ZNSt3__1eqB8ue170006ERKNS_21__tree_const_iteratorINS_12__value_typeIiNS_6vectorINS_12basic_stringIcNS_11char_traitsIcEENS_9allocatorIcEEEENS6_IS8_EEEEEEPNS_11__tree_nodeISB_PvEElEESI_, symObjAddr: 0x1C180, symBinAddr: 0x10001F338, symSize: 0x30 }
  - { offsetInCU: 0x2F2C0, offset: 0x2F2C0, size: 0x8, addend: 0x0, symName: __ZNSt3__120__throw_out_of_rangeB8ue170006EPKc, symObjAddr: 0x1C254, symBinAddr: 0x10001F40C, symSize: 0x64 }
  - { offsetInCU: 0x2F2EA, offset: 0x2F2EA, size: 0x8, addend: 0x0, symName: __ZNSt3__17launderB8ue170006IKNS_4pairIKiNS_3mapINS_12basic_stringIcNS_11char_traitsIcEENS_9allocatorIcEEEEiNS_4lessIS9_EENS7_INS1_IKS9_iEEEEEEEEEEPT_SJ_, symObjAddr: 0x1CA1C, symBinAddr: 0x10001FBD4, symSize: 0x24 }
  - { offsetInCU: 0x2F322, offset: 0x2F322, size: 0x8, addend: 0x0, symName: __ZNSt3__19__launderB8ue170006IKNS_4pairIKiNS_3mapINS_12basic_stringIcNS_11char_traitsIcEENS_9allocatorIcEEEEiNS_4lessIS9_EENS7_INS1_IKS9_iEEEEEEEEEEPT_SJ_, symObjAddr: 0x1CA40, symBinAddr: 0x10001FBF8, symSize: 0x14 }
  - { offsetInCU: 0x2F39D, offset: 0x2F39D, size: 0x8, addend: 0x0, symName: __ZNSt3__112construct_atB8ue170006INS_4pairIKiNS_3mapINS_12basic_stringIcNS_11char_traitsIcEENS_9allocatorIcEEEEiNS_4lessIS9_EENS7_INS1_IKS9_iEEEEEEEEJRKNS_21piecewise_construct_tENS_5tupleIJRS2_EEENSK_IJEEEEPSG_EEPT_SQ_DpOT0_, symObjAddr: 0x1CD5C, symBinAddr: 0x10001FF14, symSize: 0x50 }
  - { offsetInCU: 0x2F468, offset: 0x2F468, size: 0x8, addend: 0x0, symName: __ZNSt3__116forward_as_tupleB8ue170006IJRKNS_12basic_stringIcNS_11char_traitsIcEENS_9allocatorIcEEEEEEENS_5tupleIJDpOT_EEESC_, symObjAddr: 0x1D558, symBinAddr: 0x100020710, symSize: 0x2C }
  - { offsetInCU: 0x2F4E6, offset: 0x2F4E6, size: 0x8, addend: 0x0, symName: __ZNSt3__112construct_atB8ue170006INS_4pairIKNS_12basic_stringIcNS_11char_traitsIcEENS_9allocatorIcEEEEiEEJRKNS_21piecewise_construct_tENS_5tupleIJRS8_EEENSD_IJEEEEPS9_EEPT_SJ_DpOT0_, symObjAddr: 0x1DE9C, symBinAddr: 0x100021054, symSize: 0x50 }
  - { offsetInCU: 0x2F57E, offset: 0x2F57E, size: 0x8, addend: 0x0, symName: __ZNSt3__13getB8ue170006ILm0EJRKNS_12basic_stringIcNS_11char_traitsIcEENS_9allocatorIcEEEEEEERNS_13tuple_elementIXT_ENS_5tupleIJDpT0_EEEE4typeERSD_, symObjAddr: 0x1DFAC, symBinAddr: 0x100021164, symSize: 0x24 }
  - { offsetInCU: 0x2F609, offset: 0x2F609, size: 0x8, addend: 0x0, symName: __ZNSt3__1neB8ue170006ERKNS_15__tree_iteratorINS_12__value_typeIiNS_3mapINS_12basic_stringIcNS_11char_traitsIcEENS_9allocatorIcEEEEiNS_4lessIS8_EENS6_INS_4pairIKS8_iEEEEEEEEPNS_11__tree_nodeISG_PvEElEESN_, symObjAddr: 0x1E4A4, symBinAddr: 0x10002165C, symSize: 0x34 }
  - { offsetInCU: 0x2F647, offset: 0x2F647, size: 0x8, addend: 0x0, symName: __ZNSt3__1eqB8ue170006ERKNS_15__tree_iteratorINS_12__value_typeIiNS_3mapINS_12basic_stringIcNS_11char_traitsIcEENS_9allocatorIcEEEEiNS_4lessIS8_EENS6_INS_4pairIKS8_iEEEEEEEEPNS_11__tree_nodeISG_PvEElEESN_, symObjAddr: 0x1E4D8, symBinAddr: 0x100021690, symSize: 0x30 }
  - { offsetInCU: 0x2F683, offset: 0x2F683, size: 0x8, addend: 0x0, symName: __ZNSt3__1neB8ue170006ERKNS_15__tree_iteratorINS_12__value_typeINS_12basic_stringIcNS_11char_traitsIcEENS_9allocatorIcEEEEiEEPNS_11__tree_nodeIS8_PvEElEESF_, symObjAddr: 0x1E650, symBinAddr: 0x100021808, symSize: 0x34 }
  - { offsetInCU: 0x2F6C1, offset: 0x2F6C1, size: 0x8, addend: 0x0, symName: __ZNSt3__1eqB8ue170006ERKNS_15__tree_iteratorINS_12__value_typeINS_12basic_stringIcNS_11char_traitsIcEENS_9allocatorIcEEEEiEEPNS_11__tree_nodeIS8_PvEElEESF_, symObjAddr: 0x1E684, symBinAddr: 0x10002183C, symSize: 0x30 }
  - { offsetInCU: 0x2F6FD, offset: 0x2F6FD, size: 0x8, addend: 0x0, symName: __ZNSt3__1neB8ue170006ERKNS_21__tree_const_iteratorINS_12__value_typeIiNS_3mapINS_12basic_stringIcNS_11char_traitsIcEENS_9allocatorIcEEEEiNS_4lessIS8_EENS6_INS_4pairIKS8_iEEEEEEEEPNS_11__tree_nodeISG_PvEElEESN_, symObjAddr: 0x1E810, symBinAddr: 0x1000219C8, symSize: 0x34 }
  - { offsetInCU: 0x2F73B, offset: 0x2F73B, size: 0x8, addend: 0x0, symName: __ZNSt3__1eqB8ue170006ERKNS_21__tree_const_iteratorINS_12__value_typeIiNS_3mapINS_12basic_stringIcNS_11char_traitsIcEENS_9allocatorIcEEEEiNS_4lessIS8_EENS6_INS_4pairIKS8_iEEEEEEEEPNS_11__tree_nodeISG_PvEElEESN_, symObjAddr: 0x1E844, symBinAddr: 0x1000219FC, symSize: 0x30 }
  - { offsetInCU: 0x2F7AA, offset: 0x2F7AA, size: 0x8, addend: 0x0, symName: __ZNSt3__1neB8ue170006ERKNS_15__tree_iteratorINS_12__value_typeIiNS_6vectorINS_12basic_stringIcNS_11char_traitsIcEENS_9allocatorIcEEEENS6_IS8_EEEEEEPNS_11__tree_nodeISB_PvEElEESI_, symObjAddr: 0x1EB38, symBinAddr: 0x100021CF0, symSize: 0x34 }
  - { offsetInCU: 0x2F7E8, offset: 0x2F7E8, size: 0x8, addend: 0x0, symName: __ZNSt3__1eqB8ue170006ERKNS_15__tree_iteratorINS_12__value_typeIiNS_6vectorINS_12basic_stringIcNS_11char_traitsIcEENS_9allocatorIcEEEENS6_IS8_EEEEEEPNS_11__tree_nodeISB_PvEElEESI_, symObjAddr: 0x1EB6C, symBinAddr: 0x100021D24, symSize: 0x30 }
  - { offsetInCU: 0x2F824, offset: 0x2F824, size: 0x8, addend: 0x0, symName: __ZNSt3__110destroy_atB8ue170006INS_4pairIKNS_6vectorINS_12basic_stringIcNS_11char_traitsIcEENS_9allocatorIcEEEENS6_IS8_EEEENS2_IiNS6_IiEEEEEELi0EEEvPT_, symObjAddr: 0x1F110, symBinAddr: 0x1000222C8, symSize: 0x24 }
  - { offsetInCU: 0x2F85B, offset: 0x2F85B, size: 0x8, addend: 0x0, symName: __ZNSt3__112__destroy_atB8ue170006INS_4pairIKNS_6vectorINS_12basic_stringIcNS_11char_traitsIcEENS_9allocatorIcEEEENS6_IS8_EEEENS2_IiNS6_IiEEEEEELi0EEEvPT_, symObjAddr: 0x1F134, symBinAddr: 0x1000222EC, symSize: 0x24 }
  - { offsetInCU: 0x2F892, offset: 0x2F892, size: 0x8, addend: 0x0, symName: __ZNSt3__17launderB8ue170006INS_4pairIKNS_6vectorINS_12basic_stringIcNS_11char_traitsIcEENS_9allocatorIcEEEENS6_IS8_EEEENS2_IiNS6_IiEEEEEEEEPT_SG_, symObjAddr: 0x1F1E0, symBinAddr: 0x100022398, symSize: 0x24 }
  - { offsetInCU: 0x2F8CA, offset: 0x2F8CA, size: 0x8, addend: 0x0, symName: __ZNSt3__19__launderB8ue170006INS_4pairIKNS_6vectorINS_12basic_stringIcNS_11char_traitsIcEENS_9allocatorIcEEEENS6_IS8_EEEENS2_IiNS6_IiEEEEEEEEPT_SG_, symObjAddr: 0x1F204, symBinAddr: 0x1000223BC, symSize: 0x14 }
  - { offsetInCU: 0x2F933, offset: 0x2F933, size: 0x8, addend: 0x0, symName: __ZNSt3__116forward_as_tupleB8ue170006IJRKNS_6vectorINS_12basic_stringIcNS_11char_traitsIcEENS_9allocatorIcEEEENS5_IS7_EEEEEEENS_5tupleIJDpOT_EEESF_, symObjAddr: 0x1F46C, symBinAddr: 0x100022624, symSize: 0x2C }
  - { offsetInCU: 0x2F96C, offset: 0x2F96C, size: 0x8, addend: 0x0, symName: __ZNSt3__1ssB8ue170006INS_12basic_stringIcNS_11char_traitsIcEENS_9allocatorIcEEEENS4_IS6_EEEEDTclsr3stdE17__synth_three_wayclsr3stdE7declvalIRT_EEclsr3stdE7declvalIS9_EEEERKNS_6vectorIS8_T0_EESF_, symObjAddr: 0x1FACC, symBinAddr: 0x100022C84, symSize: 0x74 }
  - { offsetInCU: 0x2F9BB, offset: 0x2F9BB, size: 0x8, addend: 0x0, symName: __ZNSt3__133lexicographical_compare_three_wayB8ue170006INS_11__wrap_iterIPKNS_12basic_stringIcNS_11char_traitsIcEENS_9allocatorIcEEEEEESA_PFNS_15strong_orderingERS8_SC_EEEDTclfp3_defp_defp1_EET_SG_T0_SH_T1_, symObjAddr: 0x1FB40, symBinAddr: 0x100022CF8, symSize: 0x74 }
  - { offsetInCU: 0x2FA48, offset: 0x2FA48, size: 0x8, addend: 0x0, symName: __ZNSt3__117__synth_three_wayB8ue170006INS_12basic_stringIcNS_11char_traitsIcEENS_9allocatorIcEEEES6_EEDaRKT_RKT0_, symObjAddr: 0x1FBB4, symBinAddr: 0x100022D6C, symSize: 0x34 }
  - { offsetInCU: 0x2FA94, offset: 0x2FA94, size: 0x8, addend: 0x0, symName: __ZNSt3__145__lexicographical_compare_three_way_fast_pathB8ue170006INS_11__wrap_iterIPKNS_12basic_stringIcNS_11char_traitsIcEENS_9allocatorIcEEEEEESA_PFNS_15strong_orderingERS8_SC_EEEDTclfp3_defp_defp1_EET_SG_T0_SH_RT1_, symObjAddr: 0x1FBE8, symBinAddr: 0x100022DA0, symSize: 0x16C }
  - { offsetInCU: 0x2FB97, offset: 0x2FB97, size: 0x8, addend: 0x0, symName: __ZNSt3__1miB8ue170006IPKNS_12basic_stringIcNS_11char_traitsIcEENS_9allocatorIcEEEES8_EEDTmicldtfp_4baseEcldtfp0_4baseEERKNS_11__wrap_iterIT_EERKNSA_IT0_EE, symObjAddr: 0x1FD54, symBinAddr: 0x100022F0C, symSize: 0x48 }
  - { offsetInCU: 0x2FBE3, offset: 0x2FBE3, size: 0x8, addend: 0x0, symName: __ZNSt3__13minB8ue170006IlEERKT_S3_S3_, symObjAddr: 0x1FD9C, symBinAddr: 0x100022F54, symSize: 0x2C }
  - { offsetInCU: 0x2FC27, offset: 0x2FC27, size: 0x8, addend: 0x0, symName: __ZNSt3__1eqB8ue170006ENS_15strong_orderingENS_20_CmpUnspecifiedParamE, symObjAddr: 0x1FDC8, symBinAddr: 0x100022F80, symSize: 0x24 }
  - { offsetInCU: 0x2FC5D, offset: 0x2FC5D, size: 0x8, addend: 0x0, symName: __ZNSt3__13minB8ue170006IlNS_6__lessIvvEEEERKT_S5_S5_T0_, symObjAddr: 0x1FDEC, symBinAddr: 0x100022FA4, symSize: 0x54 }
  - { offsetInCU: 0x2FCB7, offset: 0x2FCB7, size: 0x8, addend: 0x0, symName: __ZNSt3__17launderB8ue170006IKNS_4pairIKNS_6vectorINS_12basic_stringIcNS_11char_traitsIcEENS_9allocatorIcEEEENS6_IS8_EEEENS2_IiNS6_IiEEEEEEEEPT_SH_, symObjAddr: 0x1FE74, symBinAddr: 0x10002302C, symSize: 0x24 }
  - { offsetInCU: 0x2FCEF, offset: 0x2FCEF, size: 0x8, addend: 0x0, symName: __ZNSt3__19__launderB8ue170006IKNS_4pairIKNS_6vectorINS_12basic_stringIcNS_11char_traitsIcEENS_9allocatorIcEEEENS6_IS8_EEEENS2_IiNS6_IiEEEEEEEEPT_SH_, symObjAddr: 0x1FE98, symBinAddr: 0x100023050, symSize: 0x14 }
  - { offsetInCU: 0x2FD6A, offset: 0x2FD6A, size: 0x8, addend: 0x0, symName: __ZNSt3__112construct_atB8ue170006INS_4pairIKNS_6vectorINS_12basic_stringIcNS_11char_traitsIcEENS_9allocatorIcEEEENS6_IS8_EEEENS2_IiNS6_IiEEEEEEJRKNS_21piecewise_construct_tENS_5tupleIJRSB_EEENSI_IJEEEEPSE_EEPT_SO_DpOT0_, symObjAddr: 0x201B8, symBinAddr: 0x100023370, symSize: 0x50 }
  - { offsetInCU: 0x2FE02, offset: 0x2FE02, size: 0x8, addend: 0x0, symName: __ZNSt3__13getB8ue170006ILm0EJRKNS_6vectorINS_12basic_stringIcNS_11char_traitsIcEENS_9allocatorIcEEEENS5_IS7_EEEEEEERNS_13tuple_elementIXT_ENS_5tupleIJDpT0_EEEE4typeERSG_, symObjAddr: 0x202D0, symBinAddr: 0x100023488, symSize: 0x24 }
  - { offsetInCU: 0x2FE8D, offset: 0x2FE8D, size: 0x8, addend: 0x0, symName: __ZNSt3__1neB8ue170006ERKNS_15__tree_iteratorINS_12__value_typeINS_6vectorINS_12basic_stringIcNS_11char_traitsIcEENS_9allocatorIcEEEENS6_IS8_EEEENS2_IiNS6_IiEEEEEEPNS_11__tree_nodeISD_PvEElEESK_, symObjAddr: 0x207C8, symBinAddr: 0x100023980, symSize: 0x34 }
  - { offsetInCU: 0x2FECB, offset: 0x2FECB, size: 0x8, addend: 0x0, symName: __ZNSt3__1eqB8ue170006ERKNS_15__tree_iteratorINS_12__value_typeINS_6vectorINS_12basic_stringIcNS_11char_traitsIcEENS_9allocatorIcEEEENS6_IS8_EEEENS2_IiNS6_IiEEEEEEPNS_11__tree_nodeISD_PvEElEESK_, symObjAddr: 0x207FC, symBinAddr: 0x1000239B4, symSize: 0x30 }
  - { offsetInCU: 0x2FF07, offset: 0x2FF07, size: 0x8, addend: 0x0, symName: __ZNSt3__110destroy_atB8ue170006INS_4pairIKiiEELi0EEEvPT_, symObjAddr: 0x21370, symBinAddr: 0x100024528, symSize: 0x24 }
  - { offsetInCU: 0x2FF3F, offset: 0x2FF3F, size: 0x8, addend: 0x0, symName: __ZNSt3__112__destroy_atB8ue170006INS_4pairIKiiEELi0EEEvPT_, symObjAddr: 0x21394, symBinAddr: 0x10002454C, symSize: 0x10 }
  - { offsetInCU: 0x2FF76, offset: 0x2FF76, size: 0x8, addend: 0x0, symName: __ZNSt3__17launderB8ue170006INS_4pairIKiiEEEEPT_S5_, symObjAddr: 0x213C8, symBinAddr: 0x100024580, symSize: 0x24 }
  - { offsetInCU: 0x2FFAE, offset: 0x2FFAE, size: 0x8, addend: 0x0, symName: __ZNSt3__19__launderB8ue170006INS_4pairIKiiEEEEPT_S5_, symObjAddr: 0x213EC, symBinAddr: 0x1000245A4, symSize: 0x14 }
  - { offsetInCU: 0x2FFE4, offset: 0x2FFE4, size: 0x8, addend: 0x0, symName: __ZNSt3__17launderB8ue170006IKNS_4pairIKiiEEEEPT_S6_, symObjAddr: 0x21B78, symBinAddr: 0x100024D30, symSize: 0x24 }
  - { offsetInCU: 0x3001C, offset: 0x3001C, size: 0x8, addend: 0x0, symName: __ZNSt3__19__launderB8ue170006IKNS_4pairIKiiEEEEPT_S6_, symObjAddr: 0x21B9C, symBinAddr: 0x100024D54, symSize: 0x14 }
  - { offsetInCU: 0x30097, offset: 0x30097, size: 0x8, addend: 0x0, symName: __ZNSt3__112construct_atB8ue170006INS_4pairIKiiEEJRKNS_21piecewise_construct_tENS_5tupleIJRS2_EEENS7_IJEEEEPS3_EEPT_SD_DpOT0_, symObjAddr: 0x21EBC, symBinAddr: 0x100025074, symSize: 0x50 }
  - { offsetInCU: 0x30E6A, offset: 0x30E6A, size: 0x8, addend: 0x0, symName: __ZSt28__throw_bad_array_new_lengthB8ue170006v, symObjAddr: 0x724C, symBinAddr: 0x10000A404, symSize: 0x34 }
  - { offsetInCU: 0x31AA5, offset: 0x31AA5, size: 0x8, addend: 0x0, symName: __ZNKSt3__16chrono15__duration_castINS0_8durationIxNS_5ratioILl1ELl1000000000EEEEENS2_IxNS3_ILl1ELl1000000EEEEENS3_ILl1ELl1000EEELb1ELb0EEclB8ue170006ERKS5_, symObjAddr: 0x5A8C, symBinAddr: 0x100008C44, symSize: 0x48 }
  - { offsetInCU: 0x31D1F, offset: 0x31D1F, size: 0x8, addend: 0x0, symName: __ZNSt3__16vectorINS_12basic_stringIcNS_11char_traitsIcEENS_9allocatorIcEEEENS4_IS6_EEE26__swap_out_circular_bufferERNS_14__split_bufferIS6_RS7_EE, symObjAddr: 0x6AAC, symBinAddr: 0x100009C64, symSize: 0x110 }
  - { offsetInCU: 0x31DF8, offset: 0x31DF8, size: 0x8, addend: 0x0, symName: __ZNSt3__16vectorIiNS_9allocatorIiEEE26__swap_out_circular_bufferERNS_14__split_bufferIiRS2_EE, symObjAddr: 0x9A50, symBinAddr: 0x10000CC08, symSize: 0x110 }
  - { offsetInCU: 0x32359, offset: 0x32359, size: 0x8, addend: 0x0, symName: __ZNSt3__16vectorINS0_IiNS_9allocatorIiEEEENS1_IS3_EEE26__swap_out_circular_bufferERNS_14__split_bufferIS3_RS4_EE, symObjAddr: 0x14004, symBinAddr: 0x1000171BC, symSize: 0x110 }
  - { offsetInCU: 0x35F99, offset: 0x35F99, size: 0x8, addend: 0x0, symName: __Z17writeOutputToFileNSt3__16vectorIiNS_9allocatorIiEEEENS_12basic_stringIcNS_11char_traitsIcEENS1_IcEEEE, symObjAddr: 0x0, symBinAddr: 0x1000031B8, symSize: 0x328 }
  - { offsetInCU: 0x36116, offset: 0x36116, size: 0x8, addend: 0x0, symName: __ZNSt3__114basic_ofstreamIcNS_11char_traitsIcEEEC1ERKNS_12basic_stringIcS2_NS_9allocatorIcEEEEj, symObjAddr: 0x328, symBinAddr: 0x1000034E0, symSize: 0x16C }
  - { offsetInCU: 0x36160, offset: 0x36160, size: 0x8, addend: 0x0, symName: __ZNKSt3__19basic_iosIcNS_11char_traitsIcEEEntB8ue170006Ev, symObjAddr: 0x494, symBinAddr: 0x10000364C, symSize: 0x28 }
  - { offsetInCU: 0x36186, offset: 0x36186, size: 0x8, addend: 0x0, symName: __ZNSt3__113basic_ostreamIcNS_11char_traitsIcEEElsB8ue170006EPFRS3_S4_E, symObjAddr: 0x504, symBinAddr: 0x1000036BC, symSize: 0x2C }
  - { offsetInCU: 0x361BA, offset: 0x361BA, size: 0x8, addend: 0x0, symName: __ZNKSt3__16vectorIiNS_9allocatorIiEEE5beginB8ue170006Ev, symObjAddr: 0x588, symBinAddr: 0x100003740, symSize: 0x30 }
  - { offsetInCU: 0x361E2, offset: 0x361E2, size: 0x8, addend: 0x0, symName: __ZNKSt3__16vectorIiNS_9allocatorIiEEE3endB8ue170006Ev, symObjAddr: 0x5B8, symBinAddr: 0x100003770, symSize: 0x30 }
  - { offsetInCU: 0x3620A, offset: 0x3620A, size: 0x8, addend: 0x0, symName: __ZNKSt3__111__wrap_iterIPKiEdeB8ue170006Ev, symObjAddr: 0x61C, symBinAddr: 0x1000037D4, symSize: 0x18 }
  - { offsetInCU: 0x36230, offset: 0x36230, size: 0x8, addend: 0x0, symName: __ZNKSt3__16vectorIiNS_9allocatorIiEEE4backB8ue170006Ev, symObjAddr: 0x634, symBinAddr: 0x1000037EC, symSize: 0x1C }
  - { offsetInCU: 0x36256, offset: 0x36256, size: 0x8, addend: 0x0, symName: __ZNSt3__111__wrap_iterIPKiEppB8ue170006Ev, symObjAddr: 0x650, symBinAddr: 0x100003808, symSize: 0x20 }
  - { offsetInCU: 0x3627C, offset: 0x3627C, size: 0x8, addend: 0x0, symName: __ZNSt3__114basic_ofstreamIcNS_11char_traitsIcEEE5closeEv, symObjAddr: 0x6A4, symBinAddr: 0x10000385C, symSize: 0x58 }
  - { offsetInCU: 0x362A4, offset: 0x362A4, size: 0x8, addend: 0x0, symName: __ZNKSt3__16chrono8durationIxNS_5ratioILl1ELl1000000EEEE5countB8ue170006Ev, symObjAddr: 0x784, symBinAddr: 0x10000393C, symSize: 0x18 }
  - { offsetInCU: 0x362D0, offset: 0x362D0, size: 0x8, addend: 0x0, symName: __ZNSt3__114basic_ofstreamIcNS_11char_traitsIcEEED1Ev, symObjAddr: 0x79C, symBinAddr: 0x100003954, symSize: 0x40 }
  - { offsetInCU: 0x362FC, offset: 0x362FC, size: 0x8, addend: 0x0, symName: __Z13getHashtagMapR12fileIterator, symObjAddr: 0x7DC, symBinAddr: 0x100003994, symSize: 0x31C }
  - { offsetInCU: 0x363BA, offset: 0x363BA, size: 0x8, addend: 0x0, symName: __ZNSt3__13mapIiNS_6vectorINS_12basic_stringIcNS_11char_traitsIcEENS_9allocatorIcEEEENS5_IS7_EEEENS_4lessIiEENS5_INS_4pairIKiS9_EEEEEC1B8ue170006Ev, symObjAddr: 0xAF8, symBinAddr: 0x100003CB0, symSize: 0x2C }
  - { offsetInCU: 0x363E4, offset: 0x363E4, size: 0x8, addend: 0x0, symName: __ZNSt3__112basic_stringIcNS_11char_traitsIcEENS_9allocatorIcEEEC1B8ue170006Ev, symObjAddr: 0xB24, symBinAddr: 0x100003CDC, symSize: 0x2C }
  - { offsetInCU: 0x36533, offset: 0x36533, size: 0x8, addend: 0x0, symName: __ZN12fileIterator7hasNextEv, symObjAddr: 0xB50, symBinAddr: 0x100003D08, symSize: 0x38 }
  - { offsetInCU: 0x36559, offset: 0x36559, size: 0x8, addend: 0x0, symName: __ZN12fileIterator4nextEv, symObjAddr: 0xB88, symBinAddr: 0x100003D40, symSize: 0x74 }
  - { offsetInCU: 0x3657F, offset: 0x3657F, size: 0x8, addend: 0x0, symName: __ZNSt3__112basic_stringIcNS_11char_traitsIcEENS_9allocatorIcEEEaSB8ue170006EOS5_, symObjAddr: 0xBFC, symBinAddr: 0x100003DB4, symSize: 0x34 }
  - { offsetInCU: 0x36639, offset: 0x36639, size: 0x8, addend: 0x0, symName: __ZNSt3__118basic_stringstreamIcNS_11char_traitsIcEENS_9allocatorIcEEEC1B8ue170006ERKNS_12basic_stringIcS2_S4_EEj, symObjAddr: 0xC7C, symBinAddr: 0x100003E34, symSize: 0x110 }
  - { offsetInCU: 0x36681, offset: 0x36681, size: 0x8, addend: 0x0, symName: __ZNSt3__16vectorINS_12basic_stringIcNS_11char_traitsIcEENS_9allocatorIcEEEENS4_IS6_EEEC1B8ue170006Ev, symObjAddr: 0xD8C, symBinAddr: 0x100003F44, symSize: 0x2C }
  - { offsetInCU: 0x366AB, offset: 0x366AB, size: 0x8, addend: 0x0, symName: __ZNKSt3__19basic_iosIcNS_11char_traitsIcEEEcvbB8ue170006Ev, symObjAddr: 0xFF0, symBinAddr: 0x1000041A8, symSize: 0x2C }
  - { offsetInCU: 0x366D1, offset: 0x366D1, size: 0x8, addend: 0x0, symName: __ZNSt3__16vectorINS_12basic_stringIcNS_11char_traitsIcEENS_9allocatorIcEEEENS4_IS6_EEE9push_backB8ue170006ERKS6_, symObjAddr: 0x101C, symBinAddr: 0x1000041D4, symSize: 0x6C }
  - { offsetInCU: 0x36708, offset: 0x36708, size: 0x8, addend: 0x0, symName: __ZNKSt3__16vectorINS_12basic_stringIcNS_11char_traitsIcEENS_9allocatorIcEEEENS4_IS6_EEE4sizeB8ue170006Ev, symObjAddr: 0x1088, symBinAddr: 0x100004240, symSize: 0x28 }
  - { offsetInCU: 0x3672E, offset: 0x3672E, size: 0x8, addend: 0x0, symName: __ZNSt3__16vectorINS_12basic_stringIcNS_11char_traitsIcEENS_9allocatorIcEEEENS4_IS6_EEEixB8ue170006Em, symObjAddr: 0x10B0, symBinAddr: 0x100004268, symSize: 0x2C }
  - { offsetInCU: 0x36765, offset: 0x36765, size: 0x8, addend: 0x0, symName: __ZNKSt3__112basic_stringIcNS_11char_traitsIcEENS_9allocatorIcEEE5emptyB8ue170006Ev, symObjAddr: 0x10DC, symBinAddr: 0x100004294, symSize: 0x30 }
  - { offsetInCU: 0x3678B, offset: 0x3678B, size: 0x8, addend: 0x0, symName: __ZNSt3__13mapIiNS_6vectorINS_12basic_stringIcNS_11char_traitsIcEENS_9allocatorIcEEEENS5_IS7_EEEENS_4lessIiEENS5_INS_4pairIKiS9_EEEEEixERSD_, symObjAddr: 0x110C, symBinAddr: 0x1000042C4, symSize: 0x80 }
  - { offsetInCU: 0x367C2, offset: 0x367C2, size: 0x8, addend: 0x0, symName: __ZNSt3__16vectorINS_12basic_stringIcNS_11char_traitsIcEENS_9allocatorIcEEEENS4_IS6_EEEaSB8ue170006ERKS8_, symObjAddr: 0x118C, symBinAddr: 0x100004344, symSize: 0x68 }
  - { offsetInCU: 0x367F9, offset: 0x367F9, size: 0x8, addend: 0x0, symName: __ZNSt3__16vectorINS_12basic_stringIcNS_11char_traitsIcEENS_9allocatorIcEEEENS4_IS6_EEED1B8ue170006Ev, symObjAddr: 0x11F4, symBinAddr: 0x1000043AC, symSize: 0x2C }
  - { offsetInCU: 0x36829, offset: 0x36829, size: 0x8, addend: 0x0, symName: __ZNSt3__118basic_stringstreamIcNS_11char_traitsIcEENS_9allocatorIcEEED1Ev, symObjAddr: 0x1220, symBinAddr: 0x1000043D8, symSize: 0x40 }
  - { offsetInCU: 0x36856, offset: 0x36856, size: 0x8, addend: 0x0, symName: __ZNSt3__13mapIiNS_6vectorINS_12basic_stringIcNS_11char_traitsIcEENS_9allocatorIcEEEENS5_IS7_EEEENS_4lessIiEENS5_INS_4pairIKiS9_EEEEED1B8ue170006Ev, symObjAddr: 0x1260, symBinAddr: 0x100004418, symSize: 0x2C }
  - { offsetInCU: 0x3687F, offset: 0x3687F, size: 0x8, addend: 0x0, symName: __Z20getCustomerPurchasesR12fileIterator, symObjAddr: 0x128C, symBinAddr: 0x100004444, symSize: 0x464 }
  - { offsetInCU: 0x3693D, offset: 0x3693D, size: 0x8, addend: 0x0, symName: __ZNSt3__13mapIiNS_6vectorIiNS_9allocatorIiEEEENS_4lessIiEENS2_INS_4pairIKiS4_EEEEEC1B8ue170006Ev, symObjAddr: 0x16F0, symBinAddr: 0x1000048A8, symSize: 0x2C }
  - { offsetInCU: 0x36967, offset: 0x36967, size: 0x8, addend: 0x0, symName: __ZNSt3__16vectorIiNS_9allocatorIiEEEC1B8ue170006Ev, symObjAddr: 0x171C, symBinAddr: 0x1000048D4, symSize: 0x2C }
  - { offsetInCU: 0x36991, offset: 0x36991, size: 0x8, addend: 0x0, symName: __ZNSt3__16vectorIiNS_9allocatorIiEEE9push_backB8ue170006EOi, symObjAddr: 0x1748, symBinAddr: 0x100004900, symSize: 0x6C }
  - { offsetInCU: 0x369C8, offset: 0x369C8, size: 0x8, addend: 0x0, symName: __ZNKSt3__16vectorIiNS_9allocatorIiEEE4sizeB8ue170006Ev, symObjAddr: 0x17B4, symBinAddr: 0x10000496C, symSize: 0x28 }
  - { offsetInCU: 0x369EE, offset: 0x369EE, size: 0x8, addend: 0x0, symName: __ZNSt3__16vectorIiNS_9allocatorIiEEEixB8ue170006Em, symObjAddr: 0x17DC, symBinAddr: 0x100004994, symSize: 0x24 }
  - { offsetInCU: 0x36A25, offset: 0x36A25, size: 0x8, addend: 0x0, symName: __ZNSt3__13mapIiNS_6vectorIiNS_9allocatorIiEEEENS_4lessIiEENS2_INS_4pairIKiS4_EEEEE4findB8ue170006ERS8_, symObjAddr: 0x1830, symBinAddr: 0x1000049E8, symSize: 0x40 }
  - { offsetInCU: 0x36A5A, offset: 0x36A5A, size: 0x8, addend: 0x0, symName: __ZNSt3__13mapIiNS_6vectorIiNS_9allocatorIiEEEENS_4lessIiEENS2_INS_4pairIKiS4_EEEEE3endB8ue170006Ev, symObjAddr: 0x1870, symBinAddr: 0x100004A28, symSize: 0x38 }
  - { offsetInCU: 0x36A80, offset: 0x36A80, size: 0x8, addend: 0x0, symName: __ZNSt3__13mapIiNS_6vectorIiNS_9allocatorIiEEEENS_4lessIiEENS2_INS_4pairIKiS4_EEEEEixERS8_, symObjAddr: 0x18A8, symBinAddr: 0x100004A60, symSize: 0x80 }
  - { offsetInCU: 0x36AB7, offset: 0x36AB7, size: 0x8, addend: 0x0, symName: __ZNSt3__16vectorIiNS_9allocatorIiEEE9push_backB8ue170006ERKi, symObjAddr: 0x1928, symBinAddr: 0x100004AE0, symSize: 0x6C }
  - { offsetInCU: 0x36AEE, offset: 0x36AEE, size: 0x8, addend: 0x0, symName: __ZNSt3__16vectorIiNS_9allocatorIiEEEaSB8ue170006ERKS3_, symObjAddr: 0x1994, symBinAddr: 0x100004B4C, symSize: 0x68 }
  - { offsetInCU: 0x36B25, offset: 0x36B25, size: 0x8, addend: 0x0, symName: __ZNSt3__16vectorIiNS_9allocatorIiEEED1B8ue170006Ev, symObjAddr: 0x19FC, symBinAddr: 0x100004BB4, symSize: 0x2C }
  - { offsetInCU: 0x36B4F, offset: 0x36B4F, size: 0x8, addend: 0x0, symName: __ZNSt3__13mapIiNS_6vectorIiNS_9allocatorIiEEEENS_4lessIiEENS2_INS_4pairIKiS4_EEEEED1B8ue170006Ev, symObjAddr: 0x1A28, symBinAddr: 0x100004BE0, symSize: 0x2C }
  - { offsetInCU: 0x36B78, offset: 0x36B78, size: 0x8, addend: 0x0, symName: __Z20getCustomerInterestsR12fileIteratorRKNSt3__13mapIiNS1_6vectorINS1_12basic_stringIcNS1_11char_traitsIcEENS1_9allocatorIcEEEENS7_IS9_EEEENS1_4lessIiEENS7_INS1_4pairIKiSB_EEEEEE, symObjAddr: 0x1A54, symBinAddr: 0x100004C0C, symSize: 0x694 }
  - { offsetInCU: 0x36D36, offset: 0x36D36, size: 0x8, addend: 0x0, symName: __ZNSt3__13mapIiNS0_INS_12basic_stringIcNS_11char_traitsIcEENS_9allocatorIcEEEEiNS_4lessIS6_EENS4_INS_4pairIKS6_iEEEEEENS7_IiEENS4_INS9_IKiSD_EEEEEC1B8ue170006Ev, symObjAddr: 0x20E8, symBinAddr: 0x1000052A0, symSize: 0x2C }
  - { offsetInCU: 0x36D60, offset: 0x36D60, size: 0x8, addend: 0x0, symName: __ZNKSt3__13mapIiNS_6vectorINS_12basic_stringIcNS_11char_traitsIcEENS_9allocatorIcEEEENS5_IS7_EEEENS_4lessIiEENS5_INS_4pairIKiS9_EEEEE4findB8ue170006ERSD_, symObjAddr: 0x2144, symBinAddr: 0x1000052FC, symSize: 0x40 }
  - { offsetInCU: 0x36D95, offset: 0x36D95, size: 0x8, addend: 0x0, symName: __ZNKSt3__13mapIiNS_6vectorINS_12basic_stringIcNS_11char_traitsIcEENS_9allocatorIcEEEENS5_IS7_EEEENS_4lessIiEENS5_INS_4pairIKiS9_EEEEE3endB8ue170006Ev, symObjAddr: 0x2184, symBinAddr: 0x10000533C, symSize: 0x38 }
  - { offsetInCU: 0x36DBB, offset: 0x36DBB, size: 0x8, addend: 0x0, symName: __ZNKSt3__13mapIiNS_6vectorINS_12basic_stringIcNS_11char_traitsIcEENS_9allocatorIcEEEENS5_IS7_EEEENS_4lessIiEENS5_INS_4pairIKiS9_EEEEE2atERSD_, symObjAddr: 0x21BC, symBinAddr: 0x100005374, symSize: 0x68 }
  - { offsetInCU: 0x36E10, offset: 0x36E10, size: 0x8, addend: 0x0, symName: __ZNKSt3__16vectorINS_12basic_stringIcNS_11char_traitsIcEENS_9allocatorIcEEEENS4_IS6_EEE5beginB8ue170006Ev, symObjAddr: 0x2224, symBinAddr: 0x1000053DC, symSize: 0x30 }
  - { offsetInCU: 0x36E38, offset: 0x36E38, size: 0x8, addend: 0x0, symName: __ZNKSt3__16vectorINS_12basic_stringIcNS_11char_traitsIcEENS_9allocatorIcEEEENS4_IS6_EEE3endB8ue170006Ev, symObjAddr: 0x2254, symBinAddr: 0x10000540C, symSize: 0x30 }
  - { offsetInCU: 0x36E60, offset: 0x36E60, size: 0x8, addend: 0x0, symName: __ZNKSt3__111__wrap_iterIPKNS_12basic_stringIcNS_11char_traitsIcEENS_9allocatorIcEEEEEdeB8ue170006Ev, symObjAddr: 0x22B8, symBinAddr: 0x100005470, symSize: 0x18 }
  - { offsetInCU: 0x36E86, offset: 0x36E86, size: 0x8, addend: 0x0, symName: __ZNSt3__13mapIiNS0_INS_12basic_stringIcNS_11char_traitsIcEENS_9allocatorIcEEEEiNS_4lessIS6_EENS4_INS_4pairIKS6_iEEEEEENS7_IiEENS4_INS9_IKiSD_EEEEEixERSF_, symObjAddr: 0x22D0, symBinAddr: 0x100005488, symSize: 0x80 }
  - { offsetInCU: 0x36EBD, offset: 0x36EBD, size: 0x8, addend: 0x0, symName: __ZNSt3__13mapINS_12basic_stringIcNS_11char_traitsIcEENS_9allocatorIcEEEEiNS_4lessIS6_EENS4_INS_4pairIKS6_iEEEEEixERSA_, symObjAddr: 0x2350, symBinAddr: 0x100005508, symSize: 0x80 }
  - { offsetInCU: 0x36EF4, offset: 0x36EF4, size: 0x8, addend: 0x0, symName: __ZNSt3__111__wrap_iterIPKNS_12basic_stringIcNS_11char_traitsIcEENS_9allocatorIcEEEEEppB8ue170006Ev, symObjAddr: 0x23D0, symBinAddr: 0x100005588, symSize: 0x20 }
  - { offsetInCU: 0x36F1A, offset: 0x36F1A, size: 0x8, addend: 0x0, symName: __ZNSt3__13mapIiNS0_INS_12basic_stringIcNS_11char_traitsIcEENS_9allocatorIcEEEEiNS_4lessIS6_EENS4_INS_4pairIKS6_iEEEEEENS7_IiEENS4_INS9_IKiSD_EEEEE5beginB8ue170006Ev, symObjAddr: 0x23F0, symBinAddr: 0x1000055A8, symSize: 0x38 }
  - { offsetInCU: 0x36F40, offset: 0x36F40, size: 0x8, addend: 0x0, symName: __ZNSt3__13mapIiNS0_INS_12basic_stringIcNS_11char_traitsIcEENS_9allocatorIcEEEEiNS_4lessIS6_EENS4_INS_4pairIKS6_iEEEEEENS7_IiEENS4_INS9_IKiSD_EEEEE3endB8ue170006Ev, symObjAddr: 0x2428, symBinAddr: 0x1000055E0, symSize: 0x38 }
  - { offsetInCU: 0x36F66, offset: 0x36F66, size: 0x8, addend: 0x0, symName: __ZNKSt3__114__map_iteratorINS_15__tree_iteratorINS_12__value_typeIiNS_3mapINS_12basic_stringIcNS_11char_traitsIcEENS_9allocatorIcEEEEiNS_4lessIS9_EENS7_INS_4pairIKS9_iEEEEEEEEPNS_11__tree_nodeISH_PvEElEEEdeB8ue170006Ev, symObjAddr: 0x2490, symBinAddr: 0x100005648, symSize: 0x28 }
  - { offsetInCU: 0x36F8C, offset: 0x36F8C, size: 0x8, addend: 0x0, symName: __ZNSt3__13mapINS_12basic_stringIcNS_11char_traitsIcEENS_9allocatorIcEEEEiNS_4lessIS6_EENS4_INS_4pairIKS6_iEEEEE5beginB8ue170006Ev, symObjAddr: 0x24B8, symBinAddr: 0x100005670, symSize: 0x38 }
  - { offsetInCU: 0x36FB2, offset: 0x36FB2, size: 0x8, addend: 0x0, symName: __ZNSt3__13mapINS_12basic_stringIcNS_11char_traitsIcEENS_9allocatorIcEEEEiNS_4lessIS6_EENS4_INS_4pairIKS6_iEEEEE3endB8ue170006Ev, symObjAddr: 0x24F0, symBinAddr: 0x1000056A8, symSize: 0x38 }
  - { offsetInCU: 0x36FD8, offset: 0x36FD8, size: 0x8, addend: 0x0, symName: __ZNKSt3__114__map_iteratorINS_15__tree_iteratorINS_12__value_typeINS_12basic_stringIcNS_11char_traitsIcEENS_9allocatorIcEEEEiEEPNS_11__tree_nodeIS9_PvEElEEEdeB8ue170006Ev, symObjAddr: 0x2558, symBinAddr: 0x100005710, symSize: 0x28 }
  - { offsetInCU: 0x36FFE, offset: 0x36FFE, size: 0x8, addend: 0x0, symName: __ZNSt3__114__map_iteratorINS_15__tree_iteratorINS_12__value_typeINS_12basic_stringIcNS_11char_traitsIcEENS_9allocatorIcEEEEiEEPNS_11__tree_nodeIS9_PvEElEEEppB8ue170006Ev, symObjAddr: 0x2580, symBinAddr: 0x100005738, symSize: 0x2C }
  - { offsetInCU: 0x37024, offset: 0x37024, size: 0x8, addend: 0x0, symName: __ZNSt3__114__map_iteratorINS_15__tree_iteratorINS_12__value_typeIiNS_3mapINS_12basic_stringIcNS_11char_traitsIcEENS_9allocatorIcEEEEiNS_4lessIS9_EENS7_INS_4pairIKS9_iEEEEEEEEPNS_11__tree_nodeISH_PvEElEEEppB8ue170006Ev, symObjAddr: 0x25AC, symBinAddr: 0x100005764, symSize: 0x2C }
  - { offsetInCU: 0x3704A, offset: 0x3704A, size: 0x8, addend: 0x0, symName: __ZNSt3__13mapIiNS0_INS_12basic_stringIcNS_11char_traitsIcEENS_9allocatorIcEEEEiNS_4lessIS6_EENS4_INS_4pairIKS6_iEEEEEENS7_IiEENS4_INS9_IKiSD_EEEEED1B8ue170006Ev, symObjAddr: 0x25D8, symBinAddr: 0x100005790, symSize: 0x2C }
  - { offsetInCU: 0x37073, offset: 0x37073, size: 0x8, addend: 0x0, symName: __Z16getTopKInterestsRKNSt3__13mapIiNS0_INS_12basic_stringIcNS_11char_traitsIcEENS_9allocatorIcEEEEiNS_4lessIS6_EENS4_INS_4pairIKS6_iEEEEEENS7_IiEENS4_INS9_IKiSD_EEEEEEi, symObjAddr: 0x2604, symBinAddr: 0x1000057BC, symSize: 0x3C0 }
  - { offsetInCU: 0x3720E, offset: 0x3720E, size: 0x8, addend: 0x0, symName: __ZNKSt3__13mapIiNS0_INS_12basic_stringIcNS_11char_traitsIcEENS_9allocatorIcEEEEiNS_4lessIS6_EENS4_INS_4pairIKS6_iEEEEEENS7_IiEENS4_INS9_IKiSD_EEEEE5beginB8ue170006Ev, symObjAddr: 0x29C4, symBinAddr: 0x100005B7C, symSize: 0x38 }
  - { offsetInCU: 0x37234, offset: 0x37234, size: 0x8, addend: 0x0, symName: __ZNKSt3__13mapIiNS0_INS_12basic_stringIcNS_11char_traitsIcEENS_9allocatorIcEEEEiNS_4lessIS6_EENS4_INS_4pairIKS6_iEEEEEENS7_IiEENS4_INS9_IKiSD_EEEEE3endB8ue170006Ev, symObjAddr: 0x29FC, symBinAddr: 0x100005BB4, symSize: 0x38 }
  - { offsetInCU: 0x3725A, offset: 0x3725A, size: 0x8, addend: 0x0, symName: __ZNKSt3__120__map_const_iteratorINS_21__tree_const_iteratorINS_12__value_typeIiNS_3mapINS_12basic_stringIcNS_11char_traitsIcEENS_9allocatorIcEEEEiNS_4lessIS9_EENS7_INS_4pairIKS9_iEEEEEEEEPNS_11__tree_nodeISH_PvEElEEEdeB8ue170006Ev, symObjAddr: 0x2A64, symBinAddr: 0x100005C1C, symSize: 0x28 }
  - { offsetInCU: 0x37280, offset: 0x37280, size: 0x8, addend: 0x0, symName: __ZNKSt3__13mapINS_12basic_stringIcNS_11char_traitsIcEENS_9allocatorIcEEEEiNS_4lessIS6_EENS4_INS_4pairIKS6_iEEEEE5beginB8ue170006Ev, symObjAddr: 0x2A8C, symBinAddr: 0x100005C44, symSize: 0x38 }
  - { offsetInCU: 0x372A6, offset: 0x372A6, size: 0x8, addend: 0x0, symName: __ZNKSt3__13mapINS_12basic_stringIcNS_11char_traitsIcEENS_9allocatorIcEEEEiNS_4lessIS6_EENS4_INS_4pairIKS6_iEEEEE3endB8ue170006Ev, symObjAddr: 0x2AC4, symBinAddr: 0x100005C7C, symSize: 0x38 }
  - { offsetInCU: 0x372CC, offset: 0x372CC, size: 0x8, addend: 0x0, symName: __ZNSt3__16vectorINS_4pairINS_12basic_stringIcNS_11char_traitsIcEENS_9allocatorIcEEEEiEENS5_IS8_EEEC1INS_20__map_const_iteratorINS_21__tree_const_iteratorINS_12__value_typeIS7_iEEPNS_11__tree_nodeISF_PvEElEEEELi0EEET_SM_, symObjAddr: 0x2AFC, symBinAddr: 0x100005CB4, symSize: 0x3C }
  - { offsetInCU: 0x37325, offset: 0x37325, size: 0x8, addend: 0x0, symName: __ZNSt3__16vectorINS_4pairINS_12basic_stringIcNS_11char_traitsIcEENS_9allocatorIcEEEEiEENS5_IS8_EEE5beginB8ue170006Ev, symObjAddr: 0x2B78, symBinAddr: 0x100005D30, symSize: 0x30 }
  - { offsetInCU: 0x3734D, offset: 0x3734D, size: 0x8, addend: 0x0, symName: __ZNSt3__16vectorINS_4pairINS_12basic_stringIcNS_11char_traitsIcEENS_9allocatorIcEEEEiEENS5_IS8_EEE3endB8ue170006Ev, symObjAddr: 0x2BA8, symBinAddr: 0x100005D60, symSize: 0x30 }
  - { offsetInCU: 0x37375, offset: 0x37375, size: 0x8, addend: 0x0, symName: __ZNKSt3__16vectorINS_4pairINS_12basic_stringIcNS_11char_traitsIcEENS_9allocatorIcEEEEiEENS5_IS8_EEE4sizeB8ue170006Ev, symObjAddr: 0x2BD8, symBinAddr: 0x100005D90, symSize: 0x28 }
  - { offsetInCU: 0x3739B, offset: 0x3739B, size: 0x8, addend: 0x0, symName: __ZNSt3__16vectorINS_4pairINS_12basic_stringIcNS_11char_traitsIcEENS_9allocatorIcEEEEiEENS5_IS8_EEEixB8ue170006Em, symObjAddr: 0x2C00, symBinAddr: 0x100005DB8, symSize: 0x24 }
  - { offsetInCU: 0x373D2, offset: 0x373D2, size: 0x8, addend: 0x0, symName: __ZNSt3__16vectorINS_4pairINS_12basic_stringIcNS_11char_traitsIcEENS_9allocatorIcEEEEiEENS5_IS8_EEED1B8ue170006Ev, symObjAddr: 0x2C24, symBinAddr: 0x100005DDC, symSize: 0x2C }
  - { offsetInCU: 0x373FC, offset: 0x373FC, size: 0x8, addend: 0x0, symName: __ZNSt3__120__map_const_iteratorINS_21__tree_const_iteratorINS_12__value_typeIiNS_3mapINS_12basic_stringIcNS_11char_traitsIcEENS_9allocatorIcEEEEiNS_4lessIS9_EENS7_INS_4pairIKS9_iEEEEEEEEPNS_11__tree_nodeISH_PvEElEEEppB8ue170006Ev, symObjAddr: 0x2C50, symBinAddr: 0x100005E08, symSize: 0x2C }
  - { offsetInCU: 0x37422, offset: 0x37422, size: 0x8, addend: 0x0, symName: __ZNSt3__13mapIiNS_6vectorINS_12basic_stringIcNS_11char_traitsIcEENS_9allocatorIcEEEENS5_IS7_EEEENS_4lessIiEENS5_INS_4pairIKiS9_EEEEE5beginB8ue170006Ev, symObjAddr: 0x2C7C, symBinAddr: 0x100005E34, symSize: 0x38 }
  - { offsetInCU: 0x37448, offset: 0x37448, size: 0x8, addend: 0x0, symName: __ZNSt3__13mapIiNS_6vectorINS_12basic_stringIcNS_11char_traitsIcEENS_9allocatorIcEEEENS5_IS7_EEEENS_4lessIiEENS5_INS_4pairIKiS9_EEEEE3endB8ue170006Ev, symObjAddr: 0x2CB4, symBinAddr: 0x100005E6C, symSize: 0x38 }
  - { offsetInCU: 0x3746E, offset: 0x3746E, size: 0x8, addend: 0x0, symName: __ZNKSt3__114__map_iteratorINS_15__tree_iteratorINS_12__value_typeIiNS_6vectorINS_12basic_stringIcNS_11char_traitsIcEENS_9allocatorIcEEEENS7_IS9_EEEEEEPNS_11__tree_nodeISC_PvEElEEEdeB8ue170006Ev, symObjAddr: 0x2D1C, symBinAddr: 0x100005ED4, symSize: 0x28 }
  - { offsetInCU: 0x37494, offset: 0x37494, size: 0x8, addend: 0x0, symName: __ZNSt3__16vectorINS_12basic_stringIcNS_11char_traitsIcEENS_9allocatorIcEEEENS4_IS6_EEE5beginB8ue170006Ev, symObjAddr: 0x2D44, symBinAddr: 0x100005EFC, symSize: 0x30 }
  - { offsetInCU: 0x374BC, offset: 0x374BC, size: 0x8, addend: 0x0, symName: __ZNSt3__16vectorINS_12basic_stringIcNS_11char_traitsIcEENS_9allocatorIcEEEENS4_IS6_EEE3endB8ue170006Ev, symObjAddr: 0x2D74, symBinAddr: 0x100005F2C, symSize: 0x30 }
  - { offsetInCU: 0x374E4, offset: 0x374E4, size: 0x8, addend: 0x0, symName: __ZNKSt3__111__wrap_iterIPNS_12basic_stringIcNS_11char_traitsIcEENS_9allocatorIcEEEEEdeB8ue170006Ev, symObjAddr: 0x2DD8, symBinAddr: 0x100005F90, symSize: 0x18 }
  - { offsetInCU: 0x3750A, offset: 0x3750A, size: 0x8, addend: 0x0, symName: __ZNSt3__111__wrap_iterIPNS_12basic_stringIcNS_11char_traitsIcEENS_9allocatorIcEEEEEppB8ue170006Ev, symObjAddr: 0x2DF0, symBinAddr: 0x100005FA8, symSize: 0x20 }
  - { offsetInCU: 0x37530, offset: 0x37530, size: 0x8, addend: 0x0, symName: __ZNSt3__114__map_iteratorINS_15__tree_iteratorINS_12__value_typeIiNS_6vectorINS_12basic_stringIcNS_11char_traitsIcEENS_9allocatorIcEEEENS7_IS9_EEEEEEPNS_11__tree_nodeISC_PvEElEEEppB8ue170006Ev, symObjAddr: 0x2E10, symBinAddr: 0x100005FC8, symSize: 0x2C }
  - { offsetInCU: 0x37555, offset: 0x37555, size: 0x8, addend: 0x0, symName: __Z29groupCustomersByInterestsListRKNSt3__13mapIiNS_6vectorINS_12basic_stringIcNS_11char_traitsIcEENS_9allocatorIcEEEENS5_IS7_EEEENS_4lessIiEENS5_INS_4pairIKiS9_EEEEEEi, symObjAddr: 0x2E3C, symBinAddr: 0x100005FF4, symSize: 0x340 }
  - { offsetInCU: 0x3770E, offset: 0x3770E, size: 0x8, addend: 0x0, symName: __ZNSt3__16vectorINS0_IiNS_9allocatorIiEEEENS1_IS3_EEEC1B8ue170006Ev, symObjAddr: 0x317C, symBinAddr: 0x100006334, symSize: 0x2C }
  - { offsetInCU: 0x37738, offset: 0x37738, size: 0x8, addend: 0x0, symName: __ZNSt3__13mapINS_6vectorINS_12basic_stringIcNS_11char_traitsIcEENS_9allocatorIcEEEENS5_IS7_EEEENS1_IiNS5_IiEEEENS_4lessIS9_EENS5_INS_4pairIKS9_SB_EEEEEC1B8ue170006Ev, symObjAddr: 0x31A8, symBinAddr: 0x100006360, symSize: 0x2C }
  - { offsetInCU: 0x37762, offset: 0x37762, size: 0x8, addend: 0x0, symName: __ZNKSt3__13mapIiNS_6vectorINS_12basic_stringIcNS_11char_traitsIcEENS_9allocatorIcEEEENS5_IS7_EEEENS_4lessIiEENS5_INS_4pairIKiS9_EEEEE5beginB8ue170006Ev, symObjAddr: 0x31D4, symBinAddr: 0x10000638C, symSize: 0x38 }
  - { offsetInCU: 0x37788, offset: 0x37788, size: 0x8, addend: 0x0, symName: __ZNKSt3__120__map_const_iteratorINS_21__tree_const_iteratorINS_12__value_typeIiNS_6vectorINS_12basic_stringIcNS_11char_traitsIcEENS_9allocatorIcEEEENS7_IS9_EEEEEEPNS_11__tree_nodeISC_PvEElEEEdeB8ue170006Ev, symObjAddr: 0x320C, symBinAddr: 0x1000063C4, symSize: 0x28 }
  - { offsetInCU: 0x377AE, offset: 0x377AE, size: 0x8, addend: 0x0, symName: __ZNSt3__16vectorINS_12basic_stringIcNS_11char_traitsIcEENS_9allocatorIcEEEENS4_IS6_EEEC1ERKS8_, symObjAddr: 0x3234, symBinAddr: 0x1000063EC, symSize: 0x34 }
  - { offsetInCU: 0x377E9, offset: 0x377E9, size: 0x8, addend: 0x0, symName: __ZNSt3__13mapINS_6vectorINS_12basic_stringIcNS_11char_traitsIcEENS_9allocatorIcEEEENS5_IS7_EEEENS1_IiNS5_IiEEEENS_4lessIS9_EENS5_INS_4pairIKS9_SB_EEEEEixERSF_, symObjAddr: 0x32A4, symBinAddr: 0x10000645C, symSize: 0x80 }
  - { offsetInCU: 0x37820, offset: 0x37820, size: 0x8, addend: 0x0, symName: __ZNSt3__120__map_const_iteratorINS_21__tree_const_iteratorINS_12__value_typeIiNS_6vectorINS_12basic_stringIcNS_11char_traitsIcEENS_9allocatorIcEEEENS7_IS9_EEEEEEPNS_11__tree_nodeISC_PvEElEEEppB8ue170006Ev, symObjAddr: 0x3324, symBinAddr: 0x1000064DC, symSize: 0x2C }
  - { offsetInCU: 0x37846, offset: 0x37846, size: 0x8, addend: 0x0, symName: __ZNSt3__13mapINS_6vectorINS_12basic_stringIcNS_11char_traitsIcEENS_9allocatorIcEEEENS5_IS7_EEEENS1_IiNS5_IiEEEENS_4lessIS9_EENS5_INS_4pairIKS9_SB_EEEEE5beginB8ue170006Ev, symObjAddr: 0x3350, symBinAddr: 0x100006508, symSize: 0x38 }
  - { offsetInCU: 0x3786C, offset: 0x3786C, size: 0x8, addend: 0x0, symName: __ZNSt3__13mapINS_6vectorINS_12basic_stringIcNS_11char_traitsIcEENS_9allocatorIcEEEENS5_IS7_EEEENS1_IiNS5_IiEEEENS_4lessIS9_EENS5_INS_4pairIKS9_SB_EEEEE3endB8ue170006Ev, symObjAddr: 0x3388, symBinAddr: 0x100006540, symSize: 0x38 }
  - { offsetInCU: 0x37892, offset: 0x37892, size: 0x8, addend: 0x0, symName: __ZNKSt3__114__map_iteratorINS_15__tree_iteratorINS_12__value_typeINS_6vectorINS_12basic_stringIcNS_11char_traitsIcEENS_9allocatorIcEEEENS7_IS9_EEEENS3_IiNS7_IiEEEEEEPNS_11__tree_nodeISE_PvEElEEEdeB8ue170006Ev, symObjAddr: 0x33F0, symBinAddr: 0x1000065A8, symSize: 0x28 }
  - { offsetInCU: 0x378B8, offset: 0x378B8, size: 0x8, addend: 0x0, symName: __ZNSt3__16vectorINS0_IiNS_9allocatorIiEEEENS1_IS3_EEE9push_backB8ue170006ERKS3_, symObjAddr: 0x3418, symBinAddr: 0x1000065D0, symSize: 0x6C }
  - { offsetInCU: 0x378EF, offset: 0x378EF, size: 0x8, addend: 0x0, symName: __ZNSt3__114__map_iteratorINS_15__tree_iteratorINS_12__value_typeINS_6vectorINS_12basic_stringIcNS_11char_traitsIcEENS_9allocatorIcEEEENS7_IS9_EEEENS3_IiNS7_IiEEEEEEPNS_11__tree_nodeISE_PvEElEEEppB8ue170006Ev, symObjAddr: 0x3484, symBinAddr: 0x10000663C, symSize: 0x2C }
  - { offsetInCU: 0x37915, offset: 0x37915, size: 0x8, addend: 0x0, symName: __ZNSt3__16vectorINS0_IiNS_9allocatorIiEEEENS1_IS3_EEE5beginB8ue170006Ev, symObjAddr: 0x34B0, symBinAddr: 0x100006668, symSize: 0x30 }
  - { offsetInCU: 0x3793D, offset: 0x3793D, size: 0x8, addend: 0x0, symName: __ZNSt3__16vectorINS0_IiNS_9allocatorIiEEEENS1_IS3_EEE3endB8ue170006Ev, symObjAddr: 0x34E0, symBinAddr: 0x100006698, symSize: 0x30 }
  - { offsetInCU: 0x37965, offset: 0x37965, size: 0x8, addend: 0x0, symName: __ZNKSt3__111__wrap_iterIPNS_6vectorIiNS_9allocatorIiEEEEEdeB8ue170006Ev, symObjAddr: 0x3544, symBinAddr: 0x1000066FC, symSize: 0x18 }
  - { offsetInCU: 0x3798B, offset: 0x3798B, size: 0x8, addend: 0x0, symName: __ZNSt3__16vectorIiNS_9allocatorIiEEE5beginB8ue170006Ev, symObjAddr: 0x355C, symBinAddr: 0x100006714, symSize: 0x30 }
  - { offsetInCU: 0x379B3, offset: 0x379B3, size: 0x8, addend: 0x0, symName: __ZNSt3__16vectorIiNS_9allocatorIiEEE3endB8ue170006Ev, symObjAddr: 0x358C, symBinAddr: 0x100006744, symSize: 0x30 }
  - { offsetInCU: 0x379DB, offset: 0x379DB, size: 0x8, addend: 0x0, symName: __ZNKSt3__111__wrap_iterIPiEdeB8ue170006Ev, symObjAddr: 0x35F0, symBinAddr: 0x1000067A8, symSize: 0x18 }
  - { offsetInCU: 0x37A01, offset: 0x37A01, size: 0x8, addend: 0x0, symName: __ZNSt3__111__wrap_iterIPiEppB8ue170006Ev, symObjAddr: 0x3608, symBinAddr: 0x1000067C0, symSize: 0x20 }
  - { offsetInCU: 0x37A27, offset: 0x37A27, size: 0x8, addend: 0x0, symName: __ZNSt3__111__wrap_iterIPNS_6vectorIiNS_9allocatorIiEEEEEppB8ue170006Ev, symObjAddr: 0x3628, symBinAddr: 0x1000067E0, symSize: 0x20 }
  - { offsetInCU: 0x37A4D, offset: 0x37A4D, size: 0x8, addend: 0x0, symName: __ZNSt3__13mapINS_6vectorINS_12basic_stringIcNS_11char_traitsIcEENS_9allocatorIcEEEENS5_IS7_EEEENS1_IiNS5_IiEEEENS_4lessIS9_EENS5_INS_4pairIKS9_SB_EEEEED1B8ue170006Ev, symObjAddr: 0x3648, symBinAddr: 0x100006800, symSize: 0x2C }
  - { offsetInCU: 0x37A77, offset: 0x37A77, size: 0x8, addend: 0x0, symName: __ZNSt3__16vectorINS0_IiNS_9allocatorIiEEEENS1_IS3_EEED1B8ue170006Ev, symObjAddr: 0x3674, symBinAddr: 0x10000682C, symSize: 0x2C }
  - { offsetInCU: 0x37AA0, offset: 0x37AA0, size: 0x8, addend: 0x0, symName: __Z24groupCustomersByHashtagsR12fileIteratorS0_S0_iNSt3__112basic_stringIcNS1_11char_traitsIcEENS1_9allocatorIcEEEE, symObjAddr: 0x36A0, symBinAddr: 0x100006858, symSize: 0x40C }
  - { offsetInCU: 0x37BCD, offset: 0x37BCD, size: 0x8, addend: 0x0, symName: __ZNSt3__13mapIiNS_6vectorINS_12basic_stringIcNS_11char_traitsIcEENS_9allocatorIcEEEENS5_IS7_EEEENS_4lessIiEENS5_INS_4pairIKiS9_EEEEEaSB8ue170006EOSG_, symObjAddr: 0x3AAC, symBinAddr: 0x100006C64, symSize: 0x34 }
  - { offsetInCU: 0x37C02, offset: 0x37C02, size: 0x8, addend: 0x0, symName: __ZNKSt3__13mapIiNS_6vectorINS_12basic_stringIcNS_11char_traitsIcEENS_9allocatorIcEEEENS5_IS7_EEEENS_4lessIiEENS5_INS_4pairIKiS9_EEEEE4sizeB8ue170006Ev, symObjAddr: 0x3AE0, symBinAddr: 0x100006C98, symSize: 0x28 }
  - { offsetInCU: 0x37C28, offset: 0x37C28, size: 0x8, addend: 0x0, symName: __ZNSt3__13mapIiNS_6vectorIiNS_9allocatorIiEEEENS_4lessIiEENS2_INS_4pairIKiS4_EEEEEaSB8ue170006EOSB_, symObjAddr: 0x3B08, symBinAddr: 0x100006CC0, symSize: 0x34 }
  - { offsetInCU: 0x37C5D, offset: 0x37C5D, size: 0x8, addend: 0x0, symName: __ZN12fileIterator5resetEv, symObjAddr: 0x3B3C, symBinAddr: 0x100006CF4, symSize: 0x5C }
  - { offsetInCU: 0x37C83, offset: 0x37C83, size: 0x8, addend: 0x0, symName: __ZNSt3__13mapIiNS0_INS_12basic_stringIcNS_11char_traitsIcEENS_9allocatorIcEEEEiNS_4lessIS6_EENS4_INS_4pairIKS6_iEEEEEENS7_IiEENS4_INS9_IKiSD_EEEEEaSB8ue170006EOSI_, symObjAddr: 0x3B98, symBinAddr: 0x100006D50, symSize: 0x34 }
  - { offsetInCU: 0x37CB8, offset: 0x37CB8, size: 0x8, addend: 0x0, symName: __ZNSt3__16vectorINS0_IiNS_9allocatorIiEEEENS1_IS3_EEEaSB8ue170006EOS5_, symObjAddr: 0x3BCC, symBinAddr: 0x100006D84, symSize: 0x34 }
  - { offsetInCU: 0x37CEF, offset: 0x37CEF, size: 0x8, addend: 0x0, symName: __ZNSt3__16vectorIiNS_9allocatorIiEEEC1ERKS3_, symObjAddr: 0x3C00, symBinAddr: 0x100006DB8, symSize: 0x34 }
  - { offsetInCU: 0x37D29, offset: 0x37D29, size: 0x8, addend: 0x0, symName: __Z11getPriceMapR12fileIterator, symObjAddr: 0x3C34, symBinAddr: 0x100006DEC, symSize: 0x234 }
  - { offsetInCU: 0x37DAD, offset: 0x37DAD, size: 0x8, addend: 0x0, symName: __ZNSt3__13mapIiiNS_4lessIiEENS_9allocatorINS_4pairIKiiEEEEEC1B8ue170006Ev, symObjAddr: 0x3E68, symBinAddr: 0x100007020, symSize: 0x2C }
  - { offsetInCU: 0x37DD7, offset: 0x37DD7, size: 0x8, addend: 0x0, symName: __ZNSt3__13mapIiiNS_4lessIiEENS_9allocatorINS_4pairIKiiEEEEEixERS5_, symObjAddr: 0x3E94, symBinAddr: 0x10000704C, symSize: 0x80 }
  - { offsetInCU: 0x37E0E, offset: 0x37E0E, size: 0x8, addend: 0x0, symName: __ZNSt3__13mapIiiNS_4lessIiEENS_9allocatorINS_4pairIKiiEEEEED1B8ue170006Ev, symObjAddr: 0x3F14, symBinAddr: 0x1000070CC, symSize: 0x2C }
  - { offsetInCU: 0x37E37, offset: 0x37E37, size: 0x8, addend: 0x0, symName: __Z28calculateGroupAverageExpenseNSt3__16vectorIiNS_9allocatorIiEEEER12fileIteratorS5_, symObjAddr: 0x3F40, symBinAddr: 0x1000070F8, symSize: 0x478 }
  - { offsetInCU: 0x37FB6, offset: 0x37FB6, size: 0x8, addend: 0x0, symName: __ZNSt3__13mapIiiNS_4lessIiEENS_9allocatorINS_4pairIKiiEEEEEaSB8ue170006EOS8_, symObjAddr: 0x43B8, symBinAddr: 0x100007570, symSize: 0x34 }
  - { offsetInCU: 0x37FEA, offset: 0x37FEA, size: 0x8, addend: 0x0, symName: __Z41groupCustomersByHashtagsForDynamicInsertsR12fileIteratorS0_S0_NSt3__16vectorINS1_12basic_stringIcNS1_11char_traitsIcEENS1_9allocatorIcEEEENS6_IS8_EEEEiS8_, symObjAddr: 0x43EC, symBinAddr: 0x1000075A4, symSize: 0x16C }
  - { offsetInCU: 0x3809F, offset: 0x3809F, size: 0x8, addend: 0x0, symName: __Z9question1NSt3__112basic_stringIcNS_11char_traitsIcEENS_9allocatorIcEEEES5_S5_iS5_, symObjAddr: 0x4558, symBinAddr: 0x100007710, symSize: 0x378 }
  - { offsetInCU: 0x38172, offset: 0x38172, size: 0x8, addend: 0x0, symName: __ZN12fileIteratorC1ENSt3__112basic_stringIcNS0_11char_traitsIcEENS0_9allocatorIcEEEE, symObjAddr: 0x48D0, symBinAddr: 0x100007A88, symSize: 0x34 }
  - { offsetInCU: 0x381AB, offset: 0x381AB, size: 0x8, addend: 0x0, symName: __ZN12fileIteratorD1Ev, symObjAddr: 0x4904, symBinAddr: 0x100007ABC, symSize: 0x2C }
  - { offsetInCU: 0x381D4, offset: 0x381D4, size: 0x8, addend: 0x0, symName: __Z9question2NSt3__112basic_stringIcNS_11char_traitsIcEENS_9allocatorIcEEEES5_S5_S5_, symObjAddr: 0x4930, symBinAddr: 0x100007AE8, symSize: 0x3BC }
  - { offsetInCU: 0x382BC, offset: 0x382BC, size: 0x8, addend: 0x0, symName: __ZNSt3__111char_traitsIcE3eofB8ue170006Ev, symObjAddr: 0x4CEC, symBinAddr: 0x100007EA4, symSize: 0x8 }
  - { offsetInCU: 0x382CF, offset: 0x382CF, size: 0x8, addend: 0x0, symName: __Z12processBatchR12fileIteratorS0_S0_RNSt3__16vectorINS1_12basic_stringIcNS1_11char_traitsIcEENS1_9allocatorIcEEEENS6_IS8_EEEERiiS8_, symObjAddr: 0x4CF4, symBinAddr: 0x100007EAC, symSize: 0x1E0 }
  - { offsetInCU: 0x3835D, offset: 0x3835D, size: 0x8, addend: 0x0, symName: __ZNSt3__16vectorINS_12basic_stringIcNS_11char_traitsIcEENS_9allocatorIcEEEENS4_IS6_EEE5clearB8ue170006Ev, symObjAddr: 0x5070, symBinAddr: 0x100008228, symSize: 0x44 }
  - { offsetInCU: 0x38391, offset: 0x38391, size: 0x8, addend: 0x0, symName: __Z9question3NSt3__112basic_stringIcNS_11char_traitsIcEENS_9allocatorIcEEEES5_S5_S5_iS5_, symObjAddr: 0x50B4, symBinAddr: 0x10000826C, symSize: 0x628 }
  - { offsetInCU: 0x384BF, offset: 0x384BF, size: 0x8, addend: 0x0, symName: __ZNSt3__16vectorINS_12basic_stringIcNS_11char_traitsIcEENS_9allocatorIcEEEENS4_IS6_EEE9push_backB8ue170006EOS6_, symObjAddr: 0x56DC, symBinAddr: 0x100008894, symSize: 0x6C }
  - { offsetInCU: 0x384F6, offset: 0x384F6, size: 0x8, addend: 0x0, symName: __ZNKSt3__16vectorINS_12basic_stringIcNS_11char_traitsIcEENS_9allocatorIcEEEENS4_IS6_EEE5emptyB8ue170006Ev, symObjAddr: 0x5748, symBinAddr: 0x100008900, symSize: 0x28 }
  - { offsetInCU: 0x3851C, offset: 0x3851C, size: 0x8, addend: 0x0, symName: _main, symObjAddr: 0x5770, symBinAddr: 0x100008928, symSize: 0x204 }
  - { offsetInCU: 0x385A3, offset: 0x385A3, size: 0x8, addend: 0x0, symName: __ZNSt3__112basic_stringIcNS_11char_traitsIcEENS_9allocatorIcEEEC1B8ue170006ILi0EEEPKc, symObjAddr: 0x5974, symBinAddr: 0x100008B2C, symSize: 0x34 }
  - { offsetInCU: 0x385E2, offset: 0x385E2, size: 0x8, addend: 0x0, symName: __ZNKSt3__16vectorIiNS_9allocatorIiEEE11__make_iterB8ue170006EPKi, symObjAddr: 0x59A8, symBinAddr: 0x100008B60, symSize: 0x30 }
  - { offsetInCU: 0x38617, offset: 0x38617, size: 0x8, addend: 0x0, symName: __ZNSt3__111__wrap_iterIPKiEC1B8ue170006ES2_, symObjAddr: 0x59D8, symBinAddr: 0x100008B90, symSize: 0x34 }
  - { offsetInCU: 0x3864F, offset: 0x3864F, size: 0x8, addend: 0x0, symName: __ZNSt3__111__wrap_iterIPKiEC2B8ue170006ES2_, symObjAddr: 0x5A0C, symBinAddr: 0x100008BC4, symSize: 0x20 }
  - { offsetInCU: 0x38687, offset: 0x38687, size: 0x8, addend: 0x0, symName: __ZNKSt3__111__wrap_iterIPKiE4baseB8ue170006Ev, symObjAddr: 0x5A74, symBinAddr: 0x100008C2C, symSize: 0x18 }
  - { offsetInCU: 0x386AD, offset: 0x386AD, size: 0x8, addend: 0x0, symName: __ZNKSt3__16chrono8durationIxNS_5ratioILl1ELl1000000000EEEE5countB8ue170006Ev, symObjAddr: 0x5AD4, symBinAddr: 0x100008C8C, symSize: 0x18 }
  - { offsetInCU: 0x386E4, offset: 0x386E4, size: 0x8, addend: 0x0, symName: __ZNSt3__16chrono8durationIxNS_5ratioILl1ELl1000000EEEEC1B8ue170006IxEERKT_PNS_9enable_ifIXaasr14is_convertibleIS8_xEE5valueooL_ZNS_17integral_constantIbLb0EE5valueEEntsr23treat_as_floating_pointIS6_EE5valueEvE4typeE, symObjAddr: 0x5AEC, symBinAddr: 0x100008CA4, symSize: 0x3C }
  - { offsetInCU: 0x38731, offset: 0x38731, size: 0x8, addend: 0x0, symName: __ZNSt3__16chrono8durationIxNS_5ratioILl1ELl1000000EEEEC2B8ue170006IxEERKT_PNS_9enable_ifIXaasr14is_convertibleIS8_xEE5valueooL_ZNS_17integral_constantIbLb0EE5valueEEntsr23treat_as_floating_pointIS6_EE5valueEvE4typeE, symObjAddr: 0x5B28, symBinAddr: 0x100008CE0, symSize: 0x28 }
  - { offsetInCU: 0x387A0, offset: 0x387A0, size: 0x8, addend: 0x0, symName: __ZNKSt3__16chrono10time_pointINS0_12steady_clockENS0_8durationIxNS_5ratioILl1ELl1000000000EEEEEE16time_since_epochB8ue170006Ev, symObjAddr: 0x5BC0, symBinAddr: 0x100008D78, symSize: 0x20 }
  - { offsetInCU: 0x387C6, offset: 0x387C6, size: 0x8, addend: 0x0, symName: __ZNSt3__16chrono8durationIxNS_5ratioILl1ELl1000000000EEEEC1B8ue170006IxEERKT_PNS_9enable_ifIXaasr14is_convertibleIS8_xEE5valueooL_ZNS_17integral_constantIbLb0EE5valueEEntsr23treat_as_floating_pointIS6_EE5valueEvE4typeE, symObjAddr: 0x5BE0, symBinAddr: 0x100008D98, symSize: 0x3C }
  - { offsetInCU: 0x38813, offset: 0x38813, size: 0x8, addend: 0x0, symName: __ZNSt3__16chrono8durationIxNS_5ratioILl1ELl1000000000EEEEC2B8ue170006IxEERKT_PNS_9enable_ifIXaasr14is_convertibleIS8_xEE5valueooL_ZNS_17integral_constantIbLb0EE5valueEEntsr23treat_as_floating_pointIS6_EE5valueEvE4typeE, symObjAddr: 0x5C1C, symBinAddr: 0x100008DD4, symSize: 0x28 }
  - { offsetInCU: 0x38860, offset: 0x38860, size: 0x8, addend: 0x0, symName: __ZNSt3__114basic_ofstreamIcNS_11char_traitsIcEEED2Ev, symObjAddr: 0x5C44, symBinAddr: 0x100008DFC, symSize: 0x64 }
  - { offsetInCU: 0x3889A, offset: 0x3889A, size: 0x8, addend: 0x0, symName: __ZTv0_n24_NSt3__114basic_ofstreamIcNS_11char_traitsIcEEED1Ev, symObjAddr: 0x5CA8, symBinAddr: 0x100008E60, symSize: 0x28 }
  - { offsetInCU: 0x388B1, offset: 0x388B1, size: 0x8, addend: 0x0, symName: __ZNSt3__112basic_stringIcNS_11char_traitsIcEENS_9allocatorIcEEEC2B8ue170006Ev, symObjAddr: 0x5CD0, symBinAddr: 0x100008E88, symSize: 0x48 }
  - { offsetInCU: 0x388E1, offset: 0x388E1, size: 0x8, addend: 0x0, symName: __ZNSt3__117__compressed_pairINS_12basic_stringIcNS_11char_traitsIcEENS_9allocatorIcEEE5__repES5_EC1B8ue170006INS_18__default_init_tagESA_EEOT_OT0_, symObjAddr: 0x5D18, symBinAddr: 0x100008ED0, symSize: 0x3C }
  - { offsetInCU: 0x38939, offset: 0x38939, size: 0x8, addend: 0x0, symName: __ZNSt3__112basic_stringIcNS_11char_traitsIcEENS_9allocatorIcEEE14__default_initB8ue170006Ev, symObjAddr: 0x5D60, symBinAddr: 0x100008F18, symSize: 0x40 }
  - { offsetInCU: 0x3895F, offset: 0x3895F, size: 0x8, addend: 0x0, symName: __ZNSt3__117__compressed_pairINS_12basic_stringIcNS_11char_traitsIcEENS_9allocatorIcEEE5__repES5_EC2B8ue170006INS_18__default_init_tagESA_EEOT_OT0_, symObjAddr: 0x5DA0, symBinAddr: 0x100008F58, symSize: 0x3C }
  - { offsetInCU: 0x389B7, offset: 0x389B7, size: 0x8, addend: 0x0, symName: __ZNSt3__122__compressed_pair_elemINS_12basic_stringIcNS_11char_traitsIcEENS_9allocatorIcEEE5__repELi0ELb0EEC2B8ue170006ENS_18__default_init_tagE, symObjAddr: 0x5DDC, symBinAddr: 0x100008F94, symSize: 0x14 }
  - { offsetInCU: 0x389EC, offset: 0x389EC, size: 0x8, addend: 0x0, symName: __ZNSt3__122__compressed_pair_elemINS_9allocatorIcEELi1ELb1EEC2B8ue170006ENS_18__default_init_tagE, symObjAddr: 0x5DF0, symBinAddr: 0x100008FA8, symSize: 0x2C }
  - { offsetInCU: 0x38A21, offset: 0x38A21, size: 0x8, addend: 0x0, symName: __ZNSt3__19allocatorIcEC2B8ue170006Ev, symObjAddr: 0x5E1C, symBinAddr: 0x100008FD4, symSize: 0x2C }
  - { offsetInCU: 0x38A4B, offset: 0x38A4B, size: 0x8, addend: 0x0, symName: __ZNSt3__116__non_trivial_ifILb1ENS_9allocatorIcEEEC2B8ue170006Ev, symObjAddr: 0x5E48, symBinAddr: 0x100009000, symSize: 0x14 }
  - { offsetInCU: 0x38A75, offset: 0x38A75, size: 0x8, addend: 0x0, symName: __ZNSt3__117__compressed_pairINS_12basic_stringIcNS_11char_traitsIcEENS_9allocatorIcEEE5__repES5_E5firstB8ue170006Ev, symObjAddr: 0x5E5C, symBinAddr: 0x100009014, symSize: 0x24 }
  - { offsetInCU: 0x38A9B, offset: 0x38A9B, size: 0x8, addend: 0x0, symName: __ZNSt3__122__compressed_pair_elemINS_12basic_stringIcNS_11char_traitsIcEENS_9allocatorIcEEE5__repELi0ELb0EE5__getB8ue170006Ev, symObjAddr: 0x5E80, symBinAddr: 0x100009038, symSize: 0x14 }
  - { offsetInCU: 0x38AC1, offset: 0x38AC1, size: 0x8, addend: 0x0, symName: __ZNKSt3__19basic_iosIcNS_11char_traitsIcEEE3eofB8ue170006Ev, symObjAddr: 0x5E94, symBinAddr: 0x10000904C, symSize: 0x28 }
  - { offsetInCU: 0x38AE7, offset: 0x38AE7, size: 0x8, addend: 0x0, symName: __ZNKSt3__18ios_base3eofB8ue170006Ev, symObjAddr: 0x5EBC, symBinAddr: 0x100009074, symSize: 0x24 }
  - { offsetInCU: 0x38B0F, offset: 0x38B0F, size: 0x8, addend: 0x0, symName: __ZNKSt3__19basic_iosIcNS_11char_traitsIcEEE5widenB8ue170006Ec, symObjAddr: 0x5F3C, symBinAddr: 0x1000090F4, symSize: 0x84 }
  - { offsetInCU: 0x38B7F, offset: 0x38B7F, size: 0x8, addend: 0x0, symName: __ZNKSt3__15ctypeIcE5widenB8ue170006Ec, symObjAddr: 0x5FEC, symBinAddr: 0x1000091A4, symSize: 0x38 }
  - { offsetInCU: 0x38BB4, offset: 0x38BB4, size: 0x8, addend: 0x0, symName: __ZNSt3__112basic_stringIcNS_11char_traitsIcEENS_9allocatorIcEEE13__move_assignB8ue170006ERS5_NS_17integral_constantIbLb1EEE, symObjAddr: 0x6024, symBinAddr: 0x1000091DC, symSize: 0xC8 }
  - { offsetInCU: 0x38BF7, offset: 0x38BF7, size: 0x8, addend: 0x0, symName: __ZNKSt3__112basic_stringIcNS_11char_traitsIcEENS_9allocatorIcEEE9__is_longB8ue170006Ev, symObjAddr: 0x60EC, symBinAddr: 0x1000092A4, symSize: 0x38 }
  - { offsetInCU: 0x38C1D, offset: 0x38C1D, size: 0x8, addend: 0x0, symName: __ZNSt3__116allocator_traitsINS_9allocatorIcEEE10deallocateB8ue170006ERS2_Pcm, symObjAddr: 0x6124, symBinAddr: 0x1000092DC, symSize: 0x34 }
  - { offsetInCU: 0x38C5F, offset: 0x38C5F, size: 0x8, addend: 0x0, symName: __ZNSt3__112basic_stringIcNS_11char_traitsIcEENS_9allocatorIcEEE7__allocB8ue170006Ev, symObjAddr: 0x6158, symBinAddr: 0x100009310, symSize: 0x24 }
  - { offsetInCU: 0x38C85, offset: 0x38C85, size: 0x8, addend: 0x0, symName: __ZNSt3__112basic_stringIcNS_11char_traitsIcEENS_9allocatorIcEEE18__get_long_pointerB8ue170006Ev, symObjAddr: 0x617C, symBinAddr: 0x100009334, symSize: 0x28 }
  - { offsetInCU: 0x38CAB, offset: 0x38CAB, size: 0x8, addend: 0x0, symName: __ZNKSt3__112basic_stringIcNS_11char_traitsIcEENS_9allocatorIcEEE14__get_long_capB8ue170006Ev, symObjAddr: 0x61A4, symBinAddr: 0x10000935C, symSize: 0x30 }
  - { offsetInCU: 0x38CD1, offset: 0x38CD1, size: 0x8, addend: 0x0, symName: __ZNSt3__112basic_stringIcNS_11char_traitsIcEENS_9allocatorIcEEE19__move_assign_allocB8ue170006ERS5_, symObjAddr: 0x61D4, symBinAddr: 0x10000938C, symSize: 0x2C }
  - { offsetInCU: 0x38D06, offset: 0x38D06, size: 0x8, addend: 0x0, symName: __ZNSt3__112basic_stringIcNS_11char_traitsIcEENS_9allocatorIcEEE16__set_short_sizeB8ue170006Em, symObjAddr: 0x6200, symBinAddr: 0x1000093B8, symSize: 0x78 }
  - { offsetInCU: 0x38D3B, offset: 0x38D3B, size: 0x8, addend: 0x0, symName: __ZNSt3__111char_traitsIcE6assignB8ue170006ERcRKc, symObjAddr: 0x6278, symBinAddr: 0x100009430, symSize: 0x24 }
  - { offsetInCU: 0x38D6C, offset: 0x38D6C, size: 0x8, addend: 0x0, symName: __ZNSt3__112basic_stringIcNS_11char_traitsIcEENS_9allocatorIcEEE19__get_short_pointerB8ue170006Ev, symObjAddr: 0x629C, symBinAddr: 0x100009454, symSize: 0x28 }
  - { offsetInCU: 0x38D92, offset: 0x38D92, size: 0x8, addend: 0x0, symName: __ZNKSt3__117__compressed_pairINS_12basic_stringIcNS_11char_traitsIcEENS_9allocatorIcEEE5__repES5_E5firstB8ue170006Ev, symObjAddr: 0x62C4, symBinAddr: 0x10000947C, symSize: 0x24 }
  - { offsetInCU: 0x38DB8, offset: 0x38DB8, size: 0x8, addend: 0x0, symName: __ZNKSt3__122__compressed_pair_elemINS_12basic_stringIcNS_11char_traitsIcEENS_9allocatorIcEEE5__repELi0ELb0EE5__getB8ue170006Ev, symObjAddr: 0x62E8, symBinAddr: 0x1000094A0, symSize: 0x14 }
  - { offsetInCU: 0x38DDE, offset: 0x38DDE, size: 0x8, addend: 0x0, symName: __ZNSt3__19allocatorIcE10deallocateB8ue170006EPcm, symObjAddr: 0x62FC, symBinAddr: 0x1000094B4, symSize: 0x40 }
  - { offsetInCU: 0x38E20, offset: 0x38E20, size: 0x8, addend: 0x0, symName: __ZNSt3__117__compressed_pairINS_12basic_stringIcNS_11char_traitsIcEENS_9allocatorIcEEE5__repES5_E6secondB8ue170006Ev, symObjAddr: 0x6464, symBinAddr: 0x10000961C, symSize: 0x24 }
  - { offsetInCU: 0x38E46, offset: 0x38E46, size: 0x8, addend: 0x0, symName: __ZNSt3__122__compressed_pair_elemINS_9allocatorIcEELi1ELb1EE5__getB8ue170006Ev, symObjAddr: 0x6488, symBinAddr: 0x100009640, symSize: 0x14 }
  - { offsetInCU: 0x38E6C, offset: 0x38E6C, size: 0x8, addend: 0x0, symName: __ZNSt3__112basic_stringIcNS_11char_traitsIcEENS_9allocatorIcEEE19__move_assign_allocB8ue170006ERS5_NS_17integral_constantIbLb1EEE, symObjAddr: 0x649C, symBinAddr: 0x100009654, symSize: 0x38 }
  - { offsetInCU: 0x38EAD, offset: 0x38EAD, size: 0x8, addend: 0x0, symName: __ZNSt3__114pointer_traitsIPcE10pointer_toB8ue170006ERc, symObjAddr: 0x64D4, symBinAddr: 0x10000968C, symSize: 0x14 }
  - { offsetInCU: 0x38ED0, offset: 0x38ED0, size: 0x8, addend: 0x0, symName: __ZNSt3__16vectorINS_12basic_stringIcNS_11char_traitsIcEENS_9allocatorIcEEEENS4_IS6_EEEC2B8ue170006Ev, symObjAddr: 0x64E8, symBinAddr: 0x1000096A0, symSize: 0x4C }
  - { offsetInCU: 0x38F00, offset: 0x38F00, size: 0x8, addend: 0x0, symName: __ZNSt3__117__compressed_pairIPNS_12basic_stringIcNS_11char_traitsIcEENS_9allocatorIcEEEENS4_IS6_EEEC1B8ue170006IDnNS_18__default_init_tagEEEOT_OT0_, symObjAddr: 0x6534, symBinAddr: 0x1000096EC, symSize: 0x3C }
  - { offsetInCU: 0x38F58, offset: 0x38F58, size: 0x8, addend: 0x0, symName: __ZNSt3__117__compressed_pairIPNS_12basic_stringIcNS_11char_traitsIcEENS_9allocatorIcEEEENS4_IS6_EEEC2B8ue170006IDnNS_18__default_init_tagEEEOT_OT0_, symObjAddr: 0x6570, symBinAddr: 0x100009728, symSize: 0x40 }
  - { offsetInCU: 0x38FB0, offset: 0x38FB0, size: 0x8, addend: 0x0, symName: __ZNSt3__122__compressed_pair_elemIPNS_12basic_stringIcNS_11char_traitsIcEENS_9allocatorIcEEEELi0ELb0EEC2B8ue170006IDnvEEOT_, symObjAddr: 0x65B0, symBinAddr: 0x100009768, symSize: 0x1C }
  - { offsetInCU: 0x38FF2, offset: 0x38FF2, size: 0x8, addend: 0x0, symName: __ZNSt3__122__compressed_pair_elemINS_9allocatorINS_12basic_stringIcNS_11char_traitsIcEENS1_IcEEEEEELi1ELb1EEC2B8ue170006ENS_18__default_init_tagE, symObjAddr: 0x65CC, symBinAddr: 0x100009784, symSize: 0x2C }
  - { offsetInCU: 0x39027, offset: 0x39027, size: 0x8, addend: 0x0, symName: __ZNSt3__19allocatorINS_12basic_stringIcNS_11char_traitsIcEENS0_IcEEEEEC2B8ue170006Ev, symObjAddr: 0x65F8, symBinAddr: 0x1000097B0, symSize: 0x2C }
  - { offsetInCU: 0x39051, offset: 0x39051, size: 0x8, addend: 0x0, symName: __ZNSt3__116__non_trivial_ifILb1ENS_9allocatorINS_12basic_stringIcNS_11char_traitsIcEENS1_IcEEEEEEEC2B8ue170006Ev, symObjAddr: 0x6624, symBinAddr: 0x1000097DC, symSize: 0x14 }
  - { offsetInCU: 0x3907B, offset: 0x3907B, size: 0x8, addend: 0x0, symName: __ZNSt3__16vectorINS_12basic_stringIcNS_11char_traitsIcEENS_9allocatorIcEEEENS4_IS6_EEE9__end_capB8ue170006Ev, symObjAddr: 0x6638, symBinAddr: 0x1000097F0, symSize: 0x28 }
  - { offsetInCU: 0x390A1, offset: 0x390A1, size: 0x8, addend: 0x0, symName: __ZNSt3__16vectorINS_12basic_stringIcNS_11char_traitsIcEENS_9allocatorIcEEEENS4_IS6_EEE22__construct_one_at_endB8ue170006IJRKS6_EEEvDpOT_, symObjAddr: 0x6660, symBinAddr: 0x100009818, symSize: 0x90 }
  - { offsetInCU: 0x390F0, offset: 0x390F0, size: 0x8, addend: 0x0, symName: __ZNSt3__16vectorINS_12basic_stringIcNS_11char_traitsIcEENS_9allocatorIcEEEENS4_IS6_EEE21__push_back_slow_pathIRKS6_EEvOT_, symObjAddr: 0x66F0, symBinAddr: 0x1000098A8, symSize: 0xD8 }
  - { offsetInCU: 0x3914E, offset: 0x3914E, size: 0x8, addend: 0x0, symName: __ZNSt3__117__compressed_pairIPNS_12basic_stringIcNS_11char_traitsIcEENS_9allocatorIcEEEENS4_IS6_EEE5firstB8ue170006Ev, symObjAddr: 0x67C8, symBinAddr: 0x100009980, symSize: 0x24 }
  - { offsetInCU: 0x39174, offset: 0x39174, size: 0x8, addend: 0x0, symName: __ZNSt3__122__compressed_pair_elemIPNS_12basic_stringIcNS_11char_traitsIcEENS_9allocatorIcEEEELi0ELb0EE5__getB8ue170006Ev, symObjAddr: 0x67EC, symBinAddr: 0x1000099A4, symSize: 0x14 }
  - { offsetInCU: 0x391B6, offset: 0x391B6, size: 0x8, addend: 0x0, symName: __ZNSt3__16vectorINS_12basic_stringIcNS_11char_traitsIcEENS_9allocatorIcEEEENS4_IS6_EEE21_ConstructTransactionC1B8ue170006ERS8_m, symObjAddr: 0x6800, symBinAddr: 0x1000099B8, symSize: 0x3C }
  - { offsetInCU: 0x391FE, offset: 0x391FE, size: 0x8, addend: 0x0, symName: __ZNSt3__116allocator_traitsINS_9allocatorINS_12basic_stringIcNS_11char_traitsIcEENS1_IcEEEEEEE9constructB8ue170006IS6_JRKS6_EvvEEvRS7_PT_DpOT0_, symObjAddr: 0x683C, symBinAddr: 0x1000099F4, symSize: 0x30 }
  - { offsetInCU: 0x39253, offset: 0x39253, size: 0x8, addend: 0x0, symName: __ZNSt3__16vectorINS_12basic_stringIcNS_11char_traitsIcEENS_9allocatorIcEEEENS4_IS6_EEE7__allocB8ue170006Ev, symObjAddr: 0x686C, symBinAddr: 0x100009A24, symSize: 0x28 }
  - { offsetInCU: 0x39279, offset: 0x39279, size: 0x8, addend: 0x0, symName: __ZNSt3__16vectorINS_12basic_stringIcNS_11char_traitsIcEENS_9allocatorIcEEEENS4_IS6_EEE21_ConstructTransactionD1B8ue170006Ev, symObjAddr: 0x68A8, symBinAddr: 0x100009A60, symSize: 0x2C }
  - { offsetInCU: 0x392A3, offset: 0x392A3, size: 0x8, addend: 0x0, symName: __ZNSt3__16vectorINS_12basic_stringIcNS_11char_traitsIcEENS_9allocatorIcEEEENS4_IS6_EEE21_ConstructTransactionC2B8ue170006ERS8_m, symObjAddr: 0x68D4, symBinAddr: 0x100009A8C, symSize: 0x4C }
  - { offsetInCU: 0x392EB, offset: 0x392EB, size: 0x8, addend: 0x0, symName: __ZNSt3__117__compressed_pairIPNS_12basic_stringIcNS_11char_traitsIcEENS_9allocatorIcEEEENS4_IS6_EEE6secondB8ue170006Ev, symObjAddr: 0x695C, symBinAddr: 0x100009B14, symSize: 0x24 }
  - { offsetInCU: 0x39311, offset: 0x39311, size: 0x8, addend: 0x0, symName: __ZNSt3__122__compressed_pair_elemINS_9allocatorINS_12basic_stringIcNS_11char_traitsIcEENS1_IcEEEEEELi1ELb1EE5__getB8ue170006Ev, symObjAddr: 0x6980, symBinAddr: 0x100009B38, symSize: 0x14 }
  - { offsetInCU: 0x39337, offset: 0x39337, size: 0x8, addend: 0x0, symName: __ZNSt3__16vectorINS_12basic_stringIcNS_11char_traitsIcEENS_9allocatorIcEEEENS4_IS6_EEE21_ConstructTransactionD2B8ue170006Ev, symObjAddr: 0x6994, symBinAddr: 0x100009B4C, symSize: 0x20 }
  - { offsetInCU: 0x39361, offset: 0x39361, size: 0x8, addend: 0x0, symName: __ZNKSt3__16vectorINS_12basic_stringIcNS_11char_traitsIcEENS_9allocatorIcEEEENS4_IS6_EEE11__recommendB8ue170006Em, symObjAddr: 0x69B4, symBinAddr: 0x100009B6C, symSize: 0xB4 }
  - { offsetInCU: 0x393B6, offset: 0x393B6, size: 0x8, addend: 0x0, symName: __ZNSt3__114__split_bufferINS_12basic_stringIcNS_11char_traitsIcEENS_9allocatorIcEEEERNS4_IS6_EEEC1EmmS8_, symObjAddr: 0x6A68, symBinAddr: 0x100009C20, symSize: 0x44 }
  - { offsetInCU: 0x3940C, offset: 0x3940C, size: 0x8, addend: 0x0, symName: __ZNSt3__114__split_bufferINS_12basic_stringIcNS_11char_traitsIcEENS_9allocatorIcEEEERNS4_IS6_EEED1Ev, symObjAddr: 0x6BBC, symBinAddr: 0x100009D74, symSize: 0x2C }
  - { offsetInCU: 0x39438, offset: 0x39438, size: 0x8, addend: 0x0, symName: __ZNKSt3__16vectorINS_12basic_stringIcNS_11char_traitsIcEENS_9allocatorIcEEEENS4_IS6_EEE8max_sizeEv, symObjAddr: 0x6BE8, symBinAddr: 0x100009DA0, symSize: 0x60 }
  - { offsetInCU: 0x39460, offset: 0x39460, size: 0x8, addend: 0x0, symName: __ZNKSt3__16vectorINS_12basic_stringIcNS_11char_traitsIcEENS_9allocatorIcEEEENS4_IS6_EEE20__throw_length_errorB8ue170006Ev, symObjAddr: 0x6C48, symBinAddr: 0x100009E00, symSize: 0x1C }
  - { offsetInCU: 0x39486, offset: 0x39486, size: 0x8, addend: 0x0, symName: __ZNKSt3__16vectorINS_12basic_stringIcNS_11char_traitsIcEENS_9allocatorIcEEEENS4_IS6_EEE8capacityB8ue170006Ev, symObjAddr: 0x6C64, symBinAddr: 0x100009E1C, symSize: 0x40 }
  - { offsetInCU: 0x394B7, offset: 0x394B7, size: 0x8, addend: 0x0, symName: __ZNSt3__116allocator_traitsINS_9allocatorINS_12basic_stringIcNS_11char_traitsIcEENS1_IcEEEEEEE8max_sizeB8ue170006IS7_vvEEmRKS7_, symObjAddr: 0x6CFC, symBinAddr: 0x100009EB4, symSize: 0x28 }
  - { offsetInCU: 0x394E3, offset: 0x394E3, size: 0x8, addend: 0x0, symName: __ZNKSt3__16vectorINS_12basic_stringIcNS_11char_traitsIcEENS_9allocatorIcEEEENS4_IS6_EEE7__allocB8ue170006Ev, symObjAddr: 0x6D24, symBinAddr: 0x100009EDC, symSize: 0x28 }
  - { offsetInCU: 0x39509, offset: 0x39509, size: 0x8, addend: 0x0, symName: __ZNSt3__114numeric_limitsIlE3maxB8ue170006Ev, symObjAddr: 0x6D4C, symBinAddr: 0x100009F04, symSize: 0x14 }
  - { offsetInCU: 0x39528, offset: 0x39528, size: 0x8, addend: 0x0, symName: __ZNKSt3__16__lessIvvEclB8ue170006ImmEEbRKT_RKT0_, symObjAddr: 0x6DB4, symBinAddr: 0x100009F6C, symSize: 0x34 }
  - { offsetInCU: 0x3957C, offset: 0x3957C, size: 0x8, addend: 0x0, symName: __ZNSt3__114numeric_limitsImE3maxB8ue170006Ev, symObjAddr: 0x6DE8, symBinAddr: 0x100009FA0, symSize: 0x14 }
  - { offsetInCU: 0x39590, offset: 0x39590, size: 0x8, addend: 0x0, symName: __ZNSt3__123__libcpp_numeric_limitsImLb1EE3maxB8ue170006Ev, symObjAddr: 0x6DFC, symBinAddr: 0x100009FB4, symSize: 0x8 }
  - { offsetInCU: 0x395A4, offset: 0x395A4, size: 0x8, addend: 0x0, symName: __ZNKSt3__117__compressed_pairIPNS_12basic_stringIcNS_11char_traitsIcEENS_9allocatorIcEEEENS4_IS6_EEE6secondB8ue170006Ev, symObjAddr: 0x6E04, symBinAddr: 0x100009FBC, symSize: 0x24 }
  - { offsetInCU: 0x395CA, offset: 0x395CA, size: 0x8, addend: 0x0, symName: __ZNKSt3__122__compressed_pair_elemINS_9allocatorINS_12basic_stringIcNS_11char_traitsIcEENS1_IcEEEEEELi1ELb1EE5__getB8ue170006Ev, symObjAddr: 0x6E28, symBinAddr: 0x100009FE0, symSize: 0x14 }
  - { offsetInCU: 0x395F0, offset: 0x395F0, size: 0x8, addend: 0x0, symName: __ZNSt3__123__libcpp_numeric_limitsIlLb1EE3maxB8ue170006Ev, symObjAddr: 0x6E3C, symBinAddr: 0x100009FF4, symSize: 0x8 }
  - { offsetInCU: 0x39604, offset: 0x39604, size: 0x8, addend: 0x0, symName: __ZNSt12length_errorC1B8ue170006EPKc, symObjAddr: 0x6EA8, symBinAddr: 0x10000A060, symSize: 0x34 }
  - { offsetInCU: 0x3963C, offset: 0x3963C, size: 0x8, addend: 0x0, symName: __ZNSt12length_errorC2B8ue170006EPKc, symObjAddr: 0x6EDC, symBinAddr: 0x10000A094, symSize: 0x4C }
  - { offsetInCU: 0x39674, offset: 0x39674, size: 0x8, addend: 0x0, symName: __ZNKSt3__16vectorINS_12basic_stringIcNS_11char_traitsIcEENS_9allocatorIcEEEENS4_IS6_EEE9__end_capB8ue170006Ev, symObjAddr: 0x6F28, symBinAddr: 0x10000A0E0, symSize: 0x28 }
  - { offsetInCU: 0x3969A, offset: 0x3969A, size: 0x8, addend: 0x0, symName: __ZNKSt3__117__compressed_pairIPNS_12basic_stringIcNS_11char_traitsIcEENS_9allocatorIcEEEENS4_IS6_EEE5firstB8ue170006Ev, symObjAddr: 0x6F50, symBinAddr: 0x10000A108, symSize: 0x24 }
  - { offsetInCU: 0x396C0, offset: 0x396C0, size: 0x8, addend: 0x0, symName: __ZNKSt3__122__compressed_pair_elemIPNS_12basic_stringIcNS_11char_traitsIcEENS_9allocatorIcEEEELi0ELb0EE5__getB8ue170006Ev, symObjAddr: 0x6F74, symBinAddr: 0x10000A12C, symSize: 0x14 }
  - { offsetInCU: 0x396E6, offset: 0x396E6, size: 0x8, addend: 0x0, symName: __ZNSt3__114__split_bufferINS_12basic_stringIcNS_11char_traitsIcEENS_9allocatorIcEEEERNS4_IS6_EEEC2EmmS8_, symObjAddr: 0x6FDC, symBinAddr: 0x10000A194, symSize: 0xE0 }
  - { offsetInCU: 0x39759, offset: 0x39759, size: 0x8, addend: 0x0, symName: __ZNSt3__117__compressed_pairIPNS_12basic_stringIcNS_11char_traitsIcEENS_9allocatorIcEEEERNS4_IS6_EEEC1B8ue170006IDnS9_EEOT_OT0_, symObjAddr: 0x70BC, symBinAddr: 0x10000A274, symSize: 0x3C }
  - { offsetInCU: 0x397B1, offset: 0x397B1, size: 0x8, addend: 0x0, symName: __ZNSt3__114__split_bufferINS_12basic_stringIcNS_11char_traitsIcEENS_9allocatorIcEEEERNS4_IS6_EEE7__allocB8ue170006Ev, symObjAddr: 0x7138, symBinAddr: 0x10000A2F0, symSize: 0x28 }
  - { offsetInCU: 0x397D7, offset: 0x397D7, size: 0x8, addend: 0x0, symName: __ZNSt3__114__split_bufferINS_12basic_stringIcNS_11char_traitsIcEENS_9allocatorIcEEEERNS4_IS6_EEE9__end_capB8ue170006Ev, symObjAddr: 0x7160, symBinAddr: 0x10000A318, symSize: 0x28 }
  - { offsetInCU: 0x397FD, offset: 0x397FD, size: 0x8, addend: 0x0, symName: __ZNSt3__117__compressed_pairIPNS_12basic_stringIcNS_11char_traitsIcEENS_9allocatorIcEEEERNS4_IS6_EEEC2B8ue170006IDnS9_EEOT_OT0_, symObjAddr: 0x7188, symBinAddr: 0x10000A340, symSize: 0x48 }
  - { offsetInCU: 0x39855, offset: 0x39855, size: 0x8, addend: 0x0, symName: __ZNSt3__122__compressed_pair_elemIRNS_9allocatorINS_12basic_stringIcNS_11char_traitsIcEENS1_IcEEEEEELi1ELb0EEC2B8ue170006IS8_vEEOT_, symObjAddr: 0x71D0, symBinAddr: 0x10000A388, symSize: 0x20 }
  - { offsetInCU: 0x39897, offset: 0x39897, size: 0x8, addend: 0x0, symName: __ZNSt3__19allocatorINS_12basic_stringIcNS_11char_traitsIcEENS0_IcEEEEE8allocateB8ue170006Em, symObjAddr: 0x71F0, symBinAddr: 0x10000A3A8, symSize: 0x5C }
  - { offsetInCU: 0x398CB, offset: 0x398CB, size: 0x8, addend: 0x0, symName: __ZNSt3__117__compressed_pairIPNS_12basic_stringIcNS_11char_traitsIcEENS_9allocatorIcEEEERNS4_IS6_EEE6secondB8ue170006Ev, symObjAddr: 0x7330, symBinAddr: 0x10000A4E8, symSize: 0x28 }
  - { offsetInCU: 0x398F1, offset: 0x398F1, size: 0x8, addend: 0x0, symName: __ZNSt3__122__compressed_pair_elemIRNS_9allocatorINS_12basic_stringIcNS_11char_traitsIcEENS1_IcEEEEEELi1ELb0EE5__getB8ue170006Ev, symObjAddr: 0x7358, symBinAddr: 0x10000A510, symSize: 0x18 }
  - { offsetInCU: 0x39917, offset: 0x39917, size: 0x8, addend: 0x0, symName: __ZNSt3__117__compressed_pairIPNS_12basic_stringIcNS_11char_traitsIcEENS_9allocatorIcEEEERNS4_IS6_EEE5firstB8ue170006Ev, symObjAddr: 0x7370, symBinAddr: 0x10000A528, symSize: 0x24 }
  - { offsetInCU: 0x3993D, offset: 0x3993D, size: 0x8, addend: 0x0, symName: __ZNKSt3__16vectorINS_12basic_stringIcNS_11char_traitsIcEENS_9allocatorIcEEEENS4_IS6_EEE17__annotate_deleteB8ue170006Ev, symObjAddr: 0x7394, symBinAddr: 0x10000A54C, symSize: 0xD4 }
  - { offsetInCU: 0x39963, offset: 0x39963, size: 0x8, addend: 0x0, symName: __ZNSt3__116reverse_iteratorIPNS_12basic_stringIcNS_11char_traitsIcEENS_9allocatorIcEEEEEC1B8ue170006ES7_, symObjAddr: 0x7594, symBinAddr: 0x10000A74C, symSize: 0x34 }
  - { offsetInCU: 0x3999B, offset: 0x3999B, size: 0x8, addend: 0x0, symName: __ZNKSt3__116reverse_iteratorIPNS_12basic_stringIcNS_11char_traitsIcEENS_9allocatorIcEEEEE4baseB8ue170006Ev, symObjAddr: 0x75C8, symBinAddr: 0x10000A780, symSize: 0x18 }
  - { offsetInCU: 0x399C1, offset: 0x399C1, size: 0x8, addend: 0x0, symName: __ZNKSt3__16vectorINS_12basic_stringIcNS_11char_traitsIcEENS_9allocatorIcEEEENS4_IS6_EEE14__annotate_newB8ue170006Em, symObjAddr: 0x761C, symBinAddr: 0x10000A7D4, symSize: 0xC8 }
  - { offsetInCU: 0x399F6, offset: 0x399F6, size: 0x8, addend: 0x0, symName: __ZNKSt3__16vectorINS_12basic_stringIcNS_11char_traitsIcEENS_9allocatorIcEEEENS4_IS6_EEE31__annotate_contiguous_containerB8ue170006EPKvSA_SA_SA_, symObjAddr: 0x76E4, symBinAddr: 0x10000A89C, symSize: 0x20 }
  - { offsetInCU: 0x39A4C, offset: 0x39A4C, size: 0x8, addend: 0x0, symName: __ZNKSt3__16vectorINS_12basic_stringIcNS_11char_traitsIcEENS_9allocatorIcEEEENS4_IS6_EEE4dataB8ue170006Ev, symObjAddr: 0x7704, symBinAddr: 0x10000A8BC, symSize: 0x28 }
  - { offsetInCU: 0x39A72, offset: 0x39A72, size: 0x8, addend: 0x0, symName: __ZNSt3__129_AllocatorDestroyRangeReverseINS_9allocatorINS_12basic_stringIcNS_11char_traitsIcEENS1_IcEEEEEENS_16reverse_iteratorIPS6_EEEC1B8ue170006ERS7_RSA_SD_, symObjAddr: 0x7778, symBinAddr: 0x10000A930, symSize: 0x44 }
  - { offsetInCU: 0x39ACF, offset: 0x39ACF, size: 0x8, addend: 0x0, symName: __ZNSt3__116allocator_traitsINS_9allocatorINS_12basic_stringIcNS_11char_traitsIcEENS1_IcEEEEEEE9constructB8ue170006IS6_JS6_EvvEEvRS7_PT_DpOT0_, symObjAddr: 0x7804, symBinAddr: 0x10000A9BC, symSize: 0x30 }
  - { offsetInCU: 0x39B24, offset: 0x39B24, size: 0x8, addend: 0x0, symName: __ZNKSt3__116reverse_iteratorIPNS_12basic_stringIcNS_11char_traitsIcEENS_9allocatorIcEEEEEdeB8ue170006Ev, symObjAddr: 0x7858, symBinAddr: 0x10000AA10, symSize: 0x28 }
  - { offsetInCU: 0x39B58, offset: 0x39B58, size: 0x8, addend: 0x0, symName: __ZNSt3__116reverse_iteratorIPNS_12basic_stringIcNS_11char_traitsIcEENS_9allocatorIcEEEEEppB8ue170006Ev, symObjAddr: 0x7880, symBinAddr: 0x10000AA38, symSize: 0x20 }
  - { offsetInCU: 0x39B7E, offset: 0x39B7E, size: 0x8, addend: 0x0, symName: __ZNSt3__128__exception_guard_exceptionsINS_29_AllocatorDestroyRangeReverseINS_9allocatorINS_12basic_stringIcNS_11char_traitsIcEENS2_IcEEEEEENS_16reverse_iteratorIPS7_EEEEE10__completeB8ue170006Ev, symObjAddr: 0x78A0, symBinAddr: 0x10000AA58, symSize: 0x1C }
  - { offsetInCU: 0x39BA4, offset: 0x39BA4, size: 0x8, addend: 0x0, symName: __ZNSt3__128__exception_guard_exceptionsINS_29_AllocatorDestroyRangeReverseINS_9allocatorINS_12basic_stringIcNS_11char_traitsIcEENS2_IcEEEEEENS_16reverse_iteratorIPS7_EEEEED1B8ue170006Ev, symObjAddr: 0x78BC, symBinAddr: 0x10000AA74, symSize: 0x2C }
  - { offsetInCU: 0x39BCE, offset: 0x39BCE, size: 0x8, addend: 0x0, symName: __ZNSt3__128__exception_guard_exceptionsINS_29_AllocatorDestroyRangeReverseINS_9allocatorINS_12basic_stringIcNS_11char_traitsIcEENS2_IcEEEEEENS_16reverse_iteratorIPS7_EEEEEC1B8ue170006ESC_, symObjAddr: 0x78E8, symBinAddr: 0x10000AAA0, symSize: 0x34 }
  - { offsetInCU: 0x39C07, offset: 0x39C07, size: 0x8, addend: 0x0, symName: __ZNSt3__128__exception_guard_exceptionsINS_29_AllocatorDestroyRangeReverseINS_9allocatorINS_12basic_stringIcNS_11char_traitsIcEENS2_IcEEEEEENS_16reverse_iteratorIPS7_EEEEEC2B8ue170006ESC_, symObjAddr: 0x791C, symBinAddr: 0x10000AAD4, symSize: 0x30 }
  - { offsetInCU: 0x39C40, offset: 0x39C40, size: 0x8, addend: 0x0, symName: __ZNSt3__129_AllocatorDestroyRangeReverseINS_9allocatorINS_12basic_stringIcNS_11char_traitsIcEENS1_IcEEEEEENS_16reverse_iteratorIPS6_EEEC2B8ue170006ERS7_RSA_SD_, symObjAddr: 0x794C, symBinAddr: 0x10000AB04, symSize: 0x38 }
  - { offsetInCU: 0x39C97, offset: 0x39C97, size: 0x8, addend: 0x0, symName: __ZNSt3__112basic_stringIcNS_11char_traitsIcEENS_9allocatorIcEEEC1B8ue170006EOS5_, symObjAddr: 0x79C0, symBinAddr: 0x10000AB78, symSize: 0x34 }
  - { offsetInCU: 0x39CD0, offset: 0x39CD0, size: 0x8, addend: 0x0, symName: __ZNSt3__112basic_stringIcNS_11char_traitsIcEENS_9allocatorIcEEEC2B8ue170006EOS5_, symObjAddr: 0x79F4, symBinAddr: 0x10000ABAC, symSize: 0x48 }
  - { offsetInCU: 0x39D0F, offset: 0x39D0F, size: 0x8, addend: 0x0, symName: __ZNSt3__119__to_address_helperINS_16reverse_iteratorIPNS_12basic_stringIcNS_11char_traitsIcEENS_9allocatorIcEEEEEEvE6__callB8ue170006ERKS9_, symObjAddr: 0x7A3C, symBinAddr: 0x10000ABF4, symSize: 0x38 }
  - { offsetInCU: 0x39D32, offset: 0x39D32, size: 0x8, addend: 0x0, symName: __ZNKSt3__116reverse_iteratorIPNS_12basic_stringIcNS_11char_traitsIcEENS_9allocatorIcEEEEEptB8ue170006Ev, symObjAddr: 0x7A74, symBinAddr: 0x10000AC2C, symSize: 0x2C }
  - { offsetInCU: 0x39D58, offset: 0x39D58, size: 0x8, addend: 0x0, symName: __ZNSt3__128__exception_guard_exceptionsINS_29_AllocatorDestroyRangeReverseINS_9allocatorINS_12basic_stringIcNS_11char_traitsIcEENS2_IcEEEEEENS_16reverse_iteratorIPS7_EEEEED2B8ue170006Ev, symObjAddr: 0x7B58, symBinAddr: 0x10000AD10, symSize: 0x50 }
  - { offsetInCU: 0x39D82, offset: 0x39D82, size: 0x8, addend: 0x0, symName: __ZNKSt3__129_AllocatorDestroyRangeReverseINS_9allocatorINS_12basic_stringIcNS_11char_traitsIcEENS1_IcEEEEEENS_16reverse_iteratorIPS6_EEEclB8ue170006Ev, symObjAddr: 0x7BA8, symBinAddr: 0x10000AD60, symSize: 0xB4 }
  - { offsetInCU: 0x39DA9, offset: 0x39DA9, size: 0x8, addend: 0x0, symName: __ZNSt3__116reverse_iteratorINS0_IPNS_12basic_stringIcNS_11char_traitsIcEENS_9allocatorIcEEEEEEEC1B8ue170006ES8_, symObjAddr: 0x7CCC, symBinAddr: 0x10000AE84, symSize: 0x3C }
  - { offsetInCU: 0x39DE1, offset: 0x39DE1, size: 0x8, addend: 0x0, symName: __ZNSt3__116allocator_traitsINS_9allocatorINS_12basic_stringIcNS_11char_traitsIcEENS1_IcEEEEEEE7destroyB8ue170006IS6_vvEEvRS7_PT_, symObjAddr: 0x7D68, symBinAddr: 0x10000AF20, symSize: 0x28 }
  - { offsetInCU: 0x39E1C, offset: 0x39E1C, size: 0x8, addend: 0x0, symName: __ZNSt3__116reverse_iteratorINS0_IPNS_12basic_stringIcNS_11char_traitsIcEENS_9allocatorIcEEEEEEEppB8ue170006Ev, symObjAddr: 0x7DB4, symBinAddr: 0x10000AF6C, symSize: 0x30 }
  - { offsetInCU: 0x39E42, offset: 0x39E42, size: 0x8, addend: 0x0, symName: __ZNKSt3__116reverse_iteratorINS0_IPNS_12basic_stringIcNS_11char_traitsIcEENS_9allocatorIcEEEEEEE4baseB8ue170006Ev, symObjAddr: 0x7DE4, symBinAddr: 0x10000AF9C, symSize: 0x24 }
  - { offsetInCU: 0x39E6E, offset: 0x39E6E, size: 0x8, addend: 0x0, symName: __ZNSt3__119__to_address_helperINS_16reverse_iteratorINS1_IPNS_12basic_stringIcNS_11char_traitsIcEENS_9allocatorIcEEEEEEEEvE6__callB8ue170006ERKSA_, symObjAddr: 0x7E50, symBinAddr: 0x10000B008, symSize: 0x38 }
  - { offsetInCU: 0x39E91, offset: 0x39E91, size: 0x8, addend: 0x0, symName: __ZNKSt3__116reverse_iteratorINS0_IPNS_12basic_stringIcNS_11char_traitsIcEENS_9allocatorIcEEEEEEEptB8ue170006Ev, symObjAddr: 0x7E88, symBinAddr: 0x10000B040, symSize: 0x4C }
  - { offsetInCU: 0x39EB7, offset: 0x39EB7, size: 0x8, addend: 0x0, symName: __ZNSt3__116reverse_iteratorIPNS_12basic_stringIcNS_11char_traitsIcEENS_9allocatorIcEEEEEpLB8ue170006El, symObjAddr: 0x7F84, symBinAddr: 0x10000B13C, symSize: 0x30 }
  - { offsetInCU: 0x39EEB, offset: 0x39EEB, size: 0x8, addend: 0x0, symName: __ZNSt3__116reverse_iteratorIPNS_12basic_stringIcNS_11char_traitsIcEENS_9allocatorIcEEEEEmmB8ue170006Ev, symObjAddr: 0x7FB4, symBinAddr: 0x10000B16C, symSize: 0x20 }
  - { offsetInCU: 0x39F11, offset: 0x39F11, size: 0x8, addend: 0x0, symName: __ZNSt3__116reverse_iteratorINS0_IPNS_12basic_stringIcNS_11char_traitsIcEENS_9allocatorIcEEEEEEEC2B8ue170006ES8_, symObjAddr: 0x7FD4, symBinAddr: 0x10000B18C, symSize: 0x2C }
  - { offsetInCU: 0x39F49, offset: 0x39F49, size: 0x8, addend: 0x0, symName: __ZNSt3__116reverse_iteratorIPNS_12basic_stringIcNS_11char_traitsIcEENS_9allocatorIcEEEEEC2B8ue170006ES7_, symObjAddr: 0x8000, symBinAddr: 0x10000B1B8, symSize: 0x28 }
  - { offsetInCU: 0x39F81, offset: 0x39F81, size: 0x8, addend: 0x0, symName: __ZNSt3__114__split_bufferINS_12basic_stringIcNS_11char_traitsIcEENS_9allocatorIcEEEERNS4_IS6_EEED2Ev, symObjAddr: 0x8028, symBinAddr: 0x10000B1E0, symSize: 0x8C }
  - { offsetInCU: 0x39FAD, offset: 0x39FAD, size: 0x8, addend: 0x0, symName: __ZNSt3__114__split_bufferINS_12basic_stringIcNS_11char_traitsIcEENS_9allocatorIcEEEERNS4_IS6_EEE5clearB8ue170006Ev, symObjAddr: 0x80B4, symBinAddr: 0x10000B26C, symSize: 0x28 }
  - { offsetInCU: 0x39FD3, offset: 0x39FD3, size: 0x8, addend: 0x0, symName: __ZNSt3__116allocator_traitsINS_9allocatorINS_12basic_stringIcNS_11char_traitsIcEENS1_IcEEEEEEE10deallocateB8ue170006ERS7_PS6_m, symObjAddr: 0x80DC, symBinAddr: 0x10000B294, symSize: 0x34 }
  - { offsetInCU: 0x3A015, offset: 0x3A015, size: 0x8, addend: 0x0, symName: __ZNKSt3__114__split_bufferINS_12basic_stringIcNS_11char_traitsIcEENS_9allocatorIcEEEERNS4_IS6_EEE8capacityB8ue170006Ev, symObjAddr: 0x8110, symBinAddr: 0x10000B2C8, symSize: 0x40 }
  - { offsetInCU: 0x3A03B, offset: 0x3A03B, size: 0x8, addend: 0x0, symName: __ZNSt3__114__split_bufferINS_12basic_stringIcNS_11char_traitsIcEENS_9allocatorIcEEEERNS4_IS6_EEE17__destruct_at_endB8ue170006EPS6_, symObjAddr: 0x8150, symBinAddr: 0x10000B308, symSize: 0x2C }
  - { offsetInCU: 0x3A06F, offset: 0x3A06F, size: 0x8, addend: 0x0, symName: __ZNSt3__114__split_bufferINS_12basic_stringIcNS_11char_traitsIcEENS_9allocatorIcEEEERNS4_IS6_EEE17__destruct_at_endB8ue170006EPS6_NS_17integral_constantIbLb0EEE, symObjAddr: 0x817C, symBinAddr: 0x10000B334, symSize: 0x80 }
  - { offsetInCU: 0x3A0B0, offset: 0x3A0B0, size: 0x8, addend: 0x0, symName: __ZNSt3__19allocatorINS_12basic_stringIcNS_11char_traitsIcEENS0_IcEEEEE10deallocateB8ue170006EPS5_m, symObjAddr: 0x81FC, symBinAddr: 0x10000B3B4, symSize: 0x44 }
  - { offsetInCU: 0x3A0F2, offset: 0x3A0F2, size: 0x8, addend: 0x0, symName: __ZNKSt3__114__split_bufferINS_12basic_stringIcNS_11char_traitsIcEENS_9allocatorIcEEEERNS4_IS6_EEE9__end_capB8ue170006Ev, symObjAddr: 0x8240, symBinAddr: 0x10000B3F8, symSize: 0x28 }
  - { offsetInCU: 0x3A118, offset: 0x3A118, size: 0x8, addend: 0x0, symName: __ZNKSt3__117__compressed_pairIPNS_12basic_stringIcNS_11char_traitsIcEENS_9allocatorIcEEEERNS4_IS6_EEE5firstB8ue170006Ev, symObjAddr: 0x8268, symBinAddr: 0x10000B420, symSize: 0x24 }
  - { offsetInCU: 0x3A13E, offset: 0x3A13E, size: 0x8, addend: 0x0, symName: __ZNKSt3__112basic_stringIcNS_11char_traitsIcEENS_9allocatorIcEEE4sizeB8ue170006Ev, symObjAddr: 0x828C, symBinAddr: 0x10000B444, symSize: 0x54 }
  - { offsetInCU: 0x3A164, offset: 0x3A164, size: 0x8, addend: 0x0, symName: __ZNKSt3__112basic_stringIcNS_11char_traitsIcEENS_9allocatorIcEEE15__get_long_sizeB8ue170006Ev, symObjAddr: 0x82E0, symBinAddr: 0x10000B498, symSize: 0x28 }
  - { offsetInCU: 0x3A18A, offset: 0x3A18A, size: 0x8, addend: 0x0, symName: __ZNKSt3__112basic_stringIcNS_11char_traitsIcEENS_9allocatorIcEEE16__get_short_sizeB8ue170006Ev, symObjAddr: 0x8308, symBinAddr: 0x10000B4C0, symSize: 0x34 }
  - { offsetInCU: 0x3A1B0, offset: 0x3A1B0, size: 0x8, addend: 0x0, symName: __ZNSt3__16vectorINS_12basic_stringIcNS_11char_traitsIcEENS_9allocatorIcEEEENS4_IS6_EEE19__copy_assign_allocB8ue170006ERKS8_, symObjAddr: 0x833C, symBinAddr: 0x10000B4F4, symSize: 0x2C }
  - { offsetInCU: 0x3A1E5, offset: 0x3A1E5, size: 0x8, addend: 0x0, symName: __ZNSt3__16vectorINS_12basic_stringIcNS_11char_traitsIcEENS_9allocatorIcEEEENS4_IS6_EEE6assignIPS6_Li0EEEvT_SB_, symObjAddr: 0x8368, symBinAddr: 0x10000B520, symSize: 0x5C }
  - { offsetInCU: 0x3A23A, offset: 0x3A23A, size: 0x8, addend: 0x0, symName: __ZNSt3__16vectorINS_12basic_stringIcNS_11char_traitsIcEENS_9allocatorIcEEEENS4_IS6_EEE19__copy_assign_allocB8ue170006ERKS8_NS_17integral_constantIbLb0EEE, symObjAddr: 0x83C4, symBinAddr: 0x10000B57C, symSize: 0x14 }
  - { offsetInCU: 0x3A278, offset: 0x3A278, size: 0x8, addend: 0x0, symName: __ZNSt3__16vectorINS_12basic_stringIcNS_11char_traitsIcEENS_9allocatorIcEEEENS4_IS6_EEE18__assign_with_sizeB8ue170006IPS6_SA_EEvT_T0_l, symObjAddr: 0x83D8, symBinAddr: 0x10000B590, symSize: 0x164 }
  - { offsetInCU: 0x3A328, offset: 0x3A328, size: 0x8, addend: 0x0, symName: __ZNSt3__16vectorINS_12basic_stringIcNS_11char_traitsIcEENS_9allocatorIcEEEENS4_IS6_EEE18__construct_at_endIPS6_SA_EEvT_T0_m, symObjAddr: 0x85DC, symBinAddr: 0x10000B794, symSize: 0x8C }
  - { offsetInCU: 0x3A39E, offset: 0x3A39E, size: 0x8, addend: 0x0, symName: __ZNSt3__16vectorINS_12basic_stringIcNS_11char_traitsIcEENS_9allocatorIcEEEENS4_IS6_EEE17__destruct_at_endB8ue170006EPS6_, symObjAddr: 0x86AC, symBinAddr: 0x10000B864, symSize: 0x4C }
  - { offsetInCU: 0x3A3E2, offset: 0x3A3E2, size: 0x8, addend: 0x0, symName: __ZNSt3__16vectorINS_12basic_stringIcNS_11char_traitsIcEENS_9allocatorIcEEEENS4_IS6_EEE13__vdeallocateEv, symObjAddr: 0x86F8, symBinAddr: 0x10000B8B0, symSize: 0x94 }
  - { offsetInCU: 0x3A40A, offset: 0x3A40A, size: 0x8, addend: 0x0, symName: __ZNSt3__16vectorINS_12basic_stringIcNS_11char_traitsIcEENS_9allocatorIcEEEENS4_IS6_EEE11__vallocateB8ue170006Em, symObjAddr: 0x878C, symBinAddr: 0x10000B944, symSize: 0xB4 }
  - { offsetInCU: 0x3A46B, offset: 0x3A46B, size: 0x8, addend: 0x0, symName: __ZNSt3__119__unwrap_range_implIPNS_12basic_stringIcNS_11char_traitsIcEENS_9allocatorIcEEEES7_E8__unwrapB8ue170006ES7_S7_, symObjAddr: 0x8A50, symBinAddr: 0x10000BC08, symSize: 0x58 }
  - { offsetInCU: 0x3A4A2, offset: 0x3A4A2, size: 0x8, addend: 0x0, symName: __ZNSt3__14pairIPNS_12basic_stringIcNS_11char_traitsIcEENS_9allocatorIcEEEES7_EC1B8ue170006IS7_S7_LPv0EEEOT_OT0_, symObjAddr: 0x8AA8, symBinAddr: 0x10000BC60, symSize: 0x3C }
  - { offsetInCU: 0x3A500, offset: 0x3A500, size: 0x8, addend: 0x0, symName: __ZNSt3__14pairIPNS_12basic_stringIcNS_11char_traitsIcEENS_9allocatorIcEEEES7_EC2B8ue170006IS7_S7_LPv0EEEOT_OT0_, symObjAddr: 0x8AE4, symBinAddr: 0x10000BC9C, symSize: 0x34 }
  - { offsetInCU: 0x3A55E, offset: 0x3A55E, size: 0x8, addend: 0x0, symName: __ZNSt3__129_AllocatorDestroyRangeReverseINS_9allocatorINS_12basic_stringIcNS_11char_traitsIcEENS1_IcEEEEEEPS6_EC1B8ue170006ERS7_RS8_SB_, symObjAddr: 0x8B64, symBinAddr: 0x10000BD1C, symSize: 0x44 }
  - { offsetInCU: 0x3A5B5, offset: 0x3A5B5, size: 0x8, addend: 0x0, symName: __ZNSt3__116allocator_traitsINS_9allocatorINS_12basic_stringIcNS_11char_traitsIcEENS1_IcEEEEEEE9constructB8ue170006IS6_JRS6_EvvEEvRS7_PT_DpOT0_, symObjAddr: 0x8BA8, symBinAddr: 0x10000BD60, symSize: 0x30 }
  - { offsetInCU: 0x3A60A, offset: 0x3A60A, size: 0x8, addend: 0x0, symName: __ZNSt3__128__exception_guard_exceptionsINS_29_AllocatorDestroyRangeReverseINS_9allocatorINS_12basic_stringIcNS_11char_traitsIcEENS2_IcEEEEEEPS7_EEE10__completeB8ue170006Ev, symObjAddr: 0x8BD8, symBinAddr: 0x10000BD90, symSize: 0x1C }
  - { offsetInCU: 0x3A630, offset: 0x3A630, size: 0x8, addend: 0x0, symName: __ZNSt3__128__exception_guard_exceptionsINS_29_AllocatorDestroyRangeReverseINS_9allocatorINS_12basic_stringIcNS_11char_traitsIcEENS2_IcEEEEEEPS7_EEED1B8ue170006Ev, symObjAddr: 0x8BF4, symBinAddr: 0x10000BDAC, symSize: 0x2C }
  - { offsetInCU: 0x3A65A, offset: 0x3A65A, size: 0x8, addend: 0x0, symName: __ZNSt3__128__exception_guard_exceptionsINS_29_AllocatorDestroyRangeReverseINS_9allocatorINS_12basic_stringIcNS_11char_traitsIcEENS2_IcEEEEEEPS7_EEEC1B8ue170006ESA_, symObjAddr: 0x8C20, symBinAddr: 0x10000BDD8, symSize: 0x34 }
  - { offsetInCU: 0x3A693, offset: 0x3A693, size: 0x8, addend: 0x0, symName: __ZNSt3__128__exception_guard_exceptionsINS_29_AllocatorDestroyRangeReverseINS_9allocatorINS_12basic_stringIcNS_11char_traitsIcEENS2_IcEEEEEEPS7_EEEC2B8ue170006ESA_, symObjAddr: 0x8C54, symBinAddr: 0x10000BE0C, symSize: 0x30 }
  - { offsetInCU: 0x3A6CC, offset: 0x3A6CC, size: 0x8, addend: 0x0, symName: __ZNSt3__129_AllocatorDestroyRangeReverseINS_9allocatorINS_12basic_stringIcNS_11char_traitsIcEENS1_IcEEEEEEPS6_EC2B8ue170006ERS7_RS8_SB_, symObjAddr: 0x8C84, symBinAddr: 0x10000BE3C, symSize: 0x38 }
  - { offsetInCU: 0x3A723, offset: 0x3A723, size: 0x8, addend: 0x0, symName: __ZNSt3__128__exception_guard_exceptionsINS_29_AllocatorDestroyRangeReverseINS_9allocatorINS_12basic_stringIcNS_11char_traitsIcEENS2_IcEEEEEEPS7_EEED2B8ue170006Ev, symObjAddr: 0x8CF8, symBinAddr: 0x10000BEB0, symSize: 0x50 }
  - { offsetInCU: 0x3A74D, offset: 0x3A74D, size: 0x8, addend: 0x0, symName: __ZNKSt3__129_AllocatorDestroyRangeReverseINS_9allocatorINS_12basic_stringIcNS_11char_traitsIcEENS1_IcEEEEEEPS6_EclB8ue170006Ev, symObjAddr: 0x8D48, symBinAddr: 0x10000BF00, symSize: 0x68 }
  - { offsetInCU: 0x3A773, offset: 0x3A773, size: 0x8, addend: 0x0, symName: __ZNSt3__118__unwrap_iter_implIPNS_12basic_stringIcNS_11char_traitsIcEENS_9allocatorIcEEEELb1EE8__unwrapB8ue170006ES7_, symObjAddr: 0x8E20, symBinAddr: 0x10000BFD8, symSize: 0x24 }
  - { offsetInCU: 0x3A796, offset: 0x3A796, size: 0x8, addend: 0x0, symName: __ZNSt3__118__unwrap_iter_implIPNS_12basic_stringIcNS_11char_traitsIcEENS_9allocatorIcEEEELb1EE8__rewrapB8ue170006ES7_S7_, symObjAddr: 0x8E44, symBinAddr: 0x10000BFFC, symSize: 0x58 }
  - { offsetInCU: 0x3A7D2, offset: 0x3A7D2, size: 0x8, addend: 0x0, symName: __ZNKSt3__111__copy_loopINS_17_ClassicAlgPolicyEEclB8ue170006IPNS_12basic_stringIcNS_11char_traitsIcEENS_9allocatorIcEEEESA_SA_EENS_4pairIT_T1_EESC_T0_SD_, symObjAddr: 0x8F94, symBinAddr: 0x10000C14C, symSize: 0x88 }
  - { offsetInCU: 0x3A83D, offset: 0x3A83D, size: 0x8, addend: 0x0, symName: __ZNSt3__119__unwrap_range_implIPNS_12basic_stringIcNS_11char_traitsIcEENS_9allocatorIcEEEES7_E8__rewrapB8ue170006ES7_S7_, symObjAddr: 0x9080, symBinAddr: 0x10000C238, symSize: 0x2C }
  - { offsetInCU: 0x3A86E, offset: 0x3A86E, size: 0x8, addend: 0x0, symName: __ZNSt3__16vectorINS_12basic_stringIcNS_11char_traitsIcEENS_9allocatorIcEEEENS4_IS6_EEE22__base_destruct_at_endB8ue170006EPS6_, symObjAddr: 0x90AC, symBinAddr: 0x10000C264, symSize: 0x8C }
  - { offsetInCU: 0x3A8B2, offset: 0x3A8B2, size: 0x8, addend: 0x0, symName: __ZNKSt3__16vectorINS_12basic_stringIcNS_11char_traitsIcEENS_9allocatorIcEEEENS4_IS6_EEE17__annotate_shrinkB8ue170006Em, symObjAddr: 0x9138, symBinAddr: 0x10000C2F0, symSize: 0xD0 }
  - { offsetInCU: 0x3A8E7, offset: 0x3A8E7, size: 0x8, addend: 0x0, symName: __ZNSt3__16vectorINS_12basic_stringIcNS_11char_traitsIcEENS_9allocatorIcEEEENS4_IS6_EEED2B8ue170006Ev, symObjAddr: 0x9230, symBinAddr: 0x10000C3E8, symSize: 0x44 }
  - { offsetInCU: 0x3A911, offset: 0x3A911, size: 0x8, addend: 0x0, symName: __ZNSt3__16vectorINS_12basic_stringIcNS_11char_traitsIcEENS_9allocatorIcEEEENS4_IS6_EEE16__destroy_vectorC1B8ue170006ERS8_, symObjAddr: 0x9274, symBinAddr: 0x10000C42C, symSize: 0x34 }
  - { offsetInCU: 0x3A94A, offset: 0x3A94A, size: 0x8, addend: 0x0, symName: __ZNSt3__16vectorINS_12basic_stringIcNS_11char_traitsIcEENS_9allocatorIcEEEENS4_IS6_EEE16__destroy_vectorclB8ue170006Ev, symObjAddr: 0x92A8, symBinAddr: 0x10000C460, symSize: 0x90 }
  - { offsetInCU: 0x3A970, offset: 0x3A970, size: 0x8, addend: 0x0, symName: __ZNSt3__16vectorINS_12basic_stringIcNS_11char_traitsIcEENS_9allocatorIcEEEENS4_IS6_EEE16__destroy_vectorC2B8ue170006ERS8_, symObjAddr: 0x9338, symBinAddr: 0x10000C4F0, symSize: 0x20 }
  - { offsetInCU: 0x3A9A9, offset: 0x3A9A9, size: 0x8, addend: 0x0, symName: __ZNSt3__16vectorINS_12basic_stringIcNS_11char_traitsIcEENS_9allocatorIcEEEENS4_IS6_EEE7__clearB8ue170006Ev, symObjAddr: 0x9358, symBinAddr: 0x10000C510, symSize: 0x28 }
  - { offsetInCU: 0x3A9CF, offset: 0x3A9CF, size: 0x8, addend: 0x0, symName: __ZNSt3__118basic_stringstreamIcNS_11char_traitsIcEENS_9allocatorIcEEED2Ev, symObjAddr: 0x9380, symBinAddr: 0x10000C538, symSize: 0x6C }
  - { offsetInCU: 0x3AA09, offset: 0x3AA09, size: 0x8, addend: 0x0, symName: __ZThn16_NSt3__118basic_stringstreamIcNS_11char_traitsIcEENS_9allocatorIcEEED1Ev, symObjAddr: 0x93EC, symBinAddr: 0x10000C5A4, symSize: 0x1C }
  - { offsetInCU: 0x3AA20, offset: 0x3AA20, size: 0x8, addend: 0x0, symName: __ZTv0_n24_NSt3__118basic_stringstreamIcNS_11char_traitsIcEENS_9allocatorIcEEED1Ev, symObjAddr: 0x9408, symBinAddr: 0x10000C5C0, symSize: 0x28 }
  - { offsetInCU: 0x3AA3D, offset: 0x3AA3D, size: 0x8, addend: 0x0, symName: __ZNSt3__115basic_stringbufIcNS_11char_traitsIcEENS_9allocatorIcEEED1Ev, symObjAddr: 0x9430, symBinAddr: 0x10000C5E8, symSize: 0x2C }
  - { offsetInCU: 0x3AA6A, offset: 0x3AA6A, size: 0x8, addend: 0x0, symName: __ZNSt3__115basic_stringbufIcNS_11char_traitsIcEENS_9allocatorIcEEED2Ev, symObjAddr: 0x945C, symBinAddr: 0x10000C614, symSize: 0x48 }
  - { offsetInCU: 0x3AA97, offset: 0x3AA97, size: 0x8, addend: 0x0, symName: __ZNSt3__16vectorIiNS_9allocatorIiEEEC2B8ue170006Ev, symObjAddr: 0x94A4, symBinAddr: 0x10000C65C, symSize: 0x4C }
  - { offsetInCU: 0x3AAC1, offset: 0x3AAC1, size: 0x8, addend: 0x0, symName: __ZNSt3__117__compressed_pairIPiNS_9allocatorIiEEEC1B8ue170006IDnNS_18__default_init_tagEEEOT_OT0_, symObjAddr: 0x94F0, symBinAddr: 0x10000C6A8, symSize: 0x3C }
  - { offsetInCU: 0x3AB19, offset: 0x3AB19, size: 0x8, addend: 0x0, symName: __ZNSt3__117__compressed_pairIPiNS_9allocatorIiEEEC2B8ue170006IDnNS_18__default_init_tagEEEOT_OT0_, symObjAddr: 0x952C, symBinAddr: 0x10000C6E4, symSize: 0x40 }
  - { offsetInCU: 0x3AB71, offset: 0x3AB71, size: 0x8, addend: 0x0, symName: __ZNSt3__122__compressed_pair_elemIPiLi0ELb0EEC2B8ue170006IDnvEEOT_, symObjAddr: 0x956C, symBinAddr: 0x10000C724, symSize: 0x1C }
  - { offsetInCU: 0x3ABB3, offset: 0x3ABB3, size: 0x8, addend: 0x0, symName: __ZNSt3__122__compressed_pair_elemINS_9allocatorIiEELi1ELb1EEC2B8ue170006ENS_18__default_init_tagE, symObjAddr: 0x9588, symBinAddr: 0x10000C740, symSize: 0x2C }
  - { offsetInCU: 0x3ABE8, offset: 0x3ABE8, size: 0x8, addend: 0x0, symName: __ZNSt3__19allocatorIiEC2B8ue170006Ev, symObjAddr: 0x95B4, symBinAddr: 0x10000C76C, symSize: 0x2C }
  - { offsetInCU: 0x3AC12, offset: 0x3AC12, size: 0x8, addend: 0x0, symName: __ZNSt3__116__non_trivial_ifILb1ENS_9allocatorIiEEEC2B8ue170006Ev, symObjAddr: 0x95E0, symBinAddr: 0x10000C798, symSize: 0x14 }
  - { offsetInCU: 0x3AC3C, offset: 0x3AC3C, size: 0x8, addend: 0x0, symName: __ZNSt3__16vectorIiNS_9allocatorIiEEE9__end_capB8ue170006Ev, symObjAddr: 0x95F4, symBinAddr: 0x10000C7AC, symSize: 0x28 }
  - { offsetInCU: 0x3AC68, offset: 0x3AC68, size: 0x8, addend: 0x0, symName: __ZNSt3__16vectorIiNS_9allocatorIiEEE22__construct_one_at_endB8ue170006IJiEEEvDpOT_, symObjAddr: 0x961C, symBinAddr: 0x10000C7D4, symSize: 0x90 }
  - { offsetInCU: 0x3ACB7, offset: 0x3ACB7, size: 0x8, addend: 0x0, symName: __ZNSt3__16vectorIiNS_9allocatorIiEEE21__push_back_slow_pathIiEEvOT_, symObjAddr: 0x96AC, symBinAddr: 0x10000C864, symSize: 0xD8 }
  - { offsetInCU: 0x3AD15, offset: 0x3AD15, size: 0x8, addend: 0x0, symName: __ZNSt3__117__compressed_pairIPiNS_9allocatorIiEEE5firstB8ue170006Ev, symObjAddr: 0x9784, symBinAddr: 0x10000C93C, symSize: 0x24 }
  - { offsetInCU: 0x3AD3B, offset: 0x3AD3B, size: 0x8, addend: 0x0, symName: __ZNSt3__122__compressed_pair_elemIPiLi0ELb0EE5__getB8ue170006Ev, symObjAddr: 0x97A8, symBinAddr: 0x10000C960, symSize: 0x14 }
  - { offsetInCU: 0x3AD7D, offset: 0x3AD7D, size: 0x8, addend: 0x0, symName: __ZNSt3__16vectorIiNS_9allocatorIiEEE21_ConstructTransactionC1B8ue170006ERS3_m, symObjAddr: 0x97BC, symBinAddr: 0x10000C974, symSize: 0x3C }
  - { offsetInCU: 0x3ADC5, offset: 0x3ADC5, size: 0x8, addend: 0x0, symName: __ZNSt3__116allocator_traitsINS_9allocatorIiEEE9constructB8ue170006IiJiEvvEEvRS2_PT_DpOT0_, symObjAddr: 0x97F8, symBinAddr: 0x10000C9B0, symSize: 0x30 }
  - { offsetInCU: 0x3AE1A, offset: 0x3AE1A, size: 0x8, addend: 0x0, symName: __ZNSt3__16vectorIiNS_9allocatorIiEEE7__allocB8ue170006Ev, symObjAddr: 0x9828, symBinAddr: 0x10000C9E0, symSize: 0x28 }
  - { offsetInCU: 0x3AE40, offset: 0x3AE40, size: 0x8, addend: 0x0, symName: __ZNSt3__16vectorIiNS_9allocatorIiEEE21_ConstructTransactionD1B8ue170006Ev, symObjAddr: 0x9864, symBinAddr: 0x10000CA1C, symSize: 0x2C }
  - { offsetInCU: 0x3AE6A, offset: 0x3AE6A, size: 0x8, addend: 0x0, symName: __ZNSt3__16vectorIiNS_9allocatorIiEEE21_ConstructTransactionC2B8ue170006ERS3_m, symObjAddr: 0x9890, symBinAddr: 0x10000CA48, symSize: 0x44 }
  - { offsetInCU: 0x3AEB2, offset: 0x3AEB2, size: 0x8, addend: 0x0, symName: __ZNSt3__117__compressed_pairIPiNS_9allocatorIiEEE6secondB8ue170006Ev, symObjAddr: 0x9900, symBinAddr: 0x10000CAB8, symSize: 0x24 }
  - { offsetInCU: 0x3AED8, offset: 0x3AED8, size: 0x8, addend: 0x0, symName: __ZNSt3__122__compressed_pair_elemINS_9allocatorIiEELi1ELb1EE5__getB8ue170006Ev, symObjAddr: 0x9924, symBinAddr: 0x10000CADC, symSize: 0x14 }
  - { offsetInCU: 0x3AEFE, offset: 0x3AEFE, size: 0x8, addend: 0x0, symName: __ZNSt3__16vectorIiNS_9allocatorIiEEE21_ConstructTransactionD2B8ue170006Ev, symObjAddr: 0x9938, symBinAddr: 0x10000CAF0, symSize: 0x20 }
  - { offsetInCU: 0x3AF28, offset: 0x3AF28, size: 0x8, addend: 0x0, symName: __ZNKSt3__16vectorIiNS_9allocatorIiEEE11__recommendB8ue170006Em, symObjAddr: 0x9958, symBinAddr: 0x10000CB10, symSize: 0xB4 }
  - { offsetInCU: 0x3AF7D, offset: 0x3AF7D, size: 0x8, addend: 0x0, symName: __ZNSt3__114__split_bufferIiRNS_9allocatorIiEEEC1EmmS3_, symObjAddr: 0x9A0C, symBinAddr: 0x10000CBC4, symSize: 0x44 }
  - { offsetInCU: 0x3AFD3, offset: 0x3AFD3, size: 0x8, addend: 0x0, symName: __ZNSt3__114__split_bufferIiRNS_9allocatorIiEEED1Ev, symObjAddr: 0x9B60, symBinAddr: 0x10000CD18, symSize: 0x2C }
  - { offsetInCU: 0x3AFFF, offset: 0x3AFFF, size: 0x8, addend: 0x0, symName: __ZNKSt3__16vectorIiNS_9allocatorIiEEE8max_sizeEv, symObjAddr: 0x9B8C, symBinAddr: 0x10000CD44, symSize: 0x60 }
  - { offsetInCU: 0x3B027, offset: 0x3B027, size: 0x8, addend: 0x0, symName: __ZNKSt3__16vectorIiNS_9allocatorIiEEE20__throw_length_errorB8ue170006Ev, symObjAddr: 0x9BEC, symBinAddr: 0x10000CDA4, symSize: 0x1C }
  - { offsetInCU: 0x3B04D, offset: 0x3B04D, size: 0x8, addend: 0x0, symName: __ZNKSt3__16vectorIiNS_9allocatorIiEEE8capacityB8ue170006Ev, symObjAddr: 0x9C08, symBinAddr: 0x10000CDC0, symSize: 0x40 }
  - { offsetInCU: 0x3B07E, offset: 0x3B07E, size: 0x8, addend: 0x0, symName: __ZNSt3__116allocator_traitsINS_9allocatorIiEEE8max_sizeB8ue170006IS2_vvEEmRKS2_, symObjAddr: 0x9C48, symBinAddr: 0x10000CE00, symSize: 0x28 }
  - { offsetInCU: 0x3B0AA, offset: 0x3B0AA, size: 0x8, addend: 0x0, symName: __ZNKSt3__16vectorIiNS_9allocatorIiEEE7__allocB8ue170006Ev, symObjAddr: 0x9C70, symBinAddr: 0x10000CE28, symSize: 0x28 }
  - { offsetInCU: 0x3B0D0, offset: 0x3B0D0, size: 0x8, addend: 0x0, symName: __ZNKSt3__117__compressed_pairIPiNS_9allocatorIiEEE6secondB8ue170006Ev, symObjAddr: 0x9C98, symBinAddr: 0x10000CE50, symSize: 0x24 }
  - { offsetInCU: 0x3B0F6, offset: 0x3B0F6, size: 0x8, addend: 0x0, symName: __ZNKSt3__122__compressed_pair_elemINS_9allocatorIiEELi1ELb1EE5__getB8ue170006Ev, symObjAddr: 0x9CBC, symBinAddr: 0x10000CE74, symSize: 0x14 }
  - { offsetInCU: 0x3B11C, offset: 0x3B11C, size: 0x8, addend: 0x0, symName: __ZNKSt3__16vectorIiNS_9allocatorIiEEE9__end_capB8ue170006Ev, symObjAddr: 0x9CD0, symBinAddr: 0x10000CE88, symSize: 0x28 }
  - { offsetInCU: 0x3B142, offset: 0x3B142, size: 0x8, addend: 0x0, symName: __ZNKSt3__117__compressed_pairIPiNS_9allocatorIiEEE5firstB8ue170006Ev, symObjAddr: 0x9CF8, symBinAddr: 0x10000CEB0, symSize: 0x24 }
  - { offsetInCU: 0x3B168, offset: 0x3B168, size: 0x8, addend: 0x0, symName: __ZNKSt3__122__compressed_pair_elemIPiLi0ELb0EE5__getB8ue170006Ev, symObjAddr: 0x9D1C, symBinAddr: 0x10000CED4, symSize: 0x14 }
  - { offsetInCU: 0x3B18E, offset: 0x3B18E, size: 0x8, addend: 0x0, symName: __ZNSt3__114__split_bufferIiRNS_9allocatorIiEEEC2EmmS3_, symObjAddr: 0x9D30, symBinAddr: 0x10000CEE8, symSize: 0xD4 }
  - { offsetInCU: 0x3B201, offset: 0x3B201, size: 0x8, addend: 0x0, symName: __ZNSt3__117__compressed_pairIPiRNS_9allocatorIiEEEC1B8ue170006IDnS4_EEOT_OT0_, symObjAddr: 0x9E04, symBinAddr: 0x10000CFBC, symSize: 0x3C }
  - { offsetInCU: 0x3B259, offset: 0x3B259, size: 0x8, addend: 0x0, symName: __ZNSt3__114__split_bufferIiRNS_9allocatorIiEEE7__allocB8ue170006Ev, symObjAddr: 0x9E80, symBinAddr: 0x10000D038, symSize: 0x28 }
  - { offsetInCU: 0x3B27F, offset: 0x3B27F, size: 0x8, addend: 0x0, symName: __ZNSt3__114__split_bufferIiRNS_9allocatorIiEEE9__end_capB8ue170006Ev, symObjAddr: 0x9EA8, symBinAddr: 0x10000D060, symSize: 0x28 }
  - { offsetInCU: 0x3B2A5, offset: 0x3B2A5, size: 0x8, addend: 0x0, symName: __ZNSt3__117__compressed_pairIPiRNS_9allocatorIiEEEC2B8ue170006IDnS4_EEOT_OT0_, symObjAddr: 0x9ED0, symBinAddr: 0x10000D088, symSize: 0x48 }
  - { offsetInCU: 0x3B2FD, offset: 0x3B2FD, size: 0x8, addend: 0x0, symName: __ZNSt3__122__compressed_pair_elemIRNS_9allocatorIiEELi1ELb0EEC2B8ue170006IS3_vEEOT_, symObjAddr: 0x9F18, symBinAddr: 0x10000D0D0, symSize: 0x20 }
  - { offsetInCU: 0x3B33F, offset: 0x3B33F, size: 0x8, addend: 0x0, symName: __ZNSt3__19allocatorIiE8allocateB8ue170006Em, symObjAddr: 0x9F38, symBinAddr: 0x10000D0F0, symSize: 0x58 }
  - { offsetInCU: 0x3B373, offset: 0x3B373, size: 0x8, addend: 0x0, symName: __ZNSt3__117__compressed_pairIPiRNS_9allocatorIiEEE6secondB8ue170006Ev, symObjAddr: 0x9F90, symBinAddr: 0x10000D148, symSize: 0x28 }
  - { offsetInCU: 0x3B399, offset: 0x3B399, size: 0x8, addend: 0x0, symName: __ZNSt3__122__compressed_pair_elemIRNS_9allocatorIiEELi1ELb0EE5__getB8ue170006Ev, symObjAddr: 0x9FB8, symBinAddr: 0x10000D170, symSize: 0x18 }
  - { offsetInCU: 0x3B3BF, offset: 0x3B3BF, size: 0x8, addend: 0x0, symName: __ZNSt3__117__compressed_pairIPiRNS_9allocatorIiEEE5firstB8ue170006Ev, symObjAddr: 0x9FD0, symBinAddr: 0x10000D188, symSize: 0x24 }
  - { offsetInCU: 0x3B3E5, offset: 0x3B3E5, size: 0x8, addend: 0x0, symName: __ZNKSt3__16vectorIiNS_9allocatorIiEEE17__annotate_deleteB8ue170006Ev, symObjAddr: 0x9FF4, symBinAddr: 0x10000D1AC, symSize: 0xB8 }
  - { offsetInCU: 0x3B40B, offset: 0x3B40B, size: 0x8, addend: 0x0, symName: __ZNSt3__116reverse_iteratorIPiEC1B8ue170006ES1_, symObjAddr: 0xA124, symBinAddr: 0x10000D2DC, symSize: 0x34 }
  - { offsetInCU: 0x3B443, offset: 0x3B443, size: 0x8, addend: 0x0, symName: __ZNKSt3__116reverse_iteratorIPiE4baseB8ue170006Ev, symObjAddr: 0xA158, symBinAddr: 0x10000D310, symSize: 0x18 }
  - { offsetInCU: 0x3B469, offset: 0x3B469, size: 0x8, addend: 0x0, symName: __ZNKSt3__16vectorIiNS_9allocatorIiEEE14__annotate_newB8ue170006Em, symObjAddr: 0xA1AC, symBinAddr: 0x10000D364, symSize: 0xAC }
  - { offsetInCU: 0x3B49E, offset: 0x3B49E, size: 0x8, addend: 0x0, symName: __ZNKSt3__16vectorIiNS_9allocatorIiEEE31__annotate_contiguous_containerB8ue170006EPKvS5_S5_S5_, symObjAddr: 0xA258, symBinAddr: 0x10000D410, symSize: 0x20 }
  - { offsetInCU: 0x3B4F4, offset: 0x3B4F4, size: 0x8, addend: 0x0, symName: __ZNKSt3__16vectorIiNS_9allocatorIiEEE4dataB8ue170006Ev, symObjAddr: 0xA278, symBinAddr: 0x10000D430, symSize: 0x28 }
  - { offsetInCU: 0x3B542, offset: 0x3B542, size: 0x8, addend: 0x0, symName: __ZNKSt3__111__move_loopINS_17_ClassicAlgPolicyEEclB8ue170006INS_16reverse_iteratorIPiEES6_S6_EENS_4pairIT_T1_EES8_T0_S9_, symObjAddr: 0xA558, symBinAddr: 0x10000D710, symSize: 0xA0 }
  - { offsetInCU: 0x3B5AD, offset: 0x3B5AD, size: 0x8, addend: 0x0, symName: __ZNSt3__119__unwrap_range_implINS_16reverse_iteratorIPiEES3_E8__unwrapB8ue170006ES3_S3_, symObjAddr: 0xA744, symBinAddr: 0x10000D8FC, symSize: 0x84 }
  - { offsetInCU: 0x3B5E4, offset: 0x3B5E4, size: 0x8, addend: 0x0, symName: __ZNSt3__14pairINS_16reverse_iteratorIPiEES3_EC1B8ue170006IS3_S3_LPv0EEEOT_OT0_, symObjAddr: 0xA7C8, symBinAddr: 0x10000D980, symSize: 0x3C }
  - { offsetInCU: 0x3B642, offset: 0x3B642, size: 0x8, addend: 0x0, symName: __ZNSt3__14pairINS_16reverse_iteratorIPiEES3_EC2B8ue170006IS3_S3_LPv0EEEOT_OT0_, symObjAddr: 0xA804, symBinAddr: 0x10000D9BC, symSize: 0x34 }
  - { offsetInCU: 0x3B6A0, offset: 0x3B6A0, size: 0x8, addend: 0x0, symName: __ZNSt3__18_IterOpsINS_17_ClassicAlgPolicyEE11__iter_moveB8ue170006IRNS_16reverse_iteratorIPiEEEENS_9enable_ifIXsr12is_referenceIDTdeclsr3stdE7declvalIRT_EEEEE5valueEDTclsr3stdE4movedeclsr3stdE7declvalISA_EEEEE4typeEOS9_, symObjAddr: 0xA880, symBinAddr: 0x10000DA38, symSize: 0x28 }
  - { offsetInCU: 0x3B6CC, offset: 0x3B6CC, size: 0x8, addend: 0x0, symName: __ZNKSt3__116reverse_iteratorIPiEdeB8ue170006Ev, symObjAddr: 0xA8A8, symBinAddr: 0x10000DA60, symSize: 0x28 }
  - { offsetInCU: 0x3B700, offset: 0x3B700, size: 0x8, addend: 0x0, symName: __ZNSt3__116reverse_iteratorIPiEppB8ue170006Ev, symObjAddr: 0xA8D0, symBinAddr: 0x10000DA88, symSize: 0x20 }
  - { offsetInCU: 0x3B726, offset: 0x3B726, size: 0x8, addend: 0x0, symName: __ZNSt3__18_IterOpsINS_17_ClassicAlgPolicyEE25__validate_iter_referenceB8ue170006IRNS_16reverse_iteratorIPiEEEEvv, symObjAddr: 0xA8F0, symBinAddr: 0x10000DAA8, symSize: 0x4 }
  - { offsetInCU: 0x3B744, offset: 0x3B744, size: 0x8, addend: 0x0, symName: __ZNSt3__118__unwrap_iter_implINS_16reverse_iteratorIPiEELb0EE8__unwrapB8ue170006ES3_, symObjAddr: 0xA8F4, symBinAddr: 0x10000DAAC, symSize: 0x24 }
  - { offsetInCU: 0x3B767, offset: 0x3B767, size: 0x8, addend: 0x0, symName: __ZNSt3__119__unwrap_range_implINS_16reverse_iteratorIPiEES3_E8__rewrapB8ue170006ES3_S3_, symObjAddr: 0xA918, symBinAddr: 0x10000DAD0, symSize: 0x5C }
  - { offsetInCU: 0x3B798, offset: 0x3B798, size: 0x8, addend: 0x0, symName: __ZNSt3__118__unwrap_iter_implINS_16reverse_iteratorIPiEELb0EE8__rewrapB8ue170006ES3_S3_, symObjAddr: 0xA974, symBinAddr: 0x10000DB2C, symSize: 0x2C }
  - { offsetInCU: 0x3B7C6, offset: 0x3B7C6, size: 0x8, addend: 0x0, symName: __ZNSt3__116reverse_iteratorIPiEC2B8ue170006ES1_, symObjAddr: 0xA9A0, symBinAddr: 0x10000DB58, symSize: 0x28 }
  - { offsetInCU: 0x3B7FE, offset: 0x3B7FE, size: 0x8, addend: 0x0, symName: __ZNSt3__114__split_bufferIiRNS_9allocatorIiEEED2Ev, symObjAddr: 0xA9C8, symBinAddr: 0x10000DB80, symSize: 0x8C }
  - { offsetInCU: 0x3B82A, offset: 0x3B82A, size: 0x8, addend: 0x0, symName: __ZNSt3__114__split_bufferIiRNS_9allocatorIiEEE5clearB8ue170006Ev, symObjAddr: 0xAA54, symBinAddr: 0x10000DC0C, symSize: 0x28 }
  - { offsetInCU: 0x3B850, offset: 0x3B850, size: 0x8, addend: 0x0, symName: __ZNSt3__116allocator_traitsINS_9allocatorIiEEE10deallocateB8ue170006ERS2_Pim, symObjAddr: 0xAA7C, symBinAddr: 0x10000DC34, symSize: 0x34 }
  - { offsetInCU: 0x3B892, offset: 0x3B892, size: 0x8, addend: 0x0, symName: __ZNKSt3__114__split_bufferIiRNS_9allocatorIiEEE8capacityB8ue170006Ev, symObjAddr: 0xAAB0, symBinAddr: 0x10000DC68, symSize: 0x40 }
  - { offsetInCU: 0x3B8B8, offset: 0x3B8B8, size: 0x8, addend: 0x0, symName: __ZNSt3__114__split_bufferIiRNS_9allocatorIiEEE17__destruct_at_endB8ue170006EPi, symObjAddr: 0xAAF0, symBinAddr: 0x10000DCA8, symSize: 0x2C }
  - { offsetInCU: 0x3B8EC, offset: 0x3B8EC, size: 0x8, addend: 0x0, symName: __ZNSt3__114__split_bufferIiRNS_9allocatorIiEEE17__destruct_at_endB8ue170006EPiNS_17integral_constantIbLb0EEE, symObjAddr: 0xAB1C, symBinAddr: 0x10000DCD4, symSize: 0x80 }
  - { offsetInCU: 0x3B92D, offset: 0x3B92D, size: 0x8, addend: 0x0, symName: __ZNSt3__116allocator_traitsINS_9allocatorIiEEE7destroyB8ue170006IivvEEvRS2_PT_, symObjAddr: 0xAB9C, symBinAddr: 0x10000DD54, symSize: 0x28 }
  - { offsetInCU: 0x3B968, offset: 0x3B968, size: 0x8, addend: 0x0, symName: __ZNSt3__19allocatorIiE10deallocateB8ue170006EPim, symObjAddr: 0xABF8, symBinAddr: 0x10000DDB0, symSize: 0x40 }
  - { offsetInCU: 0x3B9AA, offset: 0x3B9AA, size: 0x8, addend: 0x0, symName: __ZNKSt3__114__split_bufferIiRNS_9allocatorIiEEE9__end_capB8ue170006Ev, symObjAddr: 0xAC38, symBinAddr: 0x10000DDF0, symSize: 0x28 }
  - { offsetInCU: 0x3B9D0, offset: 0x3B9D0, size: 0x8, addend: 0x0, symName: __ZNKSt3__117__compressed_pairIPiRNS_9allocatorIiEEE5firstB8ue170006Ev, symObjAddr: 0xAC60, symBinAddr: 0x10000DE18, symSize: 0x24 }
  - { offsetInCU: 0x3B9F6, offset: 0x3B9F6, size: 0x8, addend: 0x0, symName: __ZNSt3__16vectorIiNS_9allocatorIiEEE22__construct_one_at_endB8ue170006IJRKiEEEvDpOT_, symObjAddr: 0xAC84, symBinAddr: 0x10000DE3C, symSize: 0x90 }
  - { offsetInCU: 0x3BA45, offset: 0x3BA45, size: 0x8, addend: 0x0, symName: __ZNSt3__16vectorIiNS_9allocatorIiEEE21__push_back_slow_pathIRKiEEvOT_, symObjAddr: 0xAD14, symBinAddr: 0x10000DECC, symSize: 0xD8 }
  - { offsetInCU: 0x3BAA3, offset: 0x3BAA3, size: 0x8, addend: 0x0, symName: __ZNSt3__116allocator_traitsINS_9allocatorIiEEE9constructB8ue170006IiJRKiEvvEEvRS2_PT_DpOT0_, symObjAddr: 0xADEC, symBinAddr: 0x10000DFA4, symSize: 0x30 }
  - { offsetInCU: 0x3BAF8, offset: 0x3BAF8, size: 0x8, addend: 0x0, symName: __ZNSt3__16vectorIiNS_9allocatorIiEEE19__copy_assign_allocB8ue170006ERKS3_, symObjAddr: 0xAE48, symBinAddr: 0x10000E000, symSize: 0x2C }
  - { offsetInCU: 0x3BB2D, offset: 0x3BB2D, size: 0x8, addend: 0x0, symName: __ZNSt3__16vectorIiNS_9allocatorIiEEE6assignIPiLi0EEEvT_S6_, symObjAddr: 0xAE74, symBinAddr: 0x10000E02C, symSize: 0x5C }
  - { offsetInCU: 0x3BB82, offset: 0x3BB82, size: 0x8, addend: 0x0, symName: __ZNSt3__16vectorIiNS_9allocatorIiEEE19__copy_assign_allocB8ue170006ERKS3_NS_17integral_constantIbLb0EEE, symObjAddr: 0xAED0, symBinAddr: 0x10000E088, symSize: 0x14 }
  - { offsetInCU: 0x3BBC0, offset: 0x3BBC0, size: 0x8, addend: 0x0, symName: __ZNSt3__16vectorIiNS_9allocatorIiEEE18__assign_with_sizeB8ue170006IPiS5_EEvT_T0_l, symObjAddr: 0xAEE4, symBinAddr: 0x10000E09C, symSize: 0x164 }
  - { offsetInCU: 0x3BC70, offset: 0x3BC70, size: 0x8, addend: 0x0, symName: __ZNSt3__16vectorIiNS_9allocatorIiEEE18__construct_at_endIPiS5_EEvT_T0_m, symObjAddr: 0xB0E8, symBinAddr: 0x10000E2A0, symSize: 0x8C }
  - { offsetInCU: 0x3BCE6, offset: 0x3BCE6, size: 0x8, addend: 0x0, symName: __ZNSt3__16vectorIiNS_9allocatorIiEEE17__destruct_at_endB8ue170006EPi, symObjAddr: 0xB1B8, symBinAddr: 0x10000E370, symSize: 0x4C }
  - { offsetInCU: 0x3BD2A, offset: 0x3BD2A, size: 0x8, addend: 0x0, symName: __ZNSt3__16vectorIiNS_9allocatorIiEEE13__vdeallocateEv, symObjAddr: 0xB204, symBinAddr: 0x10000E3BC, symSize: 0x94 }
  - { offsetInCU: 0x3BD52, offset: 0x3BD52, size: 0x8, addend: 0x0, symName: __ZNSt3__16vectorIiNS_9allocatorIiEEE11__vallocateB8ue170006Em, symObjAddr: 0xB298, symBinAddr: 0x10000E450, symSize: 0xAC }
  - { offsetInCU: 0x3BDB3, offset: 0x3BDB3, size: 0x8, addend: 0x0, symName: __ZNSt3__119__unwrap_range_implIPiS1_E8__unwrapB8ue170006ES1_S1_, symObjAddr: 0xB4F8, symBinAddr: 0x10000E6B0, symSize: 0x58 }
  - { offsetInCU: 0x3BDEA, offset: 0x3BDEA, size: 0x8, addend: 0x0, symName: __ZNSt3__14pairIPiS1_EC1B8ue170006IS1_S1_LPv0EEEOT_OT0_, symObjAddr: 0xB550, symBinAddr: 0x10000E708, symSize: 0x3C }
  - { offsetInCU: 0x3BE48, offset: 0x3BE48, size: 0x8, addend: 0x0, symName: __ZNSt3__14pairIPiS1_EC2B8ue170006IS1_S1_LPv0EEEOT_OT0_, symObjAddr: 0xB58C, symBinAddr: 0x10000E744, symSize: 0x34 }
  - { offsetInCU: 0x3BEA6, offset: 0x3BEA6, size: 0x8, addend: 0x0, symName: __ZNSt3__118__unwrap_iter_implIPiLb1EE8__unwrapB8ue170006ES1_, symObjAddr: 0xB5C0, symBinAddr: 0x10000E778, symSize: 0x24 }
  - { offsetInCU: 0x3BEC9, offset: 0x3BEC9, size: 0x8, addend: 0x0, symName: __ZNSt3__118__unwrap_iter_implIPiLb1EE8__rewrapB8ue170006ES1_S1_, symObjAddr: 0xB5E4, symBinAddr: 0x10000E79C, symSize: 0x50 }
  - { offsetInCU: 0x3BF05, offset: 0x3BF05, size: 0x8, addend: 0x0, symName: __ZNKSt3__114__copy_trivialclB8ue170006IiiLi0EEENS_4pairIPT_PT0_EES4_S4_S6_, symObjAddr: 0xB72C, symBinAddr: 0x10000E8E4, symSize: 0x48 }
  - { offsetInCU: 0x3BF6D, offset: 0x3BF6D, size: 0x8, addend: 0x0, symName: __ZNSt3__14pairIPiS1_EC1B8ue170006IRS1_S1_LPv0EEEOT_OT0_, symObjAddr: 0xB8F4, symBinAddr: 0x10000EAAC, symSize: 0x3C }
  - { offsetInCU: 0x3BFCB, offset: 0x3BFCB, size: 0x8, addend: 0x0, symName: __ZNSt3__14pairIPiS1_EC2B8ue170006IRS1_S1_LPv0EEEOT_OT0_, symObjAddr: 0xB930, symBinAddr: 0x10000EAE8, symSize: 0x34 }
  - { offsetInCU: 0x3C029, offset: 0x3C029, size: 0x8, addend: 0x0, symName: __ZNSt3__119__unwrap_range_implIPiS1_E8__rewrapB8ue170006ES1_S1_, symObjAddr: 0xB964, symBinAddr: 0x10000EB1C, symSize: 0x2C }
  - { offsetInCU: 0x3C05A, offset: 0x3C05A, size: 0x8, addend: 0x0, symName: __ZNSt3__16vectorIiNS_9allocatorIiEEE22__base_destruct_at_endB8ue170006EPi, symObjAddr: 0xB990, symBinAddr: 0x10000EB48, symSize: 0x8C }
  - { offsetInCU: 0x3C09E, offset: 0x3C09E, size: 0x8, addend: 0x0, symName: __ZNKSt3__16vectorIiNS_9allocatorIiEEE17__annotate_shrinkB8ue170006Em, symObjAddr: 0xBA1C, symBinAddr: 0x10000EBD4, symSize: 0xB4 }
  - { offsetInCU: 0x3C0D3, offset: 0x3C0D3, size: 0x8, addend: 0x0, symName: __ZNSt3__16vectorIiNS_9allocatorIiEEE5clearB8ue170006Ev, symObjAddr: 0xBAD0, symBinAddr: 0x10000EC88, symSize: 0x44 }
  - { offsetInCU: 0x3C108, offset: 0x3C108, size: 0x8, addend: 0x0, symName: __ZNSt3__16vectorIiNS_9allocatorIiEEE7__clearB8ue170006Ev, symObjAddr: 0xBB14, symBinAddr: 0x10000ECCC, symSize: 0x28 }
  - { offsetInCU: 0x3C12E, offset: 0x3C12E, size: 0x8, addend: 0x0, symName: __ZNSt3__16vectorIiNS_9allocatorIiEEED2B8ue170006Ev, symObjAddr: 0xBB64, symBinAddr: 0x10000ED1C, symSize: 0x44 }
  - { offsetInCU: 0x3C158, offset: 0x3C158, size: 0x8, addend: 0x0, symName: __ZNSt3__16vectorIiNS_9allocatorIiEEE16__destroy_vectorC1B8ue170006ERS3_, symObjAddr: 0xBBA8, symBinAddr: 0x10000ED60, symSize: 0x34 }
  - { offsetInCU: 0x3C191, offset: 0x3C191, size: 0x8, addend: 0x0, symName: __ZNSt3__16vectorIiNS_9allocatorIiEEE16__destroy_vectorclB8ue170006Ev, symObjAddr: 0xBBDC, symBinAddr: 0x10000ED94, symSize: 0x90 }
  - { offsetInCU: 0x3C1B7, offset: 0x3C1B7, size: 0x8, addend: 0x0, symName: __ZNSt3__16vectorIiNS_9allocatorIiEEE16__destroy_vectorC2B8ue170006ERS3_, symObjAddr: 0xBC6C, symBinAddr: 0x10000EE24, symSize: 0x20 }
  - { offsetInCU: 0x3C1F0, offset: 0x3C1F0, size: 0x8, addend: 0x0, symName: __ZNKSt3__16vectorINS_12basic_stringIcNS_11char_traitsIcEENS_9allocatorIcEEEENS4_IS6_EEE11__make_iterB8ue170006EPKS6_, symObjAddr: 0xBC8C, symBinAddr: 0x10000EE44, symSize: 0x30 }
  - { offsetInCU: 0x3C225, offset: 0x3C225, size: 0x8, addend: 0x0, symName: __ZNSt3__111__wrap_iterIPKNS_12basic_stringIcNS_11char_traitsIcEENS_9allocatorIcEEEEEC1B8ue170006ES8_, symObjAddr: 0xBCBC, symBinAddr: 0x10000EE74, symSize: 0x34 }
  - { offsetInCU: 0x3C25D, offset: 0x3C25D, size: 0x8, addend: 0x0, symName: __ZNSt3__111__wrap_iterIPKNS_12basic_stringIcNS_11char_traitsIcEENS_9allocatorIcEEEEEC2B8ue170006ES8_, symObjAddr: 0xBCF0, symBinAddr: 0x10000EEA8, symSize: 0x20 }
  - { offsetInCU: 0x3C295, offset: 0x3C295, size: 0x8, addend: 0x0, symName: __ZNKSt3__111__wrap_iterIPKNS_12basic_stringIcNS_11char_traitsIcEENS_9allocatorIcEEEEE4baseB8ue170006Ev, symObjAddr: 0xBD58, symBinAddr: 0x10000EF10, symSize: 0x18 }
  - { offsetInCU: 0x3C2BB, offset: 0x3C2BB, size: 0x8, addend: 0x0, symName: __ZNSt3__16vectorINS_4pairINS_12basic_stringIcNS_11char_traitsIcEENS_9allocatorIcEEEEiEENS5_IS8_EEEC2INS_20__map_const_iteratorINS_21__tree_const_iteratorINS_12__value_typeIS7_iEEPNS_11__tree_nodeISF_PvEElEEEELi0EEET_SM_, symObjAddr: 0xBD70, symBinAddr: 0x10000EF28, symSize: 0x94 }
  - { offsetInCU: 0x3C331, offset: 0x3C331, size: 0x8, addend: 0x0, symName: __ZNSt3__117__compressed_pairIPNS_4pairINS_12basic_stringIcNS_11char_traitsIcEENS_9allocatorIcEEEEiEENS5_IS8_EEEC1B8ue170006IDnNS_18__default_init_tagEEEOT_OT0_, symObjAddr: 0xBE04, symBinAddr: 0x10000EFBC, symSize: 0x3C }
  - { offsetInCU: 0x3C389, offset: 0x3C389, size: 0x8, addend: 0x0, symName: __ZNSt3__16vectorINS_4pairINS_12basic_stringIcNS_11char_traitsIcEENS_9allocatorIcEEEEiEENS5_IS8_EEE16__init_with_sizeB8ue170006INS_20__map_const_iteratorINS_21__tree_const_iteratorINS_12__value_typeIS7_iEEPNS_11__tree_nodeISF_PvEElEEEESL_EEvT_T0_m, symObjAddr: 0xBE7C, symBinAddr: 0x10000F034, symSize: 0xC8 }
  - { offsetInCU: 0x3C3FD, offset: 0x3C3FD, size: 0x8, addend: 0x0, symName: __ZNSt3__117__compressed_pairIPNS_4pairINS_12basic_stringIcNS_11char_traitsIcEENS_9allocatorIcEEEEiEENS5_IS8_EEEC2B8ue170006IDnNS_18__default_init_tagEEEOT_OT0_, symObjAddr: 0xBF44, symBinAddr: 0x10000F0FC, symSize: 0x40 }
  - { offsetInCU: 0x3C455, offset: 0x3C455, size: 0x8, addend: 0x0, symName: __ZNSt3__122__compressed_pair_elemIPNS_4pairINS_12basic_stringIcNS_11char_traitsIcEENS_9allocatorIcEEEEiEELi0ELb0EEC2B8ue170006IDnvEEOT_, symObjAddr: 0xBF84, symBinAddr: 0x10000F13C, symSize: 0x1C }
  - { offsetInCU: 0x3C497, offset: 0x3C497, size: 0x8, addend: 0x0, symName: __ZNSt3__122__compressed_pair_elemINS_9allocatorINS_4pairINS_12basic_stringIcNS_11char_traitsIcEENS1_IcEEEEiEEEELi1ELb1EEC2B8ue170006ENS_18__default_init_tagE, symObjAddr: 0xBFA0, symBinAddr: 0x10000F158, symSize: 0x2C }
  - { offsetInCU: 0x3C4CC, offset: 0x3C4CC, size: 0x8, addend: 0x0, symName: __ZNSt3__19allocatorINS_4pairINS_12basic_stringIcNS_11char_traitsIcEENS0_IcEEEEiEEEC2B8ue170006Ev, symObjAddr: 0xBFCC, symBinAddr: 0x10000F184, symSize: 0x2C }
  - { offsetInCU: 0x3C4F6, offset: 0x3C4F6, size: 0x8, addend: 0x0, symName: __ZNSt3__116__non_trivial_ifILb1ENS_9allocatorINS_4pairINS_12basic_stringIcNS_11char_traitsIcEENS1_IcEEEEiEEEEEC2B8ue170006Ev, symObjAddr: 0xBFF8, symBinAddr: 0x10000F1B0, symSize: 0x14 }
  - { offsetInCU: 0x3C520, offset: 0x3C520, size: 0x8, addend: 0x0, symName: __ZNSt3__120__map_const_iteratorINS_21__tree_const_iteratorINS_12__value_typeINS_12basic_stringIcNS_11char_traitsIcEENS_9allocatorIcEEEEiEEPNS_11__tree_nodeIS9_PvEElEEEppB8ue170006Ev, symObjAddr: 0xC098, symBinAddr: 0x10000F250, symSize: 0x2C }
  - { offsetInCU: 0x3C546, offset: 0x3C546, size: 0x8, addend: 0x0, symName: __ZNSt3__121__tree_const_iteratorINS_12__value_typeINS_12basic_stringIcNS_11char_traitsIcEENS_9allocatorIcEEEEiEEPNS_11__tree_nodeIS8_PvEElEppB8ue170006Ev, symObjAddr: 0xC128, symBinAddr: 0x10000F2E0, symSize: 0x38 }
  - { offsetInCU: 0x3C56C, offset: 0x3C56C, size: 0x8, addend: 0x0, symName: __ZNKSt3__116__tree_node_baseIPvE15__parent_unsafeB8ue170006Ev, symObjAddr: 0xC25C, symBinAddr: 0x10000F414, symSize: 0x18 }
  - { offsetInCU: 0x3C592, offset: 0x3C592, size: 0x8, addend: 0x0, symName: __ZNSt3__16vectorINS_4pairINS_12basic_stringIcNS_11char_traitsIcEENS_9allocatorIcEEEEiEENS5_IS8_EEE16__destroy_vectorC1B8ue170006ERSA_, symObjAddr: 0xC2B4, symBinAddr: 0x10000F46C, symSize: 0x34 }
  - { offsetInCU: 0x3C5CB, offset: 0x3C5CB, size: 0x8, addend: 0x0, symName: __ZNSt3__16vectorINS_4pairINS_12basic_stringIcNS_11char_traitsIcEENS_9allocatorIcEEEEiEENS5_IS8_EEE11__vallocateB8ue170006Em, symObjAddr: 0xC2E8, symBinAddr: 0x10000F4A0, symSize: 0xAC }
  - { offsetInCU: 0x3C60F, offset: 0x3C60F, size: 0x8, addend: 0x0, symName: __ZNSt3__16vectorINS_4pairINS_12basic_stringIcNS_11char_traitsIcEENS_9allocatorIcEEEEiEENS5_IS8_EEE18__construct_at_endINS_20__map_const_iteratorINS_21__tree_const_iteratorINS_12__value_typeIS7_iEEPNS_11__tree_nodeISF_PvEElEEEESL_EEvT_T0_m, symObjAddr: 0xC394, symBinAddr: 0x10000F54C, symSize: 0x9C }
  - { offsetInCU: 0x3C685, offset: 0x3C685, size: 0x8, addend: 0x0, symName: __ZNSt3__128__exception_guard_exceptionsINS_6vectorINS_4pairINS_12basic_stringIcNS_11char_traitsIcEENS_9allocatorIcEEEEiEENS6_IS9_EEE16__destroy_vectorEE10__completeB8ue170006Ev, symObjAddr: 0xC430, symBinAddr: 0x10000F5E8, symSize: 0x1C }
  - { offsetInCU: 0x3C6AB, offset: 0x3C6AB, size: 0x8, addend: 0x0, symName: __ZNSt3__128__exception_guard_exceptionsINS_6vectorINS_4pairINS_12basic_stringIcNS_11char_traitsIcEENS_9allocatorIcEEEEiEENS6_IS9_EEE16__destroy_vectorEED1B8ue170006Ev, symObjAddr: 0xC44C, symBinAddr: 0x10000F604, symSize: 0x2C }
  - { offsetInCU: 0x3C6D5, offset: 0x3C6D5, size: 0x8, addend: 0x0, symName: __ZNSt3__128__exception_guard_exceptionsINS_6vectorINS_4pairINS_12basic_stringIcNS_11char_traitsIcEENS_9allocatorIcEEEEiEENS6_IS9_EEE16__destroy_vectorEEC1B8ue170006ESC_, symObjAddr: 0xC478, symBinAddr: 0x10000F630, symSize: 0x34 }
  - { offsetInCU: 0x3C70D, offset: 0x3C70D, size: 0x8, addend: 0x0, symName: __ZNSt3__128__exception_guard_exceptionsINS_6vectorINS_4pairINS_12basic_stringIcNS_11char_traitsIcEENS_9allocatorIcEEEEiEENS6_IS9_EEE16__destroy_vectorEEC2B8ue170006ESC_, symObjAddr: 0xC4AC, symBinAddr: 0x10000F664, symSize: 0x24 }
  - { offsetInCU: 0x3C745, offset: 0x3C745, size: 0x8, addend: 0x0, symName: __ZNSt3__16vectorINS_4pairINS_12basic_stringIcNS_11char_traitsIcEENS_9allocatorIcEEEEiEENS5_IS8_EEE16__destroy_vectorC2B8ue170006ERSA_, symObjAddr: 0xC4D0, symBinAddr: 0x10000F688, symSize: 0x20 }
  - { offsetInCU: 0x3C77E, offset: 0x3C77E, size: 0x8, addend: 0x0, symName: __ZNKSt3__16vectorINS_4pairINS_12basic_stringIcNS_11char_traitsIcEENS_9allocatorIcEEEEiEENS5_IS8_EEE8max_sizeEv, symObjAddr: 0xC4F0, symBinAddr: 0x10000F6A8, symSize: 0x60 }
  - { offsetInCU: 0x3C7A6, offset: 0x3C7A6, size: 0x8, addend: 0x0, symName: __ZNKSt3__16vectorINS_4pairINS_12basic_stringIcNS_11char_traitsIcEENS_9allocatorIcEEEEiEENS5_IS8_EEE20__throw_length_errorB8ue170006Ev, symObjAddr: 0xC550, symBinAddr: 0x10000F708, symSize: 0x1C }
  - { offsetInCU: 0x3C7CC, offset: 0x3C7CC, size: 0x8, addend: 0x0, symName: __ZNSt3__16vectorINS_4pairINS_12basic_stringIcNS_11char_traitsIcEENS_9allocatorIcEEEEiEENS5_IS8_EEE7__allocB8ue170006Ev, symObjAddr: 0xC5AC, symBinAddr: 0x10000F764, symSize: 0x28 }
  - { offsetInCU: 0x3C7F2, offset: 0x3C7F2, size: 0x8, addend: 0x0, symName: __ZNSt3__16vectorINS_4pairINS_12basic_stringIcNS_11char_traitsIcEENS_9allocatorIcEEEEiEENS5_IS8_EEE9__end_capB8ue170006Ev, symObjAddr: 0xC5D4, symBinAddr: 0x10000F78C, symSize: 0x28 }
  - { offsetInCU: 0x3C818, offset: 0x3C818, size: 0x8, addend: 0x0, symName: __ZNKSt3__16vectorINS_4pairINS_12basic_stringIcNS_11char_traitsIcEENS_9allocatorIcEEEEiEENS5_IS8_EEE14__annotate_newB8ue170006Em, symObjAddr: 0xC5FC, symBinAddr: 0x10000F7B4, symSize: 0xAC }
  - { offsetInCU: 0x3C858, offset: 0x3C858, size: 0x8, addend: 0x0, symName: __ZNSt3__116allocator_traitsINS_9allocatorINS_4pairINS_12basic_stringIcNS_11char_traitsIcEENS1_IcEEEEiEEEEE8max_sizeB8ue170006IS9_vvEEmRKS9_, symObjAddr: 0xC6A8, symBinAddr: 0x10000F860, symSize: 0x28 }
  - { offsetInCU: 0x3C884, offset: 0x3C884, size: 0x8, addend: 0x0, symName: __ZNKSt3__16vectorINS_4pairINS_12basic_stringIcNS_11char_traitsIcEENS_9allocatorIcEEEEiEENS5_IS8_EEE7__allocB8ue170006Ev, symObjAddr: 0xC6D0, symBinAddr: 0x10000F888, symSize: 0x28 }
  - { offsetInCU: 0x3C8AA, offset: 0x3C8AA, size: 0x8, addend: 0x0, symName: __ZNKSt3__117__compressed_pairIPNS_4pairINS_12basic_stringIcNS_11char_traitsIcEENS_9allocatorIcEEEEiEENS5_IS8_EEE6secondB8ue170006Ev, symObjAddr: 0xC6F8, symBinAddr: 0x10000F8B0, symSize: 0x24 }
  - { offsetInCU: 0x3C8D0, offset: 0x3C8D0, size: 0x8, addend: 0x0, symName: __ZNKSt3__122__compressed_pair_elemINS_9allocatorINS_4pairINS_12basic_stringIcNS_11char_traitsIcEENS1_IcEEEEiEEEELi1ELb1EE5__getB8ue170006Ev, symObjAddr: 0xC71C, symBinAddr: 0x10000F8D4, symSize: 0x14 }
  - { offsetInCU: 0x3C8F6, offset: 0x3C8F6, size: 0x8, addend: 0x0, symName: __ZNSt3__19allocatorINS_4pairINS_12basic_stringIcNS_11char_traitsIcEENS0_IcEEEEiEEE8allocateB8ue170006Em, symObjAddr: 0xC730, symBinAddr: 0x10000F8E8, symSize: 0x58 }
  - { offsetInCU: 0x3C92A, offset: 0x3C92A, size: 0x8, addend: 0x0, symName: __ZNSt3__117__compressed_pairIPNS_4pairINS_12basic_stringIcNS_11char_traitsIcEENS_9allocatorIcEEEEiEENS5_IS8_EEE6secondB8ue170006Ev, symObjAddr: 0xC788, symBinAddr: 0x10000F940, symSize: 0x24 }
  - { offsetInCU: 0x3C950, offset: 0x3C950, size: 0x8, addend: 0x0, symName: __ZNSt3__122__compressed_pair_elemINS_9allocatorINS_4pairINS_12basic_stringIcNS_11char_traitsIcEENS1_IcEEEEiEEEELi1ELb1EE5__getB8ue170006Ev, symObjAddr: 0xC7AC, symBinAddr: 0x10000F964, symSize: 0x14 }
  - { offsetInCU: 0x3C976, offset: 0x3C976, size: 0x8, addend: 0x0, symName: __ZNSt3__117__compressed_pairIPNS_4pairINS_12basic_stringIcNS_11char_traitsIcEENS_9allocatorIcEEEEiEENS5_IS8_EEE5firstB8ue170006Ev, symObjAddr: 0xC7C0, symBinAddr: 0x10000F978, symSize: 0x24 }
  - { offsetInCU: 0x3C99C, offset: 0x3C99C, size: 0x8, addend: 0x0, symName: __ZNSt3__122__compressed_pair_elemIPNS_4pairINS_12basic_stringIcNS_11char_traitsIcEENS_9allocatorIcEEEEiEELi0ELb0EE5__getB8ue170006Ev, symObjAddr: 0xC7E4, symBinAddr: 0x10000F99C, symSize: 0x14 }
  - { offsetInCU: 0x3C9C2, offset: 0x3C9C2, size: 0x8, addend: 0x0, symName: __ZNKSt3__16vectorINS_4pairINS_12basic_stringIcNS_11char_traitsIcEENS_9allocatorIcEEEEiEENS5_IS8_EEE31__annotate_contiguous_containerB8ue170006EPKvSC_SC_SC_, symObjAddr: 0xC7F8, symBinAddr: 0x10000F9B0, symSize: 0x20 }
  - { offsetInCU: 0x3CA18, offset: 0x3CA18, size: 0x8, addend: 0x0, symName: __ZNKSt3__16vectorINS_4pairINS_12basic_stringIcNS_11char_traitsIcEENS_9allocatorIcEEEEiEENS5_IS8_EEE4dataB8ue170006Ev, symObjAddr: 0xC818, symBinAddr: 0x10000F9D0, symSize: 0x28 }
  - { offsetInCU: 0x3CA3E, offset: 0x3CA3E, size: 0x8, addend: 0x0, symName: __ZNKSt3__16vectorINS_4pairINS_12basic_stringIcNS_11char_traitsIcEENS_9allocatorIcEEEEiEENS5_IS8_EEE8capacityB8ue170006Ev, symObjAddr: 0xC840, symBinAddr: 0x10000F9F8, symSize: 0x40 }
  - { offsetInCU: 0x3CA64, offset: 0x3CA64, size: 0x8, addend: 0x0, symName: __ZNKSt3__16vectorINS_4pairINS_12basic_stringIcNS_11char_traitsIcEENS_9allocatorIcEEEEiEENS5_IS8_EEE9__end_capB8ue170006Ev, symObjAddr: 0xC894, symBinAddr: 0x10000FA4C, symSize: 0x28 }
  - { offsetInCU: 0x3CA8A, offset: 0x3CA8A, size: 0x8, addend: 0x0, symName: __ZNKSt3__117__compressed_pairIPNS_4pairINS_12basic_stringIcNS_11char_traitsIcEENS_9allocatorIcEEEEiEENS5_IS8_EEE5firstB8ue170006Ev, symObjAddr: 0xC8BC, symBinAddr: 0x10000FA74, symSize: 0x24 }
  - { offsetInCU: 0x3CAB0, offset: 0x3CAB0, size: 0x8, addend: 0x0, symName: __ZNKSt3__122__compressed_pair_elemIPNS_4pairINS_12basic_stringIcNS_11char_traitsIcEENS_9allocatorIcEEEEiEELi0ELb0EE5__getB8ue170006Ev, symObjAddr: 0xC8E0, symBinAddr: 0x10000FA98, symSize: 0x14 }
  - { offsetInCU: 0x3CAF2, offset: 0x3CAF2, size: 0x8, addend: 0x0, symName: __ZNSt3__16vectorINS_4pairINS_12basic_stringIcNS_11char_traitsIcEENS_9allocatorIcEEEEiEENS5_IS8_EEE21_ConstructTransactionC1B8ue170006ERSA_m, symObjAddr: 0xC8F4, symBinAddr: 0x10000FAAC, symSize: 0x3C }
  - { offsetInCU: 0x3CB3A, offset: 0x3CB3A, size: 0x8, addend: 0x0, symName: __ZNSt3__16vectorINS_4pairINS_12basic_stringIcNS_11char_traitsIcEENS_9allocatorIcEEEEiEENS5_IS8_EEE21_ConstructTransactionD1B8ue170006Ev, symObjAddr: 0xC9C0, symBinAddr: 0x10000FB78, symSize: 0x2C }
  - { offsetInCU: 0x3CB64, offset: 0x3CB64, size: 0x8, addend: 0x0, symName: __ZNSt3__16vectorINS_4pairINS_12basic_stringIcNS_11char_traitsIcEENS_9allocatorIcEEEEiEENS5_IS8_EEE21_ConstructTransactionC2B8ue170006ERSA_m, symObjAddr: 0xC9EC, symBinAddr: 0x10000FBA4, symSize: 0x44 }
  - { offsetInCU: 0x3CBAC, offset: 0x3CBAC, size: 0x8, addend: 0x0, symName: __ZNSt3__119__unwrap_range_implINS_20__map_const_iteratorINS_21__tree_const_iteratorINS_12__value_typeINS_12basic_stringIcNS_11char_traitsIcEENS_9allocatorIcEEEEiEEPNS_11__tree_nodeISA_PvEElEEEESG_E8__unwrapB8ue170006ESG_SG_, symObjAddr: 0xCBEC, symBinAddr: 0x10000FDA4, symSize: 0x68 }
  - { offsetInCU: 0x3CBE3, offset: 0x3CBE3, size: 0x8, addend: 0x0, symName: __ZNSt3__14pairINS_20__map_const_iteratorINS_21__tree_const_iteratorINS_12__value_typeINS_12basic_stringIcNS_11char_traitsIcEENS_9allocatorIcEEEEiEEPNS_11__tree_nodeISA_PvEElEEEESG_EC1B8ue170006ISG_SG_LSC_0EEEOT_OT0_, symObjAddr: 0xCC88, symBinAddr: 0x10000FE40, symSize: 0x3C }
  - { offsetInCU: 0x3CC41, offset: 0x3CC41, size: 0x8, addend: 0x0, symName: __ZNSt3__118__unwrap_iter_implINS_20__map_const_iteratorINS_21__tree_const_iteratorINS_12__value_typeINS_12basic_stringIcNS_11char_traitsIcEENS_9allocatorIcEEEEiEEPNS_11__tree_nodeISA_PvEElEEEELb0EE8__unwrapB8ue170006ESG_, symObjAddr: 0xCCC4, symBinAddr: 0x10000FE7C, symSize: 0x1C }
  - { offsetInCU: 0x3CC64, offset: 0x3CC64, size: 0x8, addend: 0x0, symName: __ZNSt3__14pairINS_20__map_const_iteratorINS_21__tree_const_iteratorINS_12__value_typeINS_12basic_stringIcNS_11char_traitsIcEENS_9allocatorIcEEEEiEEPNS_11__tree_nodeISA_PvEElEEEESG_EC2B8ue170006ISG_SG_LSC_0EEEOT_OT0_, symObjAddr: 0xCCE0, symBinAddr: 0x10000FE98, symSize: 0x34 }
  - { offsetInCU: 0x3CCC2, offset: 0x3CCC2, size: 0x8, addend: 0x0, symName: __ZNSt3__129_AllocatorDestroyRangeReverseINS_9allocatorINS_4pairINS_12basic_stringIcNS_11char_traitsIcEENS1_IcEEEEiEEEEPS8_EC1B8ue170006ERS9_RSA_SD_, symObjAddr: 0xCD60, symBinAddr: 0x10000FF18, symSize: 0x44 }
  - { offsetInCU: 0x3CD19, offset: 0x3CD19, size: 0x8, addend: 0x0, symName: __ZNSt3__116allocator_traitsINS_9allocatorINS_4pairINS_12basic_stringIcNS_11char_traitsIcEENS1_IcEEEEiEEEEE9constructB8ue170006IS8_JRKNS2_IKS7_iEEEvvEEvRS9_PT_DpOT0_, symObjAddr: 0xCDA4, symBinAddr: 0x10000FF5C, symSize: 0x30 }
  - { offsetInCU: 0x3CD6E, offset: 0x3CD6E, size: 0x8, addend: 0x0, symName: __ZNKSt3__120__map_const_iteratorINS_21__tree_const_iteratorINS_12__value_typeINS_12basic_stringIcNS_11char_traitsIcEENS_9allocatorIcEEEEiEEPNS_11__tree_nodeIS9_PvEElEEEdeB8ue170006Ev, symObjAddr: 0xCDD4, symBinAddr: 0x10000FF8C, symSize: 0x28 }
  - { offsetInCU: 0x3CD94, offset: 0x3CD94, size: 0x8, addend: 0x0, symName: __ZNSt3__128__exception_guard_exceptionsINS_29_AllocatorDestroyRangeReverseINS_9allocatorINS_4pairINS_12basic_stringIcNS_11char_traitsIcEENS2_IcEEEEiEEEEPS9_EEE10__completeB8ue170006Ev, symObjAddr: 0xCDFC, symBinAddr: 0x10000FFB4, symSize: 0x1C }
  - { offsetInCU: 0x3CDBA, offset: 0x3CDBA, size: 0x8, addend: 0x0, symName: __ZNSt3__128__exception_guard_exceptionsINS_29_AllocatorDestroyRangeReverseINS_9allocatorINS_4pairINS_12basic_stringIcNS_11char_traitsIcEENS2_IcEEEEiEEEEPS9_EEED1B8ue170006Ev, symObjAddr: 0xCE18, symBinAddr: 0x10000FFD0, symSize: 0x2C }
  - { offsetInCU: 0x3CDE4, offset: 0x3CDE4, size: 0x8, addend: 0x0, symName: __ZNSt3__128__exception_guard_exceptionsINS_29_AllocatorDestroyRangeReverseINS_9allocatorINS_4pairINS_12basic_stringIcNS_11char_traitsIcEENS2_IcEEEEiEEEEPS9_EEEC1B8ue170006ESC_, symObjAddr: 0xCE44, symBinAddr: 0x10000FFFC, symSize: 0x34 }
  - { offsetInCU: 0x3CE1D, offset: 0x3CE1D, size: 0x8, addend: 0x0, symName: __ZNSt3__128__exception_guard_exceptionsINS_29_AllocatorDestroyRangeReverseINS_9allocatorINS_4pairINS_12basic_stringIcNS_11char_traitsIcEENS2_IcEEEEiEEEEPS9_EEEC2B8ue170006ESC_, symObjAddr: 0xCE78, symBinAddr: 0x100010030, symSize: 0x30 }
  - { offsetInCU: 0x3CE56, offset: 0x3CE56, size: 0x8, addend: 0x0, symName: __ZNSt3__129_AllocatorDestroyRangeReverseINS_9allocatorINS_4pairINS_12basic_stringIcNS_11char_traitsIcEENS1_IcEEEEiEEEEPS8_EC2B8ue170006ERS9_RSA_SD_, symObjAddr: 0xCEA8, symBinAddr: 0x100010060, symSize: 0x38 }
  - { offsetInCU: 0x3CEAD, offset: 0x3CEAD, size: 0x8, addend: 0x0, symName: __ZNSt3__14pairINS_12basic_stringIcNS_11char_traitsIcEENS_9allocatorIcEEEEiEC1B8ue170006IKS6_iLPv0EEERKNS0_IT_T0_EE, symObjAddr: 0xCF1C, symBinAddr: 0x1000100D4, symSize: 0x34 }
  - { offsetInCU: 0x3CEFD, offset: 0x3CEFD, size: 0x8, addend: 0x0, symName: __ZNSt3__14pairINS_12basic_stringIcNS_11char_traitsIcEENS_9allocatorIcEEEEiEC2B8ue170006IKS6_iLPv0EEERKNS0_IT_T0_EE, symObjAddr: 0xCF50, symBinAddr: 0x100010108, symSize: 0x40 }
  - { offsetInCU: 0x3CF4D, offset: 0x3CF4D, size: 0x8, addend: 0x0, symName: __ZNKSt3__121__tree_const_iteratorINS_12__value_typeINS_12basic_stringIcNS_11char_traitsIcEENS_9allocatorIcEEEEiEEPNS_11__tree_nodeIS8_PvEElEptB8ue170006Ev, symObjAddr: 0xCF90, symBinAddr: 0x100010148, symSize: 0x2C }
  - { offsetInCU: 0x3CF73, offset: 0x3CF73, size: 0x8, addend: 0x0, symName: __ZNKSt3__112__value_typeINS_12basic_stringIcNS_11char_traitsIcEENS_9allocatorIcEEEEiE11__get_valueB8ue170006Ev, symObjAddr: 0xCFBC, symBinAddr: 0x100010174, symSize: 0x24 }
  - { offsetInCU: 0x3CF99, offset: 0x3CF99, size: 0x8, addend: 0x0, symName: __ZNSt3__114pointer_traitsIPKNS_12__value_typeINS_12basic_stringIcNS_11char_traitsIcEENS_9allocatorIcEEEEiEEE10pointer_toB8ue170006ERS9_, symObjAddr: 0xCFE0, symBinAddr: 0x100010198, symSize: 0x14 }
  - { offsetInCU: 0x3CFBC, offset: 0x3CFBC, size: 0x8, addend: 0x0, symName: __ZNKSt3__121__tree_const_iteratorINS_12__value_typeINS_12basic_stringIcNS_11char_traitsIcEENS_9allocatorIcEEEEiEEPNS_11__tree_nodeIS8_PvEElE8__get_npB8ue170006Ev, symObjAddr: 0xCFF4, symBinAddr: 0x1000101AC, symSize: 0x18 }
  - { offsetInCU: 0x3CFE2, offset: 0x3CFE2, size: 0x8, addend: 0x0, symName: __ZNSt3__128__exception_guard_exceptionsINS_29_AllocatorDestroyRangeReverseINS_9allocatorINS_4pairINS_12basic_stringIcNS_11char_traitsIcEENS2_IcEEEEiEEEEPS9_EEED2B8ue170006Ev, symObjAddr: 0xD044, symBinAddr: 0x1000101FC, symSize: 0x50 }
  - { offsetInCU: 0x3D00C, offset: 0x3D00C, size: 0x8, addend: 0x0, symName: __ZNKSt3__129_AllocatorDestroyRangeReverseINS_9allocatorINS_4pairINS_12basic_stringIcNS_11char_traitsIcEENS1_IcEEEEiEEEEPS8_EclB8ue170006Ev, symObjAddr: 0xD094, symBinAddr: 0x10001024C, symSize: 0x68 }
  - { offsetInCU: 0x3D032, offset: 0x3D032, size: 0x8, addend: 0x0, symName: __ZNSt3__116reverse_iteratorIPNS_4pairINS_12basic_stringIcNS_11char_traitsIcEENS_9allocatorIcEEEEiEEEC1B8ue170006ES9_, symObjAddr: 0xD16C, symBinAddr: 0x100010324, symSize: 0x34 }
  - { offsetInCU: 0x3D06A, offset: 0x3D06A, size: 0x8, addend: 0x0, symName: __ZNSt3__116allocator_traitsINS_9allocatorINS_4pairINS_12basic_stringIcNS_11char_traitsIcEENS1_IcEEEEiEEEEE7destroyB8ue170006IS8_vvEEvRS9_PT_, symObjAddr: 0xD1E8, symBinAddr: 0x1000103A0, symSize: 0x28 }
  - { offsetInCU: 0x3D0A5, offset: 0x3D0A5, size: 0x8, addend: 0x0, symName: __ZNSt3__116reverse_iteratorIPNS_4pairINS_12basic_stringIcNS_11char_traitsIcEENS_9allocatorIcEEEEiEEEppB8ue170006Ev, symObjAddr: 0xD234, symBinAddr: 0x1000103EC, symSize: 0x20 }
  - { offsetInCU: 0x3D0CB, offset: 0x3D0CB, size: 0x8, addend: 0x0, symName: __ZNKSt3__116reverse_iteratorIPNS_4pairINS_12basic_stringIcNS_11char_traitsIcEENS_9allocatorIcEEEEiEEE4baseB8ue170006Ev, symObjAddr: 0xD254, symBinAddr: 0x10001040C, symSize: 0x18 }
  - { offsetInCU: 0x3D0F1, offset: 0x3D0F1, size: 0x8, addend: 0x0, symName: __ZNSt3__14pairINS_12basic_stringIcNS_11char_traitsIcEENS_9allocatorIcEEEEiED1Ev, symObjAddr: 0xD2B4, symBinAddr: 0x10001046C, symSize: 0x2C }
  - { offsetInCU: 0x3D11D, offset: 0x3D11D, size: 0x8, addend: 0x0, symName: __ZNSt3__14pairINS_12basic_stringIcNS_11char_traitsIcEENS_9allocatorIcEEEEiED2Ev, symObjAddr: 0xD2E0, symBinAddr: 0x100010498, symSize: 0x2C }
  - { offsetInCU: 0x3D14F, offset: 0x3D14F, size: 0x8, addend: 0x0, symName: __ZNSt3__119__to_address_helperINS_16reverse_iteratorIPNS_4pairINS_12basic_stringIcNS_11char_traitsIcEENS_9allocatorIcEEEEiEEEEvE6__callB8ue170006ERKSB_, symObjAddr: 0xD30C, symBinAddr: 0x1000104C4, symSize: 0x38 }
  - { offsetInCU: 0x3D172, offset: 0x3D172, size: 0x8, addend: 0x0, symName: __ZNKSt3__116reverse_iteratorIPNS_4pairINS_12basic_stringIcNS_11char_traitsIcEENS_9allocatorIcEEEEiEEEptB8ue170006Ev, symObjAddr: 0xD344, symBinAddr: 0x1000104FC, symSize: 0x2C }
  - { offsetInCU: 0x3D198, offset: 0x3D198, size: 0x8, addend: 0x0, symName: __ZNSt3__116reverse_iteratorIPNS_4pairINS_12basic_stringIcNS_11char_traitsIcEENS_9allocatorIcEEEEiEEEC2B8ue170006ES9_, symObjAddr: 0xD40C, symBinAddr: 0x1000105C4, symSize: 0x28 }
  - { offsetInCU: 0x3D1D0, offset: 0x3D1D0, size: 0x8, addend: 0x0, symName: __ZNSt3__118__unwrap_iter_implIPNS_4pairINS_12basic_stringIcNS_11char_traitsIcEENS_9allocatorIcEEEEiEELb1EE8__unwrapB8ue170006ES9_, symObjAddr: 0xD434, symBinAddr: 0x1000105EC, symSize: 0x24 }
  - { offsetInCU: 0x3D1F3, offset: 0x3D1F3, size: 0x8, addend: 0x0, symName: __ZNSt3__118__unwrap_iter_implIPNS_4pairINS_12basic_stringIcNS_11char_traitsIcEENS_9allocatorIcEEEEiEELb1EE8__rewrapB8ue170006ES9_S9_, symObjAddr: 0xD458, symBinAddr: 0x100010610, symSize: 0x50 }
  - { offsetInCU: 0x3D224, offset: 0x3D224, size: 0x8, addend: 0x0, symName: __ZNSt3__16vectorINS_4pairINS_12basic_stringIcNS_11char_traitsIcEENS_9allocatorIcEEEEiEENS5_IS8_EEE21_ConstructTransactionD2B8ue170006Ev, symObjAddr: 0xD4A8, symBinAddr: 0x100010660, symSize: 0x20 }
  - { offsetInCU: 0x3D24E, offset: 0x3D24E, size: 0x8, addend: 0x0, symName: __ZNSt3__128__exception_guard_exceptionsINS_6vectorINS_4pairINS_12basic_stringIcNS_11char_traitsIcEENS_9allocatorIcEEEEiEENS6_IS9_EEE16__destroy_vectorEED2B8ue170006Ev, symObjAddr: 0xD4C8, symBinAddr: 0x100010680, symSize: 0x50 }
  - { offsetInCU: 0x3D278, offset: 0x3D278, size: 0x8, addend: 0x0, symName: __ZNSt3__16vectorINS_4pairINS_12basic_stringIcNS_11char_traitsIcEENS_9allocatorIcEEEEiEENS5_IS8_EEE16__destroy_vectorclB8ue170006Ev, symObjAddr: 0xD518, symBinAddr: 0x1000106D0, symSize: 0x90 }
  - { offsetInCU: 0x3D29E, offset: 0x3D29E, size: 0x8, addend: 0x0, symName: __ZNSt3__16vectorINS_4pairINS_12basic_stringIcNS_11char_traitsIcEENS_9allocatorIcEEEEiEENS5_IS8_EEE7__clearB8ue170006Ev, symObjAddr: 0xD5A8, symBinAddr: 0x100010760, symSize: 0x28 }
  - { offsetInCU: 0x3D2C4, offset: 0x3D2C4, size: 0x8, addend: 0x0, symName: __ZNKSt3__16vectorINS_4pairINS_12basic_stringIcNS_11char_traitsIcEENS_9allocatorIcEEEEiEENS5_IS8_EEE17__annotate_deleteB8ue170006Ev, symObjAddr: 0xD5D0, symBinAddr: 0x100010788, symSize: 0xB8 }
  - { offsetInCU: 0x3D2EA, offset: 0x3D2EA, size: 0x8, addend: 0x0, symName: __ZNSt3__116allocator_traitsINS_9allocatorINS_4pairINS_12basic_stringIcNS_11char_traitsIcEENS1_IcEEEEiEEEEE10deallocateB8ue170006ERS9_PS8_m, symObjAddr: 0xD688, symBinAddr: 0x100010840, symSize: 0x34 }
  - { offsetInCU: 0x3D32C, offset: 0x3D32C, size: 0x8, addend: 0x0, symName: __ZNSt3__16vectorINS_4pairINS_12basic_stringIcNS_11char_traitsIcEENS_9allocatorIcEEEEiEENS5_IS8_EEE22__base_destruct_at_endB8ue170006EPS8_, symObjAddr: 0xD6BC, symBinAddr: 0x100010874, symSize: 0x8C }
  - { offsetInCU: 0x3D370, offset: 0x3D370, size: 0x8, addend: 0x0, symName: __ZNSt3__19allocatorINS_4pairINS_12basic_stringIcNS_11char_traitsIcEENS0_IcEEEEiEEE10deallocateB8ue170006EPS7_m, symObjAddr: 0xD748, symBinAddr: 0x100010900, symSize: 0x40 }
  - { offsetInCU: 0x3D3BD, offset: 0x3D3BD, size: 0x8, addend: 0x0, symName: '__ZZ16getTopKInterestsRKNSt3__13mapIiNS0_INS_12basic_stringIcNS_11char_traitsIcEENS_9allocatorIcEEEEiNS_4lessIS6_EENS4_INS_4pairIKS6_iEEEEEENS7_IiEENS4_INS9_IKiSD_EEEEEEiENK3$_0clERKNS9_IS6_iEESO_', symObjAddr: 0xDDA8, symBinAddr: 0x100010F60, symSize: 0x34 }
  - { offsetInCU: 0x3D403, offset: 0x3D403, size: 0x8, addend: 0x0, symName: __ZNSt3__18_IterOpsINS_17_ClassicAlgPolicyEE9iter_swapB8ue170006IRPNS_4pairINS_12basic_stringIcNS_11char_traitsIcEENS_9allocatorIcEEEEiEESD_EEvOT_OT0_, symObjAddr: 0xDDDC, symBinAddr: 0x100010F94, symSize: 0x34 }
  - { offsetInCU: 0x3D44C, offset: 0x3D44C, size: 0x8, addend: 0x0, symName: __ZNSt3__18_IterOpsINS_17_ClassicAlgPolicyEE9iter_swapB8ue170006IRPNS_4pairINS_12basic_stringIcNS_11char_traitsIcEENS_9allocatorIcEEEEiEESC_EEvOT_OT0_, symObjAddr: 0xE394, symBinAddr: 0x10001154C, symSize: 0x34 }
  - { offsetInCU: 0x3D48F, offset: 0x3D48F, size: 0x8, addend: 0x0, symName: __ZNSt3__14pairINS_12basic_stringIcNS_11char_traitsIcEENS_9allocatorIcEEEEiE4swapB8ue170006ERS7_, symObjAddr: 0xEFC4, symBinAddr: 0x10001217C, symSize: 0x44 }
  - { offsetInCU: 0x3D4C4, offset: 0x3D4C4, size: 0x8, addend: 0x0, symName: __ZNSt3__112basic_stringIcNS_11char_traitsIcEENS_9allocatorIcEEE4swapB8ue170006ERS5_, symObjAddr: 0xF070, symBinAddr: 0x100012228, symSize: 0x64 }
  - { offsetInCU: 0x3D4FB, offset: 0x3D4FB, size: 0x8, addend: 0x0, symName: __ZNSt3__18_IterOpsINS_17_ClassicAlgPolicyEE11__iter_moveB8ue170006IRPNS_4pairINS_12basic_stringIcNS_11char_traitsIcEENS_9allocatorIcEEEEiEEEENS_9enable_ifIXsr12is_referenceIDTdeclsr3stdE7declvalIRT_EEEEE5valueEDTclsr3stdE4movedeclsr3stdE7declvalISG_EEEEE4typeEOSF_, symObjAddr: 0xF308, symBinAddr: 0x1000124C0, symSize: 0x28 }
  - { offsetInCU: 0x3D527, offset: 0x3D527, size: 0x8, addend: 0x0, symName: __ZNSt3__14pairINS_12basic_stringIcNS_11char_traitsIcEENS_9allocatorIcEEEEiEC1B8ue170006EOS7_, symObjAddr: 0xF330, symBinAddr: 0x1000124E8, symSize: 0x34 }
  - { offsetInCU: 0x3D55C, offset: 0x3D55C, size: 0x8, addend: 0x0, symName: __ZNSt3__14pairINS_12basic_stringIcNS_11char_traitsIcEENS_9allocatorIcEEEEiEaSB8ue170006EOS7_, symObjAddr: 0xF364, symBinAddr: 0x10001251C, symSize: 0x40 }
  - { offsetInCU: 0x3D591, offset: 0x3D591, size: 0x8, addend: 0x0, symName: __ZNSt3__18_IterOpsINS_17_ClassicAlgPolicyEE25__validate_iter_referenceB8ue170006IRPNS_4pairINS_12basic_stringIcNS_11char_traitsIcEENS_9allocatorIcEEEEiEEEEvv, symObjAddr: 0xF3A4, symBinAddr: 0x10001255C, symSize: 0x4 }
  - { offsetInCU: 0x3D5AF, offset: 0x3D5AF, size: 0x8, addend: 0x0, symName: __ZNSt3__14pairINS_12basic_stringIcNS_11char_traitsIcEENS_9allocatorIcEEEEiEC2B8ue170006EOS7_, symObjAddr: 0xF3A8, symBinAddr: 0x100012560, symSize: 0x40 }
  - { offsetInCU: 0x3D5E4, offset: 0x3D5E4, size: 0x8, addend: 0x0, symName: __ZNSt3__18_IterOpsINS_17_ClassicAlgPolicyEE4nextB8ue170006IPNS_4pairINS_12basic_stringIcNS_11char_traitsIcEENS_9allocatorIcEEEEiEEEET_SD_SD_, symObjAddr: 0xF3E8, symBinAddr: 0x1000125A0, symSize: 0x18 }
  - { offsetInCU: 0x3D61B, offset: 0x3D61B, size: 0x8, addend: 0x0, symName: __ZNSt3__18_IterOpsINS_17_ClassicAlgPolicyEE9iter_swapB8ue170006IPNS_4pairINS_12basic_stringIcNS_11char_traitsIcEENS_9allocatorIcEEEEiEESC_EEvOT_OT0_, symObjAddr: 0x103E8, symBinAddr: 0x1000135A0, symSize: 0x34 }
  - { offsetInCU: 0x3D67B, offset: 0x3D67B, size: 0x8, addend: 0x0, symName: __ZNSt3__14pairIPNS0_INS_12basic_stringIcNS_11char_traitsIcEENS_9allocatorIcEEEEiEEbEC1B8ue170006IRS8_RbLPv0EEEOT_OT0_, symObjAddr: 0x10438, symBinAddr: 0x1000135F0, symSize: 0x3C }
  - { offsetInCU: 0x3D6D9, offset: 0x3D6D9, size: 0x8, addend: 0x0, symName: __ZNSt3__14pairIPNS0_INS_12basic_stringIcNS_11char_traitsIcEENS_9allocatorIcEEEEiEEbEC2B8ue170006IRS8_RbLPv0EEEOT_OT0_, symObjAddr: 0x10474, symBinAddr: 0x10001362C, symSize: 0x38 }
  - { offsetInCU: 0x3D737, offset: 0x3D737, size: 0x8, addend: 0x0, symName: __ZNSt3__118__unwrap_iter_implINS_11__wrap_iterIPNS_4pairINS_12basic_stringIcNS_11char_traitsIcEENS_9allocatorIcEEEEiEEEELb1EE8__unwrapB8ue170006ESB_, symObjAddr: 0x104AC, symBinAddr: 0x100013664, symSize: 0x28 }
  - { offsetInCU: 0x3D766, offset: 0x3D766, size: 0x8, addend: 0x0, symName: __ZNSt3__119__to_address_helperINS_11__wrap_iterIPNS_4pairINS_12basic_stringIcNS_11char_traitsIcEENS_9allocatorIcEEEEiEEEEvE6__callB8ue170006ERKSB_, symObjAddr: 0x104F8, symBinAddr: 0x1000136B0, symSize: 0x30 }
  - { offsetInCU: 0x3D789, offset: 0x3D789, size: 0x8, addend: 0x0, symName: __ZNSt3__114pointer_traitsINS_11__wrap_iterIPNS_4pairINS_12basic_stringIcNS_11char_traitsIcEENS_9allocatorIcEEEEiEEEEE10to_addressB8ue170006ESB_, symObjAddr: 0x10528, symBinAddr: 0x1000136E0, symSize: 0x2C }
  - { offsetInCU: 0x3D7AC, offset: 0x3D7AC, size: 0x8, addend: 0x0, symName: __ZNKSt3__111__wrap_iterIPNS_4pairINS_12basic_stringIcNS_11char_traitsIcEENS_9allocatorIcEEEEiEEE4baseB8ue170006Ev, symObjAddr: 0x10554, symBinAddr: 0x10001370C, symSize: 0x18 }
  - { offsetInCU: 0x3D7D2, offset: 0x3D7D2, size: 0x8, addend: 0x0, symName: __ZNSt3__16vectorINS_4pairINS_12basic_stringIcNS_11char_traitsIcEENS_9allocatorIcEEEEiEENS5_IS8_EEE11__make_iterB8ue170006EPS8_, symObjAddr: 0x1056C, symBinAddr: 0x100013724, symSize: 0x30 }
  - { offsetInCU: 0x3D807, offset: 0x3D807, size: 0x8, addend: 0x0, symName: __ZNSt3__111__wrap_iterIPNS_4pairINS_12basic_stringIcNS_11char_traitsIcEENS_9allocatorIcEEEEiEEEC1B8ue170006ES9_, symObjAddr: 0x1059C, symBinAddr: 0x100013754, symSize: 0x34 }
  - { offsetInCU: 0x3D83F, offset: 0x3D83F, size: 0x8, addend: 0x0, symName: __ZNSt3__111__wrap_iterIPNS_4pairINS_12basic_stringIcNS_11char_traitsIcEENS_9allocatorIcEEEEiEEEC2B8ue170006ES9_, symObjAddr: 0x105D0, symBinAddr: 0x100013788, symSize: 0x20 }
  - { offsetInCU: 0x3D877, offset: 0x3D877, size: 0x8, addend: 0x0, symName: __ZNSt3__16vectorINS_4pairINS_12basic_stringIcNS_11char_traitsIcEENS_9allocatorIcEEEEiEENS5_IS8_EEED2B8ue170006Ev, symObjAddr: 0x105F0, symBinAddr: 0x1000137A8, symSize: 0x40 }
  - { offsetInCU: 0x3D8A1, offset: 0x3D8A1, size: 0x8, addend: 0x0, symName: __ZNSt3__16vectorINS_12basic_stringIcNS_11char_traitsIcEENS_9allocatorIcEEEENS4_IS6_EEE11__make_iterB8ue170006EPS6_, symObjAddr: 0x10630, symBinAddr: 0x1000137E8, symSize: 0x30 }
  - { offsetInCU: 0x3D8D6, offset: 0x3D8D6, size: 0x8, addend: 0x0, symName: __ZNSt3__111__wrap_iterIPNS_12basic_stringIcNS_11char_traitsIcEENS_9allocatorIcEEEEEC1B8ue170006ES7_, symObjAddr: 0x10660, symBinAddr: 0x100013818, symSize: 0x34 }
  - { offsetInCU: 0x3D90E, offset: 0x3D90E, size: 0x8, addend: 0x0, symName: __ZNSt3__111__wrap_iterIPNS_12basic_stringIcNS_11char_traitsIcEENS_9allocatorIcEEEEEC2B8ue170006ES7_, symObjAddr: 0x10694, symBinAddr: 0x10001384C, symSize: 0x20 }
  - { offsetInCU: 0x3D946, offset: 0x3D946, size: 0x8, addend: 0x0, symName: __ZNKSt3__111__wrap_iterIPNS_12basic_stringIcNS_11char_traitsIcEENS_9allocatorIcEEEEE4baseB8ue170006Ev, symObjAddr: 0x106FC, symBinAddr: 0x1000138B4, symSize: 0x18 }
  - { offsetInCU: 0x3D96C, offset: 0x3D96C, size: 0x8, addend: 0x0, symName: __ZNSt3__16vectorINS0_IiNS_9allocatorIiEEEENS1_IS3_EEEC2B8ue170006Ev, symObjAddr: 0x10714, symBinAddr: 0x1000138CC, symSize: 0x4C }
  - { offsetInCU: 0x3D996, offset: 0x3D996, size: 0x8, addend: 0x0, symName: __ZNSt3__117__compressed_pairIPNS_6vectorIiNS_9allocatorIiEEEENS2_IS4_EEEC1B8ue170006IDnNS_18__default_init_tagEEEOT_OT0_, symObjAddr: 0x10760, symBinAddr: 0x100013918, symSize: 0x3C }
  - { offsetInCU: 0x3D9EE, offset: 0x3D9EE, size: 0x8, addend: 0x0, symName: __ZNSt3__117__compressed_pairIPNS_6vectorIiNS_9allocatorIiEEEENS2_IS4_EEEC2B8ue170006IDnNS_18__default_init_tagEEEOT_OT0_, symObjAddr: 0x1079C, symBinAddr: 0x100013954, symSize: 0x40 }
  - { offsetInCU: 0x3DA46, offset: 0x3DA46, size: 0x8, addend: 0x0, symName: __ZNSt3__122__compressed_pair_elemIPNS_6vectorIiNS_9allocatorIiEEEELi0ELb0EEC2B8ue170006IDnvEEOT_, symObjAddr: 0x107DC, symBinAddr: 0x100013994, symSize: 0x1C }
  - { offsetInCU: 0x3DA88, offset: 0x3DA88, size: 0x8, addend: 0x0, symName: __ZNSt3__122__compressed_pair_elemINS_9allocatorINS_6vectorIiNS1_IiEEEEEELi1ELb1EEC2B8ue170006ENS_18__default_init_tagE, symObjAddr: 0x107F8, symBinAddr: 0x1000139B0, symSize: 0x2C }
  - { offsetInCU: 0x3DABD, offset: 0x3DABD, size: 0x8, addend: 0x0, symName: __ZNSt3__19allocatorINS_6vectorIiNS0_IiEEEEEC2B8ue170006Ev, symObjAddr: 0x10824, symBinAddr: 0x1000139DC, symSize: 0x2C }
  - { offsetInCU: 0x3DAE7, offset: 0x3DAE7, size: 0x8, addend: 0x0, symName: __ZNSt3__116__non_trivial_ifILb1ENS_9allocatorINS_6vectorIiNS1_IiEEEEEEEC2B8ue170006Ev, symObjAddr: 0x10850, symBinAddr: 0x100013A08, symSize: 0x14 }
  - { offsetInCU: 0x3DB11, offset: 0x3DB11, size: 0x8, addend: 0x0, symName: __ZNSt3__16vectorINS_12basic_stringIcNS_11char_traitsIcEENS_9allocatorIcEEEENS4_IS6_EEEC2ERKS8_, symObjAddr: 0x10864, symBinAddr: 0x100013A1C, symSize: 0x94 }
  - { offsetInCU: 0x3DB4C, offset: 0x3DB4C, size: 0x8, addend: 0x0, symName: __ZNSt3__116allocator_traitsINS_9allocatorINS_12basic_stringIcNS_11char_traitsIcEENS1_IcEEEEEEE37select_on_container_copy_constructionB8ue170006IS7_vvEES7_RKS7_, symObjAddr: 0x108F8, symBinAddr: 0x100013AB0, symSize: 0x10 }
  - { offsetInCU: 0x3DB81, offset: 0x3DB81, size: 0x8, addend: 0x0, symName: __ZNSt3__117__compressed_pairIPNS_12basic_stringIcNS_11char_traitsIcEENS_9allocatorIcEEEENS4_IS6_EEEC1B8ue170006IDnS8_EEOT_OT0_, symObjAddr: 0x10908, symBinAddr: 0x100013AC0, symSize: 0x3C }
  - { offsetInCU: 0x3DBD9, offset: 0x3DBD9, size: 0x8, addend: 0x0, symName: __ZNSt3__16vectorINS_12basic_stringIcNS_11char_traitsIcEENS_9allocatorIcEEEENS4_IS6_EEE16__init_with_sizeB8ue170006IPS6_SA_EEvT_T0_m, symObjAddr: 0x10944, symBinAddr: 0x100013AFC, symSize: 0xB8 }
  - { offsetInCU: 0x3DC4D, offset: 0x3DC4D, size: 0x8, addend: 0x0, symName: __ZNSt3__117__compressed_pairIPNS_12basic_stringIcNS_11char_traitsIcEENS_9allocatorIcEEEENS4_IS6_EEEC2B8ue170006IDnS8_EEOT_OT0_, symObjAddr: 0x109FC, symBinAddr: 0x100013BB4, symSize: 0x44 }
  - { offsetInCU: 0x3DCA5, offset: 0x3DCA5, size: 0x8, addend: 0x0, symName: __ZNSt3__122__compressed_pair_elemINS_9allocatorINS_12basic_stringIcNS_11char_traitsIcEENS1_IcEEEEEELi1ELb1EEC2B8ue170006IS7_vEEOT_, symObjAddr: 0x10A40, symBinAddr: 0x100013BF8, symSize: 0x18 }
  - { offsetInCU: 0x3DCE7, offset: 0x3DCE7, size: 0x8, addend: 0x0, symName: __ZNSt3__128__exception_guard_exceptionsINS_6vectorINS_12basic_stringIcNS_11char_traitsIcEENS_9allocatorIcEEEENS5_IS7_EEE16__destroy_vectorEE10__completeB8ue170006Ev, symObjAddr: 0x10A98, symBinAddr: 0x100013C50, symSize: 0x1C }
  - { offsetInCU: 0x3DD0D, offset: 0x3DD0D, size: 0x8, addend: 0x0, symName: __ZNSt3__128__exception_guard_exceptionsINS_6vectorINS_12basic_stringIcNS_11char_traitsIcEENS_9allocatorIcEEEENS5_IS7_EEE16__destroy_vectorEED1B8ue170006Ev, symObjAddr: 0x10AB4, symBinAddr: 0x100013C6C, symSize: 0x2C }
  - { offsetInCU: 0x3DD37, offset: 0x3DD37, size: 0x8, addend: 0x0, symName: __ZNSt3__128__exception_guard_exceptionsINS_6vectorINS_12basic_stringIcNS_11char_traitsIcEENS_9allocatorIcEEEENS5_IS7_EEE16__destroy_vectorEEC1B8ue170006ESA_, symObjAddr: 0x10AE0, symBinAddr: 0x100013C98, symSize: 0x34 }
  - { offsetInCU: 0x3DD6F, offset: 0x3DD6F, size: 0x8, addend: 0x0, symName: __ZNSt3__128__exception_guard_exceptionsINS_6vectorINS_12basic_stringIcNS_11char_traitsIcEENS_9allocatorIcEEEENS5_IS7_EEE16__destroy_vectorEEC2B8ue170006ESA_, symObjAddr: 0x10B14, symBinAddr: 0x100013CCC, symSize: 0x24 }
  - { offsetInCU: 0x3DDA7, offset: 0x3DDA7, size: 0x8, addend: 0x0, symName: __ZNSt3__128__exception_guard_exceptionsINS_6vectorINS_12basic_stringIcNS_11char_traitsIcEENS_9allocatorIcEEEENS5_IS7_EEE16__destroy_vectorEED2B8ue170006Ev, symObjAddr: 0x10B38, symBinAddr: 0x100013CF0, symSize: 0x48 }
  - { offsetInCU: 0x3DDD1, offset: 0x3DDD1, size: 0x8, addend: 0x0, symName: __ZNKSt3__16__lessIvvEclB8ue170006INS_12basic_stringIcNS_11char_traitsIcEENS_9allocatorIcEEEES8_EEbRKT_RKT0_, symObjAddr: 0x111AC, symBinAddr: 0x100014364, symSize: 0x50 }
  - { offsetInCU: 0x3DE25, offset: 0x3DE25, size: 0x8, addend: 0x0, symName: __ZNSt3__18_IterOpsINS_17_ClassicAlgPolicyEE9iter_swapB8ue170006IRPNS_12basic_stringIcNS_11char_traitsIcEENS_9allocatorIcEEEESB_EEvOT_OT0_, symObjAddr: 0x111FC, symBinAddr: 0x1000143B4, symSize: 0x34 }
  - { offsetInCU: 0x3DE68, offset: 0x3DE68, size: 0x8, addend: 0x0, symName: __ZNSt3__18_IterOpsINS_17_ClassicAlgPolicyEE9iter_swapB8ue170006IRPNS_12basic_stringIcNS_11char_traitsIcEENS_9allocatorIcEEEESA_EEvOT_OT0_, symObjAddr: 0x117B4, symBinAddr: 0x10001496C, symSize: 0x34 }
  - { offsetInCU: 0x3DEBB, offset: 0x3DEBB, size: 0x8, addend: 0x0, symName: __ZNSt3__120_CmpUnspecifiedParamC1B8ue170006EMS0_i, symObjAddr: 0x12414, symBinAddr: 0x1000155CC, symSize: 0x34 }
  - { offsetInCU: 0x3DEF0, offset: 0x3DEF0, size: 0x8, addend: 0x0, symName: __ZNKSt3__112basic_stringIcNS_11char_traitsIcEENS_9allocatorIcEEEcvNS_17basic_string_viewIcS2_EEB8ue170006Ev, symObjAddr: 0x124C4, symBinAddr: 0x10001567C, symSize: 0x50 }
  - { offsetInCU: 0x3DF16, offset: 0x3DF16, size: 0x8, addend: 0x0, symName: __ZNKSt3__117basic_string_viewIcNS_11char_traitsIcEEE7compareES3_, symObjAddr: 0x12514, symBinAddr: 0x1000156CC, symSize: 0x13C }
  - { offsetInCU: 0x3DF69, offset: 0x3DF69, size: 0x8, addend: 0x0, symName: __ZNKSt3__117basic_string_viewIcNS_11char_traitsIcEEE4sizeB8ue170006Ev, symObjAddr: 0x12650, symBinAddr: 0x100015808, symSize: 0x18 }
  - { offsetInCU: 0x3DF8F, offset: 0x3DF8F, size: 0x8, addend: 0x0, symName: __ZNSt3__111char_traitsIcE7compareB8ue170006EPKcS3_m, symObjAddr: 0x12668, symBinAddr: 0x100015820, symSize: 0x34 }
  - { offsetInCU: 0x3DFCE, offset: 0x3DFCE, size: 0x8, addend: 0x0, symName: __ZNKSt3__117basic_string_viewIcNS_11char_traitsIcEEE4dataB8ue170006Ev, symObjAddr: 0x1269C, symBinAddr: 0x100015854, symSize: 0x18 }
  - { offsetInCU: 0x3DFF4, offset: 0x3DFF4, size: 0x8, addend: 0x0, symName: __ZNKSt3__112basic_stringIcNS_11char_traitsIcEENS_9allocatorIcEEE4dataB8ue170006Ev, symObjAddr: 0x126B4, symBinAddr: 0x10001586C, symSize: 0x28 }
  - { offsetInCU: 0x3E01A, offset: 0x3E01A, size: 0x8, addend: 0x0, symName: __ZNSt3__117basic_string_viewIcNS_11char_traitsIcEEEC1B8ue170006EPKcm, symObjAddr: 0x126DC, symBinAddr: 0x100015894, symSize: 0x3C }
  - { offsetInCU: 0x3E062, offset: 0x3E062, size: 0x8, addend: 0x0, symName: __ZNKSt3__112basic_stringIcNS_11char_traitsIcEENS_9allocatorIcEEE13__get_pointerB8ue170006Ev, symObjAddr: 0x1272C, symBinAddr: 0x1000158E4, symSize: 0x54 }
  - { offsetInCU: 0x3E088, offset: 0x3E088, size: 0x8, addend: 0x0, symName: __ZNKSt3__112basic_stringIcNS_11char_traitsIcEENS_9allocatorIcEEE18__get_long_pointerB8ue170006Ev, symObjAddr: 0x12780, symBinAddr: 0x100015938, symSize: 0x28 }
  - { offsetInCU: 0x3E0AE, offset: 0x3E0AE, size: 0x8, addend: 0x0, symName: __ZNKSt3__112basic_stringIcNS_11char_traitsIcEENS_9allocatorIcEEE19__get_short_pointerB8ue170006Ev, symObjAddr: 0x127A8, symBinAddr: 0x100015960, symSize: 0x28 }
  - { offsetInCU: 0x3E0D4, offset: 0x3E0D4, size: 0x8, addend: 0x0, symName: __ZNSt3__114pointer_traitsIPKcE10pointer_toB8ue170006ERS1_, symObjAddr: 0x127D0, symBinAddr: 0x100015988, symSize: 0x14 }
  - { offsetInCU: 0x3E0F7, offset: 0x3E0F7, size: 0x8, addend: 0x0, symName: __ZNSt3__117basic_string_viewIcNS_11char_traitsIcEEEC2B8ue170006EPKcm, symObjAddr: 0x127E4, symBinAddr: 0x10001599C, symSize: 0x2C }
  - { offsetInCU: 0x3E13F, offset: 0x3E13F, size: 0x8, addend: 0x0, symName: __ZNSt3__120_CmpUnspecifiedParamC2B8ue170006EMS0_i, symObjAddr: 0x12810, symBinAddr: 0x1000159C8, symSize: 0x18 }
  - { offsetInCU: 0x3E174, offset: 0x3E174, size: 0x8, addend: 0x0, symName: __ZNSt3__18_IterOpsINS_17_ClassicAlgPolicyEE11__iter_moveB8ue170006IRPNS_12basic_stringIcNS_11char_traitsIcEENS_9allocatorIcEEEEEENS_9enable_ifIXsr12is_referenceIDTdeclsr3stdE7declvalIRT_EEEEE5valueEDTclsr3stdE4movedeclsr3stdE7declvalISE_EEEEE4typeEOSD_, symObjAddr: 0x129F4, symBinAddr: 0x100015BAC, symSize: 0x28 }
  - { offsetInCU: 0x3E1A0, offset: 0x3E1A0, size: 0x8, addend: 0x0, symName: __ZNSt3__18_IterOpsINS_17_ClassicAlgPolicyEE25__validate_iter_referenceB8ue170006IRPNS_12basic_stringIcNS_11char_traitsIcEENS_9allocatorIcEEEEEEvv, symObjAddr: 0x12A1C, symBinAddr: 0x100015BD4, symSize: 0x4 }
  - { offsetInCU: 0x3E1BE, offset: 0x3E1BE, size: 0x8, addend: 0x0, symName: __ZNSt3__18_IterOpsINS_17_ClassicAlgPolicyEE4nextB8ue170006IPNS_12basic_stringIcNS_11char_traitsIcEENS_9allocatorIcEEEEEET_SB_SB_, symObjAddr: 0x12A20, symBinAddr: 0x100015BD8, symSize: 0x18 }
  - { offsetInCU: 0x3E1F5, offset: 0x3E1F5, size: 0x8, addend: 0x0, symName: __ZNSt3__18_IterOpsINS_17_ClassicAlgPolicyEE9iter_swapB8ue170006IPNS_12basic_stringIcNS_11char_traitsIcEENS_9allocatorIcEEEESA_EEvOT_OT0_, symObjAddr: 0x13A18, symBinAddr: 0x100016BD0, symSize: 0x34 }
  - { offsetInCU: 0x3E255, offset: 0x3E255, size: 0x8, addend: 0x0, symName: __ZNSt3__14pairIPNS_12basic_stringIcNS_11char_traitsIcEENS_9allocatorIcEEEEbEC1B8ue170006IRS7_RbLPv0EEEOT_OT0_, symObjAddr: 0x13A4C, symBinAddr: 0x100016C04, symSize: 0x3C }
  - { offsetInCU: 0x3E2B3, offset: 0x3E2B3, size: 0x8, addend: 0x0, symName: __ZNSt3__14pairIPNS_12basic_stringIcNS_11char_traitsIcEENS_9allocatorIcEEEEbEC2B8ue170006IRS7_RbLPv0EEEOT_OT0_, symObjAddr: 0x13A88, symBinAddr: 0x100016C40, symSize: 0x38 }
  - { offsetInCU: 0x3E311, offset: 0x3E311, size: 0x8, addend: 0x0, symName: __ZNSt3__118__unwrap_iter_implINS_11__wrap_iterIPNS_12basic_stringIcNS_11char_traitsIcEENS_9allocatorIcEEEEEELb1EE8__unwrapB8ue170006ES9_, symObjAddr: 0x13AC0, symBinAddr: 0x100016C78, symSize: 0x28 }
  - { offsetInCU: 0x3E340, offset: 0x3E340, size: 0x8, addend: 0x0, symName: __ZNSt3__119__to_address_helperINS_11__wrap_iterIPNS_12basic_stringIcNS_11char_traitsIcEENS_9allocatorIcEEEEEEvE6__callB8ue170006ERKS9_, symObjAddr: 0x13B0C, symBinAddr: 0x100016CC4, symSize: 0x30 }
  - { offsetInCU: 0x3E363, offset: 0x3E363, size: 0x8, addend: 0x0, symName: __ZNSt3__114pointer_traitsINS_11__wrap_iterIPNS_12basic_stringIcNS_11char_traitsIcEENS_9allocatorIcEEEEEEE10to_addressB8ue170006ES9_, symObjAddr: 0x13B3C, symBinAddr: 0x100016CF4, symSize: 0x2C }
  - { offsetInCU: 0x3E386, offset: 0x3E386, size: 0x8, addend: 0x0, symName: __ZNSt3__16vectorINS0_IiNS_9allocatorIiEEEENS1_IS3_EEE9__end_capB8ue170006Ev, symObjAddr: 0x13B68, symBinAddr: 0x100016D20, symSize: 0x28 }
  - { offsetInCU: 0x3E3AC, offset: 0x3E3AC, size: 0x8, addend: 0x0, symName: __ZNSt3__16vectorINS0_IiNS_9allocatorIiEEEENS1_IS3_EEE22__construct_one_at_endB8ue170006IJRKS3_EEEvDpOT_, symObjAddr: 0x13B90, symBinAddr: 0x100016D48, symSize: 0x90 }
  - { offsetInCU: 0x3E3FB, offset: 0x3E3FB, size: 0x8, addend: 0x0, symName: __ZNSt3__16vectorINS0_IiNS_9allocatorIiEEEENS1_IS3_EEE21__push_back_slow_pathIRKS3_EEvOT_, symObjAddr: 0x13C20, symBinAddr: 0x100016DD8, symSize: 0xD8 }
  - { offsetInCU: 0x3E459, offset: 0x3E459, size: 0x8, addend: 0x0, symName: __ZNSt3__117__compressed_pairIPNS_6vectorIiNS_9allocatorIiEEEENS2_IS4_EEE5firstB8ue170006Ev, symObjAddr: 0x13CF8, symBinAddr: 0x100016EB0, symSize: 0x24 }
  - { offsetInCU: 0x3E47F, offset: 0x3E47F, size: 0x8, addend: 0x0, symName: __ZNSt3__122__compressed_pair_elemIPNS_6vectorIiNS_9allocatorIiEEEELi0ELb0EE5__getB8ue170006Ev, symObjAddr: 0x13D1C, symBinAddr: 0x100016ED4, symSize: 0x14 }
  - { offsetInCU: 0x3E4C1, offset: 0x3E4C1, size: 0x8, addend: 0x0, symName: __ZNSt3__16vectorINS0_IiNS_9allocatorIiEEEENS1_IS3_EEE21_ConstructTransactionC1B8ue170006ERS5_m, symObjAddr: 0x13D30, symBinAddr: 0x100016EE8, symSize: 0x3C }
  - { offsetInCU: 0x3E509, offset: 0x3E509, size: 0x8, addend: 0x0, symName: __ZNSt3__116allocator_traitsINS_9allocatorINS_6vectorIiNS1_IiEEEEEEE9constructB8ue170006IS4_JRKS4_EvvEEvRS5_PT_DpOT0_, symObjAddr: 0x13D6C, symBinAddr: 0x100016F24, symSize: 0x30 }
  - { offsetInCU: 0x3E55E, offset: 0x3E55E, size: 0x8, addend: 0x0, symName: __ZNSt3__16vectorINS0_IiNS_9allocatorIiEEEENS1_IS3_EEE7__allocB8ue170006Ev, symObjAddr: 0x13D9C, symBinAddr: 0x100016F54, symSize: 0x28 }
  - { offsetInCU: 0x3E584, offset: 0x3E584, size: 0x8, addend: 0x0, symName: __ZNSt3__16vectorINS0_IiNS_9allocatorIiEEEENS1_IS3_EEE21_ConstructTransactionD1B8ue170006Ev, symObjAddr: 0x13DD8, symBinAddr: 0x100016F90, symSize: 0x2C }
  - { offsetInCU: 0x3E5AE, offset: 0x3E5AE, size: 0x8, addend: 0x0, symName: __ZNSt3__16vectorINS0_IiNS_9allocatorIiEEEENS1_IS3_EEE21_ConstructTransactionC2B8ue170006ERS5_m, symObjAddr: 0x13E04, symBinAddr: 0x100016FBC, symSize: 0x4C }
  - { offsetInCU: 0x3E5F6, offset: 0x3E5F6, size: 0x8, addend: 0x0, symName: __ZNSt3__117__compressed_pairIPNS_6vectorIiNS_9allocatorIiEEEENS2_IS4_EEE6secondB8ue170006Ev, symObjAddr: 0x13E8C, symBinAddr: 0x100017044, symSize: 0x24 }
  - { offsetInCU: 0x3E61C, offset: 0x3E61C, size: 0x8, addend: 0x0, symName: __ZNSt3__122__compressed_pair_elemINS_9allocatorINS_6vectorIiNS1_IiEEEEEELi1ELb1EE5__getB8ue170006Ev, symObjAddr: 0x13EB0, symBinAddr: 0x100017068, symSize: 0x14 }
  - { offsetInCU: 0x3E642, offset: 0x3E642, size: 0x8, addend: 0x0, symName: __ZNSt3__16vectorINS0_IiNS_9allocatorIiEEEENS1_IS3_EEE21_ConstructTransactionD2B8ue170006Ev, symObjAddr: 0x13EC4, symBinAddr: 0x10001707C, symSize: 0x20 }
  - { offsetInCU: 0x3E66C, offset: 0x3E66C, size: 0x8, addend: 0x0, symName: __ZNKSt3__16vectorINS0_IiNS_9allocatorIiEEEENS1_IS3_EEE11__recommendB8ue170006Em, symObjAddr: 0x13EE4, symBinAddr: 0x10001709C, symSize: 0xB4 }
  - { offsetInCU: 0x3E6C1, offset: 0x3E6C1, size: 0x8, addend: 0x0, symName: __ZNKSt3__16vectorINS0_IiNS_9allocatorIiEEEENS1_IS3_EEE4sizeB8ue170006Ev, symObjAddr: 0x13F98, symBinAddr: 0x100017150, symSize: 0x28 }
  - { offsetInCU: 0x3E6E7, offset: 0x3E6E7, size: 0x8, addend: 0x0, symName: __ZNSt3__114__split_bufferINS_6vectorIiNS_9allocatorIiEEEERNS2_IS4_EEEC1EmmS6_, symObjAddr: 0x13FC0, symBinAddr: 0x100017178, symSize: 0x44 }
  - { offsetInCU: 0x3E73D, offset: 0x3E73D, size: 0x8, addend: 0x0, symName: __ZNSt3__114__split_bufferINS_6vectorIiNS_9allocatorIiEEEERNS2_IS4_EEED1Ev, symObjAddr: 0x14114, symBinAddr: 0x1000172CC, symSize: 0x2C }
  - { offsetInCU: 0x3E769, offset: 0x3E769, size: 0x8, addend: 0x0, symName: __ZNKSt3__16vectorINS0_IiNS_9allocatorIiEEEENS1_IS3_EEE8max_sizeEv, symObjAddr: 0x14140, symBinAddr: 0x1000172F8, symSize: 0x60 }
  - { offsetInCU: 0x3E791, offset: 0x3E791, size: 0x8, addend: 0x0, symName: __ZNKSt3__16vectorINS0_IiNS_9allocatorIiEEEENS1_IS3_EEE20__throw_length_errorB8ue170006Ev, symObjAddr: 0x141A0, symBinAddr: 0x100017358, symSize: 0x1C }
  - { offsetInCU: 0x3E7B7, offset: 0x3E7B7, size: 0x8, addend: 0x0, symName: __ZNKSt3__16vectorINS0_IiNS_9allocatorIiEEEENS1_IS3_EEE8capacityB8ue170006Ev, symObjAddr: 0x141BC, symBinAddr: 0x100017374, symSize: 0x40 }
  - { offsetInCU: 0x3E7E8, offset: 0x3E7E8, size: 0x8, addend: 0x0, symName: __ZNSt3__116allocator_traitsINS_9allocatorINS_6vectorIiNS1_IiEEEEEEE8max_sizeB8ue170006IS5_vvEEmRKS5_, symObjAddr: 0x141FC, symBinAddr: 0x1000173B4, symSize: 0x28 }
  - { offsetInCU: 0x3E814, offset: 0x3E814, size: 0x8, addend: 0x0, symName: __ZNKSt3__16vectorINS0_IiNS_9allocatorIiEEEENS1_IS3_EEE7__allocB8ue170006Ev, symObjAddr: 0x14224, symBinAddr: 0x1000173DC, symSize: 0x28 }
  - { offsetInCU: 0x3E83A, offset: 0x3E83A, size: 0x8, addend: 0x0, symName: __ZNKSt3__117__compressed_pairIPNS_6vectorIiNS_9allocatorIiEEEENS2_IS4_EEE6secondB8ue170006Ev, symObjAddr: 0x1424C, symBinAddr: 0x100017404, symSize: 0x24 }
  - { offsetInCU: 0x3E860, offset: 0x3E860, size: 0x8, addend: 0x0, symName: __ZNKSt3__122__compressed_pair_elemINS_9allocatorINS_6vectorIiNS1_IiEEEEEELi1ELb1EE5__getB8ue170006Ev, symObjAddr: 0x14270, symBinAddr: 0x100017428, symSize: 0x14 }
  - { offsetInCU: 0x3E886, offset: 0x3E886, size: 0x8, addend: 0x0, symName: __ZNKSt3__16vectorINS0_IiNS_9allocatorIiEEEENS1_IS3_EEE9__end_capB8ue170006Ev, symObjAddr: 0x14284, symBinAddr: 0x10001743C, symSize: 0x28 }
  - { offsetInCU: 0x3E8AC, offset: 0x3E8AC, size: 0x8, addend: 0x0, symName: __ZNKSt3__117__compressed_pairIPNS_6vectorIiNS_9allocatorIiEEEENS2_IS4_EEE5firstB8ue170006Ev, symObjAddr: 0x142AC, symBinAddr: 0x100017464, symSize: 0x24 }
  - { offsetInCU: 0x3E8D2, offset: 0x3E8D2, size: 0x8, addend: 0x0, symName: __ZNKSt3__122__compressed_pair_elemIPNS_6vectorIiNS_9allocatorIiEEEELi0ELb0EE5__getB8ue170006Ev, symObjAddr: 0x142D0, symBinAddr: 0x100017488, symSize: 0x14 }
  - { offsetInCU: 0x3E8F8, offset: 0x3E8F8, size: 0x8, addend: 0x0, symName: __ZNSt3__114__split_bufferINS_6vectorIiNS_9allocatorIiEEEERNS2_IS4_EEEC2EmmS6_, symObjAddr: 0x142E4, symBinAddr: 0x10001749C, symSize: 0xE0 }
  - { offsetInCU: 0x3E96B, offset: 0x3E96B, size: 0x8, addend: 0x0, symName: __ZNSt3__117__compressed_pairIPNS_6vectorIiNS_9allocatorIiEEEERNS2_IS4_EEEC1B8ue170006IDnS7_EEOT_OT0_, symObjAddr: 0x143C4, symBinAddr: 0x10001757C, symSize: 0x3C }
  - { offsetInCU: 0x3E9C3, offset: 0x3E9C3, size: 0x8, addend: 0x0, symName: __ZNSt3__114__split_bufferINS_6vectorIiNS_9allocatorIiEEEERNS2_IS4_EEE7__allocB8ue170006Ev, symObjAddr: 0x14440, symBinAddr: 0x1000175F8, symSize: 0x28 }
  - { offsetInCU: 0x3E9E9, offset: 0x3E9E9, size: 0x8, addend: 0x0, symName: __ZNSt3__114__split_bufferINS_6vectorIiNS_9allocatorIiEEEERNS2_IS4_EEE9__end_capB8ue170006Ev, symObjAddr: 0x14468, symBinAddr: 0x100017620, symSize: 0x28 }
  - { offsetInCU: 0x3EA0F, offset: 0x3EA0F, size: 0x8, addend: 0x0, symName: __ZNSt3__117__compressed_pairIPNS_6vectorIiNS_9allocatorIiEEEERNS2_IS4_EEEC2B8ue170006IDnS7_EEOT_OT0_, symObjAddr: 0x14490, symBinAddr: 0x100017648, symSize: 0x48 }
  - { offsetInCU: 0x3EA67, offset: 0x3EA67, size: 0x8, addend: 0x0, symName: __ZNSt3__122__compressed_pair_elemIRNS_9allocatorINS_6vectorIiNS1_IiEEEEEELi1ELb0EEC2B8ue170006IS6_vEEOT_, symObjAddr: 0x144D8, symBinAddr: 0x100017690, symSize: 0x20 }
  - { offsetInCU: 0x3EAA9, offset: 0x3EAA9, size: 0x8, addend: 0x0, symName: __ZNSt3__19allocatorINS_6vectorIiNS0_IiEEEEE8allocateB8ue170006Em, symObjAddr: 0x144F8, symBinAddr: 0x1000176B0, symSize: 0x5C }
  - { offsetInCU: 0x3EADD, offset: 0x3EADD, size: 0x8, addend: 0x0, symName: __ZNSt3__117__compressed_pairIPNS_6vectorIiNS_9allocatorIiEEEERNS2_IS4_EEE6secondB8ue170006Ev, symObjAddr: 0x14554, symBinAddr: 0x10001770C, symSize: 0x28 }
  - { offsetInCU: 0x3EB03, offset: 0x3EB03, size: 0x8, addend: 0x0, symName: __ZNSt3__122__compressed_pair_elemIRNS_9allocatorINS_6vectorIiNS1_IiEEEEEELi1ELb0EE5__getB8ue170006Ev, symObjAddr: 0x1457C, symBinAddr: 0x100017734, symSize: 0x18 }
  - { offsetInCU: 0x3EB29, offset: 0x3EB29, size: 0x8, addend: 0x0, symName: __ZNSt3__117__compressed_pairIPNS_6vectorIiNS_9allocatorIiEEEERNS2_IS4_EEE5firstB8ue170006Ev, symObjAddr: 0x14594, symBinAddr: 0x10001774C, symSize: 0x24 }
  - { offsetInCU: 0x3EB4F, offset: 0x3EB4F, size: 0x8, addend: 0x0, symName: __ZNKSt3__16vectorINS0_IiNS_9allocatorIiEEEENS1_IS3_EEE17__annotate_deleteB8ue170006Ev, symObjAddr: 0x145B8, symBinAddr: 0x100017770, symSize: 0xD4 }
  - { offsetInCU: 0x3EB75, offset: 0x3EB75, size: 0x8, addend: 0x0, symName: __ZNSt3__116reverse_iteratorIPNS_6vectorIiNS_9allocatorIiEEEEEC1B8ue170006ES5_, symObjAddr: 0x147B8, symBinAddr: 0x100017970, symSize: 0x34 }
  - { offsetInCU: 0x3EBAD, offset: 0x3EBAD, size: 0x8, addend: 0x0, symName: __ZNKSt3__116reverse_iteratorIPNS_6vectorIiNS_9allocatorIiEEEEE4baseB8ue170006Ev, symObjAddr: 0x147EC, symBinAddr: 0x1000179A4, symSize: 0x18 }
  - { offsetInCU: 0x3EBD3, offset: 0x3EBD3, size: 0x8, addend: 0x0, symName: __ZNKSt3__16vectorINS0_IiNS_9allocatorIiEEEENS1_IS3_EEE14__annotate_newB8ue170006Em, symObjAddr: 0x14840, symBinAddr: 0x1000179F8, symSize: 0xC8 }
  - { offsetInCU: 0x3EC08, offset: 0x3EC08, size: 0x8, addend: 0x0, symName: __ZNKSt3__16vectorINS0_IiNS_9allocatorIiEEEENS1_IS3_EEE31__annotate_contiguous_containerB8ue170006EPKvS7_S7_S7_, symObjAddr: 0x14908, symBinAddr: 0x100017AC0, symSize: 0x20 }
  - { offsetInCU: 0x3EC5E, offset: 0x3EC5E, size: 0x8, addend: 0x0, symName: __ZNKSt3__16vectorINS0_IiNS_9allocatorIiEEEENS1_IS3_EEE4dataB8ue170006Ev, symObjAddr: 0x14928, symBinAddr: 0x100017AE0, symSize: 0x28 }
  - { offsetInCU: 0x3EC84, offset: 0x3EC84, size: 0x8, addend: 0x0, symName: __ZNSt3__129_AllocatorDestroyRangeReverseINS_9allocatorINS_6vectorIiNS1_IiEEEEEENS_16reverse_iteratorIPS4_EEEC1B8ue170006ERS5_RS8_SB_, symObjAddr: 0x1499C, symBinAddr: 0x100017B54, symSize: 0x44 }
  - { offsetInCU: 0x3ECDB, offset: 0x3ECDB, size: 0x8, addend: 0x0, symName: __ZNSt3__116allocator_traitsINS_9allocatorINS_6vectorIiNS1_IiEEEEEEE9constructB8ue170006IS4_JS4_EvvEEvRS5_PT_DpOT0_, symObjAddr: 0x14A28, symBinAddr: 0x100017BE0, symSize: 0x30 }
  - { offsetInCU: 0x3ED30, offset: 0x3ED30, size: 0x8, addend: 0x0, symName: __ZNKSt3__116reverse_iteratorIPNS_6vectorIiNS_9allocatorIiEEEEEdeB8ue170006Ev, symObjAddr: 0x14A7C, symBinAddr: 0x100017C34, symSize: 0x28 }
  - { offsetInCU: 0x3ED64, offset: 0x3ED64, size: 0x8, addend: 0x0, symName: __ZNSt3__116reverse_iteratorIPNS_6vectorIiNS_9allocatorIiEEEEEppB8ue170006Ev, symObjAddr: 0x14AA4, symBinAddr: 0x100017C5C, symSize: 0x20 }
  - { offsetInCU: 0x3ED8A, offset: 0x3ED8A, size: 0x8, addend: 0x0, symName: __ZNSt3__128__exception_guard_exceptionsINS_29_AllocatorDestroyRangeReverseINS_9allocatorINS_6vectorIiNS2_IiEEEEEENS_16reverse_iteratorIPS5_EEEEE10__completeB8ue170006Ev, symObjAddr: 0x14AC4, symBinAddr: 0x100017C7C, symSize: 0x1C }
  - { offsetInCU: 0x3EDB0, offset: 0x3EDB0, size: 0x8, addend: 0x0, symName: __ZNSt3__128__exception_guard_exceptionsINS_29_AllocatorDestroyRangeReverseINS_9allocatorINS_6vectorIiNS2_IiEEEEEENS_16reverse_iteratorIPS5_EEEEED1B8ue170006Ev, symObjAddr: 0x14AE0, symBinAddr: 0x100017C98, symSize: 0x2C }
  - { offsetInCU: 0x3EDDA, offset: 0x3EDDA, size: 0x8, addend: 0x0, symName: __ZNSt3__128__exception_guard_exceptionsINS_29_AllocatorDestroyRangeReverseINS_9allocatorINS_6vectorIiNS2_IiEEEEEENS_16reverse_iteratorIPS5_EEEEEC1B8ue170006ESA_, symObjAddr: 0x14B0C, symBinAddr: 0x100017CC4, symSize: 0x34 }
  - { offsetInCU: 0x3EE13, offset: 0x3EE13, size: 0x8, addend: 0x0, symName: __ZNSt3__128__exception_guard_exceptionsINS_29_AllocatorDestroyRangeReverseINS_9allocatorINS_6vectorIiNS2_IiEEEEEENS_16reverse_iteratorIPS5_EEEEEC2B8ue170006ESA_, symObjAddr: 0x14B40, symBinAddr: 0x100017CF8, symSize: 0x30 }
  - { offsetInCU: 0x3EE4C, offset: 0x3EE4C, size: 0x8, addend: 0x0, symName: __ZNSt3__129_AllocatorDestroyRangeReverseINS_9allocatorINS_6vectorIiNS1_IiEEEEEENS_16reverse_iteratorIPS4_EEEC2B8ue170006ERS5_RS8_SB_, symObjAddr: 0x14B70, symBinAddr: 0x100017D28, symSize: 0x38 }
  - { offsetInCU: 0x3EEA3, offset: 0x3EEA3, size: 0x8, addend: 0x0, symName: __ZNSt3__16vectorIiNS_9allocatorIiEEEC1B8ue170006EOS3_, symObjAddr: 0x14BE4, symBinAddr: 0x100017D9C, symSize: 0x34 }
  - { offsetInCU: 0x3EEDE, offset: 0x3EEDE, size: 0x8, addend: 0x0, symName: __ZNSt3__16vectorIiNS_9allocatorIiEEEC2B8ue170006EOS3_, symObjAddr: 0x14C18, symBinAddr: 0x100017DD0, symSize: 0xC4 }
  - { offsetInCU: 0x3EF1F, offset: 0x3EF1F, size: 0x8, addend: 0x0, symName: __ZNSt3__117__compressed_pairIPiNS_9allocatorIiEEEC1B8ue170006IDnS3_EEOT_OT0_, symObjAddr: 0x14CDC, symBinAddr: 0x100017E94, symSize: 0x3C }
  - { offsetInCU: 0x3EF77, offset: 0x3EF77, size: 0x8, addend: 0x0, symName: __ZNSt3__117__compressed_pairIPiNS_9allocatorIiEEEC2B8ue170006IDnS3_EEOT_OT0_, symObjAddr: 0x14D18, symBinAddr: 0x100017ED0, symSize: 0x44 }
  - { offsetInCU: 0x3EFCF, offset: 0x3EFCF, size: 0x8, addend: 0x0, symName: __ZNSt3__122__compressed_pair_elemINS_9allocatorIiEELi1ELb1EEC2B8ue170006IS2_vEEOT_, symObjAddr: 0x14D5C, symBinAddr: 0x100017F14, symSize: 0x18 }
  - { offsetInCU: 0x3F017, offset: 0x3F017, size: 0x8, addend: 0x0, symName: __ZNSt3__119__to_address_helperINS_16reverse_iteratorIPNS_6vectorIiNS_9allocatorIiEEEEEEvE6__callB8ue170006ERKS7_, symObjAddr: 0x14D74, symBinAddr: 0x100017F2C, symSize: 0x38 }
  - { offsetInCU: 0x3F03A, offset: 0x3F03A, size: 0x8, addend: 0x0, symName: __ZNKSt3__116reverse_iteratorIPNS_6vectorIiNS_9allocatorIiEEEEEptB8ue170006Ev, symObjAddr: 0x14DAC, symBinAddr: 0x100017F64, symSize: 0x2C }
  - { offsetInCU: 0x3F060, offset: 0x3F060, size: 0x8, addend: 0x0, symName: __ZNSt3__128__exception_guard_exceptionsINS_29_AllocatorDestroyRangeReverseINS_9allocatorINS_6vectorIiNS2_IiEEEEEENS_16reverse_iteratorIPS5_EEEEED2B8ue170006Ev, symObjAddr: 0x14E7C, symBinAddr: 0x100018034, symSize: 0x50 }
  - { offsetInCU: 0x3F08A, offset: 0x3F08A, size: 0x8, addend: 0x0, symName: __ZNKSt3__129_AllocatorDestroyRangeReverseINS_9allocatorINS_6vectorIiNS1_IiEEEEEENS_16reverse_iteratorIPS4_EEEclB8ue170006Ev, symObjAddr: 0x14ECC, symBinAddr: 0x100018084, symSize: 0xB4 }
  - { offsetInCU: 0x3F0B1, offset: 0x3F0B1, size: 0x8, addend: 0x0, symName: __ZNSt3__116reverse_iteratorINS0_IPNS_6vectorIiNS_9allocatorIiEEEEEEEC1B8ue170006ES6_, symObjAddr: 0x14FF0, symBinAddr: 0x1000181A8, symSize: 0x3C }
  - { offsetInCU: 0x3F0E9, offset: 0x3F0E9, size: 0x8, addend: 0x0, symName: __ZNSt3__116allocator_traitsINS_9allocatorINS_6vectorIiNS1_IiEEEEEEE7destroyB8ue170006IS4_vvEEvRS5_PT_, symObjAddr: 0x1508C, symBinAddr: 0x100018244, symSize: 0x28 }
  - { offsetInCU: 0x3F124, offset: 0x3F124, size: 0x8, addend: 0x0, symName: __ZNSt3__116reverse_iteratorINS0_IPNS_6vectorIiNS_9allocatorIiEEEEEEEppB8ue170006Ev, symObjAddr: 0x150D8, symBinAddr: 0x100018290, symSize: 0x30 }
  - { offsetInCU: 0x3F14A, offset: 0x3F14A, size: 0x8, addend: 0x0, symName: __ZNKSt3__116reverse_iteratorINS0_IPNS_6vectorIiNS_9allocatorIiEEEEEEE4baseB8ue170006Ev, symObjAddr: 0x15108, symBinAddr: 0x1000182C0, symSize: 0x24 }
  - { offsetInCU: 0x3F176, offset: 0x3F176, size: 0x8, addend: 0x0, symName: __ZNSt3__119__to_address_helperINS_16reverse_iteratorINS1_IPNS_6vectorIiNS_9allocatorIiEEEEEEEEvE6__callB8ue170006ERKS8_, symObjAddr: 0x15174, symBinAddr: 0x10001832C, symSize: 0x38 }
  - { offsetInCU: 0x3F199, offset: 0x3F199, size: 0x8, addend: 0x0, symName: __ZNKSt3__116reverse_iteratorINS0_IPNS_6vectorIiNS_9allocatorIiEEEEEEEptB8ue170006Ev, symObjAddr: 0x151AC, symBinAddr: 0x100018364, symSize: 0x4C }
  - { offsetInCU: 0x3F1BF, offset: 0x3F1BF, size: 0x8, addend: 0x0, symName: __ZNSt3__116reverse_iteratorIPNS_6vectorIiNS_9allocatorIiEEEEEpLB8ue170006El, symObjAddr: 0x152A8, symBinAddr: 0x100018460, symSize: 0x30 }
  - { offsetInCU: 0x3F1F3, offset: 0x3F1F3, size: 0x8, addend: 0x0, symName: __ZNSt3__116reverse_iteratorIPNS_6vectorIiNS_9allocatorIiEEEEEmmB8ue170006Ev, symObjAddr: 0x152D8, symBinAddr: 0x100018490, symSize: 0x20 }
  - { offsetInCU: 0x3F219, offset: 0x3F219, size: 0x8, addend: 0x0, symName: __ZNSt3__116reverse_iteratorINS0_IPNS_6vectorIiNS_9allocatorIiEEEEEEEC2B8ue170006ES6_, symObjAddr: 0x152F8, symBinAddr: 0x1000184B0, symSize: 0x2C }
  - { offsetInCU: 0x3F251, offset: 0x3F251, size: 0x8, addend: 0x0, symName: __ZNSt3__116reverse_iteratorIPNS_6vectorIiNS_9allocatorIiEEEEEC2B8ue170006ES5_, symObjAddr: 0x15324, symBinAddr: 0x1000184DC, symSize: 0x28 }
  - { offsetInCU: 0x3F289, offset: 0x3F289, size: 0x8, addend: 0x0, symName: __ZNSt3__114__split_bufferINS_6vectorIiNS_9allocatorIiEEEERNS2_IS4_EEED2Ev, symObjAddr: 0x1534C, symBinAddr: 0x100018504, symSize: 0x8C }
  - { offsetInCU: 0x3F2B5, offset: 0x3F2B5, size: 0x8, addend: 0x0, symName: __ZNSt3__114__split_bufferINS_6vectorIiNS_9allocatorIiEEEERNS2_IS4_EEE5clearB8ue170006Ev, symObjAddr: 0x153D8, symBinAddr: 0x100018590, symSize: 0x28 }
  - { offsetInCU: 0x3F2DB, offset: 0x3F2DB, size: 0x8, addend: 0x0, symName: __ZNSt3__116allocator_traitsINS_9allocatorINS_6vectorIiNS1_IiEEEEEEE10deallocateB8ue170006ERS5_PS4_m, symObjAddr: 0x15400, symBinAddr: 0x1000185B8, symSize: 0x34 }
  - { offsetInCU: 0x3F31D, offset: 0x3F31D, size: 0x8, addend: 0x0, symName: __ZNKSt3__114__split_bufferINS_6vectorIiNS_9allocatorIiEEEERNS2_IS4_EEE8capacityB8ue170006Ev, symObjAddr: 0x15434, symBinAddr: 0x1000185EC, symSize: 0x40 }
  - { offsetInCU: 0x3F343, offset: 0x3F343, size: 0x8, addend: 0x0, symName: __ZNSt3__114__split_bufferINS_6vectorIiNS_9allocatorIiEEEERNS2_IS4_EEE17__destruct_at_endB8ue170006EPS4_, symObjAddr: 0x15474, symBinAddr: 0x10001862C, symSize: 0x2C }
  - { offsetInCU: 0x3F377, offset: 0x3F377, size: 0x8, addend: 0x0, symName: __ZNSt3__114__split_bufferINS_6vectorIiNS_9allocatorIiEEEERNS2_IS4_EEE17__destruct_at_endB8ue170006EPS4_NS_17integral_constantIbLb0EEE, symObjAddr: 0x154A0, symBinAddr: 0x100018658, symSize: 0x80 }
  - { offsetInCU: 0x3F3B8, offset: 0x3F3B8, size: 0x8, addend: 0x0, symName: __ZNSt3__19allocatorINS_6vectorIiNS0_IiEEEEE10deallocateB8ue170006EPS3_m, symObjAddr: 0x15520, symBinAddr: 0x1000186D8, symSize: 0x44 }
  - { offsetInCU: 0x3F3FA, offset: 0x3F3FA, size: 0x8, addend: 0x0, symName: __ZNKSt3__114__split_bufferINS_6vectorIiNS_9allocatorIiEEEERNS2_IS4_EEE9__end_capB8ue170006Ev, symObjAddr: 0x15564, symBinAddr: 0x10001871C, symSize: 0x28 }
  - { offsetInCU: 0x3F420, offset: 0x3F420, size: 0x8, addend: 0x0, symName: __ZNKSt3__117__compressed_pairIPNS_6vectorIiNS_9allocatorIiEEEERNS2_IS4_EEE5firstB8ue170006Ev, symObjAddr: 0x1558C, symBinAddr: 0x100018744, symSize: 0x24 }
  - { offsetInCU: 0x3F446, offset: 0x3F446, size: 0x8, addend: 0x0, symName: __ZNSt3__16vectorINS0_IiNS_9allocatorIiEEEENS1_IS3_EEE11__make_iterB8ue170006EPS3_, symObjAddr: 0x155B0, symBinAddr: 0x100018768, symSize: 0x30 }
  - { offsetInCU: 0x3F47B, offset: 0x3F47B, size: 0x8, addend: 0x0, symName: __ZNSt3__111__wrap_iterIPNS_6vectorIiNS_9allocatorIiEEEEEC1B8ue170006ES5_, symObjAddr: 0x155E0, symBinAddr: 0x100018798, symSize: 0x34 }
  - { offsetInCU: 0x3F4B3, offset: 0x3F4B3, size: 0x8, addend: 0x0, symName: __ZNSt3__111__wrap_iterIPNS_6vectorIiNS_9allocatorIiEEEEEC2B8ue170006ES5_, symObjAddr: 0x15614, symBinAddr: 0x1000187CC, symSize: 0x20 }
  - { offsetInCU: 0x3F4EB, offset: 0x3F4EB, size: 0x8, addend: 0x0, symName: __ZNKSt3__111__wrap_iterIPNS_6vectorIiNS_9allocatorIiEEEEE4baseB8ue170006Ev, symObjAddr: 0x1567C, symBinAddr: 0x100018834, symSize: 0x18 }
  - { offsetInCU: 0x3F511, offset: 0x3F511, size: 0x8, addend: 0x0, symName: __ZNSt3__16vectorIiNS_9allocatorIiEEE11__make_iterB8ue170006EPi, symObjAddr: 0x15694, symBinAddr: 0x10001884C, symSize: 0x30 }
  - { offsetInCU: 0x3F546, offset: 0x3F546, size: 0x8, addend: 0x0, symName: __ZNSt3__111__wrap_iterIPiEC1B8ue170006ES1_, symObjAddr: 0x156C4, symBinAddr: 0x10001887C, symSize: 0x34 }
  - { offsetInCU: 0x3F57E, offset: 0x3F57E, size: 0x8, addend: 0x0, symName: __ZNSt3__111__wrap_iterIPiEC2B8ue170006ES1_, symObjAddr: 0x156F8, symBinAddr: 0x1000188B0, symSize: 0x20 }
  - { offsetInCU: 0x3F5B6, offset: 0x3F5B6, size: 0x8, addend: 0x0, symName: __ZNKSt3__111__wrap_iterIPiE4baseB8ue170006Ev, symObjAddr: 0x15760, symBinAddr: 0x100018918, symSize: 0x18 }
  - { offsetInCU: 0x3F5DC, offset: 0x3F5DC, size: 0x8, addend: 0x0, symName: __ZNSt3__16vectorINS0_IiNS_9allocatorIiEEEENS1_IS3_EEED2B8ue170006Ev, symObjAddr: 0x15778, symBinAddr: 0x100018930, symSize: 0x44 }
  - { offsetInCU: 0x3F606, offset: 0x3F606, size: 0x8, addend: 0x0, symName: __ZNSt3__16vectorINS0_IiNS_9allocatorIiEEEENS1_IS3_EEE16__destroy_vectorC1B8ue170006ERS5_, symObjAddr: 0x157BC, symBinAddr: 0x100018974, symSize: 0x34 }
  - { offsetInCU: 0x3F63F, offset: 0x3F63F, size: 0x8, addend: 0x0, symName: __ZNSt3__16vectorINS0_IiNS_9allocatorIiEEEENS1_IS3_EEE16__destroy_vectorclB8ue170006Ev, symObjAddr: 0x157F0, symBinAddr: 0x1000189A8, symSize: 0x90 }
  - { offsetInCU: 0x3F665, offset: 0x3F665, size: 0x8, addend: 0x0, symName: __ZNSt3__16vectorINS0_IiNS_9allocatorIiEEEENS1_IS3_EEE16__destroy_vectorC2B8ue170006ERS5_, symObjAddr: 0x15880, symBinAddr: 0x100018A38, symSize: 0x20 }
  - { offsetInCU: 0x3F69E, offset: 0x3F69E, size: 0x8, addend: 0x0, symName: __ZNSt3__16vectorINS0_IiNS_9allocatorIiEEEENS1_IS3_EEE7__clearB8ue170006Ev, symObjAddr: 0x158A0, symBinAddr: 0x100018A58, symSize: 0x28 }
  - { offsetInCU: 0x3F6C4, offset: 0x3F6C4, size: 0x8, addend: 0x0, symName: __ZNSt3__16vectorINS0_IiNS_9allocatorIiEEEENS1_IS3_EEE22__base_destruct_at_endB8ue170006EPS3_, symObjAddr: 0x158C8, symBinAddr: 0x100018A80, symSize: 0x8C }
  - { offsetInCU: 0x3F708, offset: 0x3F708, size: 0x8, addend: 0x0, symName: __ZNSt3__19basic_iosIcNS_11char_traitsIcEEE5clearB8ue170006Ej, symObjAddr: 0x15954, symBinAddr: 0x100018B0C, symSize: 0x2C }
  - { offsetInCU: 0x3F73D, offset: 0x3F73D, size: 0x8, addend: 0x0, symName: __ZNSt3__16vectorINS0_IiNS_9allocatorIiEEEENS1_IS3_EEE13__move_assignERS5_NS_17integral_constantIbLb1EEE, symObjAddr: 0x15980, symBinAddr: 0x100018B38, symSize: 0x94 }
  - { offsetInCU: 0x3F780, offset: 0x3F780, size: 0x8, addend: 0x0, symName: __ZNSt3__16vectorINS0_IiNS_9allocatorIiEEEENS1_IS3_EEE13__vdeallocateEv, symObjAddr: 0x15A14, symBinAddr: 0x100018BCC, symSize: 0x94 }
  - { offsetInCU: 0x3F7A8, offset: 0x3F7A8, size: 0x8, addend: 0x0, symName: __ZNSt3__16vectorINS0_IiNS_9allocatorIiEEEENS1_IS3_EEE19__move_assign_allocB8ue170006ERS5_, symObjAddr: 0x15AA8, symBinAddr: 0x100018C60, symSize: 0x2C }
  - { offsetInCU: 0x3F7DD, offset: 0x3F7DD, size: 0x8, addend: 0x0, symName: __ZNSt3__16vectorINS0_IiNS_9allocatorIiEEEENS1_IS3_EEE5clearB8ue170006Ev, symObjAddr: 0x15AD4, symBinAddr: 0x100018C8C, symSize: 0x44 }
  - { offsetInCU: 0x3F812, offset: 0x3F812, size: 0x8, addend: 0x0, symName: __ZNKSt3__16vectorINS0_IiNS_9allocatorIiEEEENS1_IS3_EEE17__annotate_shrinkB8ue170006Em, symObjAddr: 0x15B18, symBinAddr: 0x100018CD0, symSize: 0xD0 }
  - { offsetInCU: 0x3F847, offset: 0x3F847, size: 0x8, addend: 0x0, symName: __ZNSt3__16vectorINS0_IiNS_9allocatorIiEEEENS1_IS3_EEE19__move_assign_allocB8ue170006ERS5_NS_17integral_constantIbLb1EEE, symObjAddr: 0x15BE8, symBinAddr: 0x100018DA0, symSize: 0x38 }
  - { offsetInCU: 0x3F888, offset: 0x3F888, size: 0x8, addend: 0x0, symName: __ZNSt3__16vectorIiNS_9allocatorIiEEEC2ERKS3_, symObjAddr: 0x15C20, symBinAddr: 0x100018DD8, symSize: 0x94 }
  - { offsetInCU: 0x3F8C3, offset: 0x3F8C3, size: 0x8, addend: 0x0, symName: __ZNSt3__116allocator_traitsINS_9allocatorIiEEE37select_on_container_copy_constructionB8ue170006IS2_vvEES2_RKS2_, symObjAddr: 0x15CB4, symBinAddr: 0x100018E6C, symSize: 0x10 }
  - { offsetInCU: 0x3F8F2, offset: 0x3F8F2, size: 0x8, addend: 0x0, symName: __ZNSt3__16vectorIiNS_9allocatorIiEEE16__init_with_sizeB8ue170006IPiS5_EEvT_T0_m, symObjAddr: 0x15CC4, symBinAddr: 0x100018E7C, symSize: 0xB8 }
  - { offsetInCU: 0x3F966, offset: 0x3F966, size: 0x8, addend: 0x0, symName: __ZNSt3__128__exception_guard_exceptionsINS_6vectorIiNS_9allocatorIiEEE16__destroy_vectorEE10__completeB8ue170006Ev, symObjAddr: 0x15DBC, symBinAddr: 0x100018F74, symSize: 0x1C }
  - { offsetInCU: 0x3F98C, offset: 0x3F98C, size: 0x8, addend: 0x0, symName: __ZNSt3__128__exception_guard_exceptionsINS_6vectorIiNS_9allocatorIiEEE16__destroy_vectorEED1B8ue170006Ev, symObjAddr: 0x15DD8, symBinAddr: 0x100018F90, symSize: 0x2C }
  - { offsetInCU: 0x3F9B6, offset: 0x3F9B6, size: 0x8, addend: 0x0, symName: __ZNSt3__128__exception_guard_exceptionsINS_6vectorIiNS_9allocatorIiEEE16__destroy_vectorEEC1B8ue170006ES5_, symObjAddr: 0x15E04, symBinAddr: 0x100018FBC, symSize: 0x34 }
  - { offsetInCU: 0x3F9EE, offset: 0x3F9EE, size: 0x8, addend: 0x0, symName: __ZNSt3__128__exception_guard_exceptionsINS_6vectorIiNS_9allocatorIiEEE16__destroy_vectorEEC2B8ue170006ES5_, symObjAddr: 0x15E38, symBinAddr: 0x100018FF0, symSize: 0x24 }
  - { offsetInCU: 0x3FA26, offset: 0x3FA26, size: 0x8, addend: 0x0, symName: __ZNSt3__128__exception_guard_exceptionsINS_6vectorIiNS_9allocatorIiEEE16__destroy_vectorEED2B8ue170006Ev, symObjAddr: 0x15E5C, symBinAddr: 0x100019014, symSize: 0x48 }
  - { offsetInCU: 0x3FA50, offset: 0x3FA50, size: 0x8, addend: 0x0, symName: __ZN12fileIteratorC2ENSt3__112basic_stringIcNS0_11char_traitsIcEENS0_9allocatorIcEEEE, symObjAddr: 0x15EA4, symBinAddr: 0x10001905C, symSize: 0xF8 }
  - { offsetInCU: 0x3FA89, offset: 0x3FA89, size: 0x8, addend: 0x0, symName: __ZNSt3__114basic_ifstreamIcNS_11char_traitsIcEEEC1Ev, symObjAddr: 0x15F9C, symBinAddr: 0x100019154, symSize: 0xE8 }
  - { offsetInCU: 0x3FABB, offset: 0x3FABB, size: 0x8, addend: 0x0, symName: __ZNSt3__114basic_ifstreamIcNS_11char_traitsIcEEED1Ev, symObjAddr: 0x16084, symBinAddr: 0x10001923C, symSize: 0x40 }
  - { offsetInCU: 0x3FAE8, offset: 0x3FAE8, size: 0x8, addend: 0x0, symName: __ZNSt3__19basic_iosIcNS_11char_traitsIcEEEC2B8ue170006Ev, symObjAddr: 0x160C4, symBinAddr: 0x10001927C, symSize: 0x44 }
  - { offsetInCU: 0x3FB12, offset: 0x3FB12, size: 0x8, addend: 0x0, symName: __ZNSt3__113basic_istreamIcNS_11char_traitsIcEEEC2B8ue170006EPNS_15basic_streambufIcS2_EE, symObjAddr: 0x16108, symBinAddr: 0x1000192C0, symSize: 0x64 }
  - { offsetInCU: 0x3FB57, offset: 0x3FB57, size: 0x8, addend: 0x0, symName: __ZNSt3__18ios_baseC2B8ue170006Ev, symObjAddr: 0x1616C, symBinAddr: 0x100019324, symSize: 0x24 }
  - { offsetInCU: 0x3FB81, offset: 0x3FB81, size: 0x8, addend: 0x0, symName: __ZNSt3__19basic_iosIcNS_11char_traitsIcEEE4initB8ue170006EPNS_15basic_streambufIcS2_EE, symObjAddr: 0x16190, symBinAddr: 0x100019348, symSize: 0x44 }
  - { offsetInCU: 0x3FBB8, offset: 0x3FBB8, size: 0x8, addend: 0x0, symName: __ZNSt3__114basic_ifstreamIcNS_11char_traitsIcEEED2Ev, symObjAddr: 0x161D4, symBinAddr: 0x10001938C, symSize: 0x64 }
  - { offsetInCU: 0x3FBF2, offset: 0x3FBF2, size: 0x8, addend: 0x0, symName: __ZTv0_n24_NSt3__114basic_ifstreamIcNS_11char_traitsIcEEED1Ev, symObjAddr: 0x16238, symBinAddr: 0x1000193F0, symSize: 0x28 }
  - { offsetInCU: 0x3FC09, offset: 0x3FC09, size: 0x8, addend: 0x0, symName: __ZN12fileIteratorD2Ev, symObjAddr: 0x16260, symBinAddr: 0x100019418, symSize: 0x48 }
  - { offsetInCU: 0x3FC33, offset: 0x3FC33, size: 0x8, addend: 0x0, symName: __ZNSt3__114basic_ifstreamIcNS_11char_traitsIcEEE5closeEv, symObjAddr: 0x162A8, symBinAddr: 0x100019460, symSize: 0x58 }
  - { offsetInCU: 0x3FC5B, offset: 0x3FC5B, size: 0x8, addend: 0x0, symName: __ZNSt3__19basic_iosIcNS_11char_traitsIcEEE8setstateB8ue170006Ej, symObjAddr: 0x16300, symBinAddr: 0x1000194B8, symSize: 0x2C }
  - { offsetInCU: 0x3FC90, offset: 0x3FC90, size: 0x8, addend: 0x0, symName: __ZNSt3__18ios_base8setstateB8ue170006Ej, symObjAddr: 0x1632C, symBinAddr: 0x1000194E4, symSize: 0x34 }
  - { offsetInCU: 0x3FCC7, offset: 0x3FCC7, size: 0x8, addend: 0x0, symName: __ZNSt3__112basic_stringIcNS_11char_traitsIcEENS_9allocatorIcEEE6appendB8ue170006ERKS5_, symObjAddr: 0x16360, symBinAddr: 0x100019518, symSize: 0x4C }
  - { offsetInCU: 0x3FCFC, offset: 0x3FCFC, size: 0x8, addend: 0x0, symName: __ZNSt3__111char_traitsIcE6lengthB8ue170006EPKc, symObjAddr: 0x163AC, symBinAddr: 0x100019564, symSize: 0x34 }
  - { offsetInCU: 0x3FD2A, offset: 0x3FD2A, size: 0x8, addend: 0x0, symName: __ZNSt3__116allocator_traitsINS_9allocatorIcEEE37select_on_container_copy_constructionB8ue170006IS2_vvEES2_RKS2_, symObjAddr: 0x163E0, symBinAddr: 0x100019598, symSize: 0x10 }
  - { offsetInCU: 0x3FD59, offset: 0x3FD59, size: 0x8, addend: 0x0, symName: __ZNKSt3__112basic_stringIcNS_11char_traitsIcEENS_9allocatorIcEEE13get_allocatorB8ue170006Ev, symObjAddr: 0x163F0, symBinAddr: 0x1000195A8, symSize: 0x24 }
  - { offsetInCU: 0x3FD7F, offset: 0x3FD7F, size: 0x8, addend: 0x0, symName: __ZNSt3__112basic_stringIcNS_11char_traitsIcEENS_9allocatorIcEEEC1B8ue170006ENS_24__uninitialized_size_tagEmRKS4_, symObjAddr: 0x16414, symBinAddr: 0x1000195CC, symSize: 0x3C }
  - { offsetInCU: 0x3FDD3, offset: 0x3FDD3, size: 0x8, addend: 0x0, symName: __ZNSt3__112basic_stringIcNS_11char_traitsIcEENS_9allocatorIcEEE13__get_pointerB8ue170006Ev, symObjAddr: 0x16464, symBinAddr: 0x10001961C, symSize: 0x54 }
  - { offsetInCU: 0x3FDF9, offset: 0x3FDF9, size: 0x8, addend: 0x0, symName: __ZNSt3__111char_traitsIcE4copyB8ue170006EPcPKcm, symObjAddr: 0x164B8, symBinAddr: 0x100019670, symSize: 0x40 }
  - { offsetInCU: 0x3FE38, offset: 0x3FE38, size: 0x8, addend: 0x0, symName: __ZNSt3__111char_traitsIcE6assignB8ue170006EPcmc, symObjAddr: 0x164F8, symBinAddr: 0x1000196B0, symSize: 0x44 }
  - { offsetInCU: 0x3FE77, offset: 0x3FE77, size: 0x8, addend: 0x0, symName: __ZNKSt3__112basic_stringIcNS_11char_traitsIcEENS_9allocatorIcEEE7__allocB8ue170006Ev, symObjAddr: 0x16560, symBinAddr: 0x100019718, symSize: 0x24 }
  - { offsetInCU: 0x3FE9D, offset: 0x3FE9D, size: 0x8, addend: 0x0, symName: __ZNKSt3__117__compressed_pairINS_12basic_stringIcNS_11char_traitsIcEENS_9allocatorIcEEE5__repES5_E6secondB8ue170006Ev, symObjAddr: 0x16584, symBinAddr: 0x10001973C, symSize: 0x24 }
  - { offsetInCU: 0x3FEC3, offset: 0x3FEC3, size: 0x8, addend: 0x0, symName: __ZNKSt3__122__compressed_pair_elemINS_9allocatorIcEELi1ELb1EE5__getB8ue170006Ev, symObjAddr: 0x165A8, symBinAddr: 0x100019760, symSize: 0x14 }
  - { offsetInCU: 0x3FEE9, offset: 0x3FEE9, size: 0x8, addend: 0x0, symName: __ZNSt3__112basic_stringIcNS_11char_traitsIcEENS_9allocatorIcEEEC2B8ue170006ENS_24__uninitialized_size_tagEmRKS4_, symObjAddr: 0x165BC, symBinAddr: 0x100019774, symSize: 0x110 }
  - { offsetInCU: 0x3FF69, offset: 0x3FF69, size: 0x8, addend: 0x0, symName: __ZNSt3__117__compressed_pairINS_12basic_stringIcNS_11char_traitsIcEENS_9allocatorIcEEE5__repES5_EC1B8ue170006INS_18__default_init_tagERKS5_EEOT_OT0_, symObjAddr: 0x166CC, symBinAddr: 0x100019884, symSize: 0x3C }
  - { offsetInCU: 0x3FFC1, offset: 0x3FFC1, size: 0x8, addend: 0x0, symName: __ZNKSt3__112basic_stringIcNS_11char_traitsIcEENS_9allocatorIcEEE8max_sizeB8ue170006Ev, symObjAddr: 0x16708, symBinAddr: 0x1000198C0, symSize: 0xAC }
  - { offsetInCU: 0x40013, offset: 0x40013, size: 0x8, addend: 0x0, symName: __ZNKSt3__112basic_stringIcNS_11char_traitsIcEENS_9allocatorIcEEE20__throw_length_errorB8ue170006Ev, symObjAddr: 0x167B4, symBinAddr: 0x10001996C, symSize: 0x1C }
  - { offsetInCU: 0x40039, offset: 0x40039, size: 0x8, addend: 0x0, symName: __ZNSt3__112basic_stringIcNS_11char_traitsIcEENS_9allocatorIcEEE13__fits_in_ssoB8ue170006Em, symObjAddr: 0x167D0, symBinAddr: 0x100019988, symSize: 0x20 }
  - { offsetInCU: 0x4005D, offset: 0x4005D, size: 0x8, addend: 0x0, symName: __ZNSt3__112basic_stringIcNS_11char_traitsIcEENS_9allocatorIcEEE11__recommendB8ue170006Em, symObjAddr: 0x167F0, symBinAddr: 0x1000199A8, symSize: 0x84 }
  - { offsetInCU: 0x40090, offset: 0x40090, size: 0x8, addend: 0x0, symName: __ZNSt3__116allocator_traitsINS_9allocatorIcEEE8allocateB8ue170006ERS2_m, symObjAddr: 0x16874, symBinAddr: 0x100019A2C, symSize: 0x2C }
  - { offsetInCU: 0x400C3, offset: 0x400C3, size: 0x8, addend: 0x0, symName: __ZNSt3__112basic_stringIcNS_11char_traitsIcEENS_9allocatorIcEEE16__begin_lifetimeB8ue170006EPcm, symObjAddr: 0x168A0, symBinAddr: 0x100019A58, symSize: 0x14 }
  - { offsetInCU: 0x400F6, offset: 0x400F6, size: 0x8, addend: 0x0, symName: __ZNSt3__112basic_stringIcNS_11char_traitsIcEENS_9allocatorIcEEE14__set_long_capB8ue170006Em, symObjAddr: 0x168B4, symBinAddr: 0x100019A6C, symSize: 0x70 }
  - { offsetInCU: 0x4012B, offset: 0x4012B, size: 0x8, addend: 0x0, symName: __ZNSt3__112basic_stringIcNS_11char_traitsIcEENS_9allocatorIcEEE18__set_long_pointerB8ue170006EPc, symObjAddr: 0x16924, symBinAddr: 0x100019ADC, symSize: 0x38 }
  - { offsetInCU: 0x40160, offset: 0x40160, size: 0x8, addend: 0x0, symName: __ZNSt3__112basic_stringIcNS_11char_traitsIcEENS_9allocatorIcEEE15__set_long_sizeB8ue170006Em, symObjAddr: 0x1695C, symBinAddr: 0x100019B14, symSize: 0x38 }
  - { offsetInCU: 0x40195, offset: 0x40195, size: 0x8, addend: 0x0, symName: __ZNSt3__117__compressed_pairINS_12basic_stringIcNS_11char_traitsIcEENS_9allocatorIcEEE5__repES5_EC2B8ue170006INS_18__default_init_tagERKS5_EEOT_OT0_, symObjAddr: 0x16994, symBinAddr: 0x100019B4C, symSize: 0x40 }
  - { offsetInCU: 0x401ED, offset: 0x401ED, size: 0x8, addend: 0x0, symName: __ZNSt3__122__compressed_pair_elemINS_9allocatorIcEELi1ELb1EEC2B8ue170006IRKS2_vEEOT_, symObjAddr: 0x169D4, symBinAddr: 0x100019B8C, symSize: 0x18 }
  - { offsetInCU: 0x4022F, offset: 0x4022F, size: 0x8, addend: 0x0, symName: __ZNSt3__116allocator_traitsINS_9allocatorIcEEE8max_sizeB8ue170006IS2_vvEEmRKS2_, symObjAddr: 0x169EC, symBinAddr: 0x100019BA4, symSize: 0x28 }
  - { offsetInCU: 0x4025B, offset: 0x4025B, size: 0x8, addend: 0x0, symName: __ZNSt3__112basic_stringIcNS_11char_traitsIcEENS_9allocatorIcEEE10__align_itB8ue170006ILm16EEEmm, symObjAddr: 0x16A14, symBinAddr: 0x100019BCC, symSize: 0x1C }
  - { offsetInCU: 0x40289, offset: 0x40289, size: 0x8, addend: 0x0, symName: __ZNSt3__19allocatorIcE8allocateB8ue170006Em, symObjAddr: 0x16A30, symBinAddr: 0x100019BE8, symSize: 0x58 }
  - { offsetInCU: 0x402DA, offset: 0x402DA, size: 0x8, addend: 0x0, symName: __ZNKSt3__114__copy_trivialclB8ue170006IKccLi0EEENS_4pairIPT_PT0_EES5_S5_S7_, symObjAddr: 0x16C84, symBinAddr: 0x100019E3C, symSize: 0x48 }
  - { offsetInCU: 0x4035F, offset: 0x4035F, size: 0x8, addend: 0x0, symName: __ZNSt3__119__unwrap_range_implIPKcS2_E8__unwrapB8ue170006ES2_S2_, symObjAddr: 0x16D90, symBinAddr: 0x100019F48, symSize: 0x58 }
  - { offsetInCU: 0x40396, offset: 0x40396, size: 0x8, addend: 0x0, symName: __ZNSt3__14pairIPKcS2_EC1B8ue170006IS2_S2_LPv0EEEOT_OT0_, symObjAddr: 0x16E0C, symBinAddr: 0x100019FC4, symSize: 0x3C }
  - { offsetInCU: 0x403F4, offset: 0x403F4, size: 0x8, addend: 0x0, symName: __ZNSt3__118__unwrap_iter_implIPKcLb1EE8__unwrapB8ue170006ES2_, symObjAddr: 0x16E48, symBinAddr: 0x10001A000, symSize: 0x24 }
  - { offsetInCU: 0x40417, offset: 0x40417, size: 0x8, addend: 0x0, symName: __ZNSt3__14pairIPKcS2_EC2B8ue170006IS2_S2_LPv0EEEOT_OT0_, symObjAddr: 0x16E6C, symBinAddr: 0x10001A024, symSize: 0x34 }
  - { offsetInCU: 0x40481, offset: 0x40481, size: 0x8, addend: 0x0, symName: __ZNSt3__14pairIPKcPcEC1B8ue170006IRS2_S3_LPv0EEEOT_OT0_, symObjAddr: 0x16FB4, symBinAddr: 0x10001A16C, symSize: 0x3C }
  - { offsetInCU: 0x404DF, offset: 0x404DF, size: 0x8, addend: 0x0, symName: __ZNSt3__14pairIPKcPcEC2B8ue170006IRS2_S3_LPv0EEEOT_OT0_, symObjAddr: 0x16FF0, symBinAddr: 0x10001A1A8, symSize: 0x34 }
  - { offsetInCU: 0x4053D, offset: 0x4053D, size: 0x8, addend: 0x0, symName: __ZNSt3__118__unwrap_iter_implIPcLb1EE8__unwrapB8ue170006ES1_, symObjAddr: 0x17024, symBinAddr: 0x10001A1DC, symSize: 0x24 }
  - { offsetInCU: 0x40560, offset: 0x40560, size: 0x8, addend: 0x0, symName: __ZNSt3__14pairIPKcPcEC1B8ue170006IS2_S3_LPv0EEEOT_OT0_, symObjAddr: 0x17048, symBinAddr: 0x10001A200, symSize: 0x3C }
  - { offsetInCU: 0x405BE, offset: 0x405BE, size: 0x8, addend: 0x0, symName: __ZNSt3__14pairIPKcPcEC2B8ue170006IS2_S3_LPv0EEEOT_OT0_, symObjAddr: 0x17084, symBinAddr: 0x10001A23C, symSize: 0x34 }
  - { offsetInCU: 0x4061C, offset: 0x4061C, size: 0x8, addend: 0x0, symName: __ZNSt3__119__unwrap_range_implIPKcS2_E8__rewrapB8ue170006ES2_S2_, symObjAddr: 0x170B8, symBinAddr: 0x10001A270, symSize: 0x2C }
  - { offsetInCU: 0x4064D, offset: 0x4064D, size: 0x8, addend: 0x0, symName: __ZNSt3__118__unwrap_iter_implIPKcLb1EE8__rewrapB8ue170006ES2_S2_, symObjAddr: 0x17120, symBinAddr: 0x10001A2D8, symSize: 0x48 }
  - { offsetInCU: 0x4067E, offset: 0x4067E, size: 0x8, addend: 0x0, symName: __ZNSt3__118__unwrap_iter_implIPcLb1EE8__rewrapB8ue170006ES1_S1_, symObjAddr: 0x17168, symBinAddr: 0x10001A320, symSize: 0x48 }
  - { offsetInCU: 0x406AF, offset: 0x406AF, size: 0x8, addend: 0x0, symName: __ZNSt3__16vectorINS_12basic_stringIcNS_11char_traitsIcEENS_9allocatorIcEEEENS4_IS6_EEE22__construct_one_at_endB8ue170006IJS6_EEEvDpOT_, symObjAddr: 0x1726C, symBinAddr: 0x10001A424, symSize: 0x90 }
  - { offsetInCU: 0x406FE, offset: 0x406FE, size: 0x8, addend: 0x0, symName: __ZNSt3__16vectorINS_12basic_stringIcNS_11char_traitsIcEENS_9allocatorIcEEEENS4_IS6_EEE21__push_back_slow_pathIS6_EEvOT_, symObjAddr: 0x172FC, symBinAddr: 0x10001A4B4, symSize: 0xD8 }
  - { offsetInCU: 0x4075C, offset: 0x4075C, size: 0x8, addend: 0x0, symName: __ZNSt3__112basic_stringIcNS_11char_traitsIcEENS_9allocatorIcEEEC2B8ue170006ILi0EEEPKc, symObjAddr: 0x173D4, symBinAddr: 0x10001A58C, symSize: 0x58 }
  - { offsetInCU: 0x4079B, offset: 0x4079B, size: 0x8, addend: 0x0, symName: __ZNKSt3__19basic_iosIcNS_11char_traitsIcEEE4failB8ue170006Ev, symObjAddr: 0x1742C, symBinAddr: 0x10001A5E4, symSize: 0x28 }
  - { offsetInCU: 0x407C1, offset: 0x407C1, size: 0x8, addend: 0x0, symName: __ZNKSt3__18ios_base4failB8ue170006Ev, symObjAddr: 0x17454, symBinAddr: 0x10001A60C, symSize: 0x28 }
  - { offsetInCU: 0x4080C, offset: 0x4080C, size: 0x8, addend: 0x0, symName: __ZNKSt3__113basic_ostreamIcNS_11char_traitsIcEEE6sentrycvbB8ue170006Ev, symObjAddr: 0x17668, symBinAddr: 0x10001A820, symSize: 0x1C }
  - { offsetInCU: 0x40832, offset: 0x40832, size: 0x8, addend: 0x0, symName: __ZNSt3__119ostreambuf_iteratorIcNS_11char_traitsIcEEEC1B8ue170006ERNS_13basic_ostreamIcS2_EE, symObjAddr: 0x178C4, symBinAddr: 0x10001AA7C, symSize: 0x34 }
  - { offsetInCU: 0x4086A, offset: 0x4086A, size: 0x8, addend: 0x0, symName: __ZNKSt3__18ios_base5flagsB8ue170006Ev, symObjAddr: 0x178F8, symBinAddr: 0x10001AAB0, symSize: 0x18 }
  - { offsetInCU: 0x40892, offset: 0x40892, size: 0x8, addend: 0x0, symName: __ZNKSt3__19basic_iosIcNS_11char_traitsIcEEE4fillB8ue170006Ev, symObjAddr: 0x17910, symBinAddr: 0x10001AAC8, symSize: 0x64 }
  - { offsetInCU: 0x408BA, offset: 0x408BA, size: 0x8, addend: 0x0, symName: __ZNKSt3__119ostreambuf_iteratorIcNS_11char_traitsIcEEE6failedB8ue170006Ev, symObjAddr: 0x17974, symBinAddr: 0x10001AB2C, symSize: 0x24 }
  - { offsetInCU: 0x408E0, offset: 0x408E0, size: 0x8, addend: 0x0, symName: __ZNKSt3__18ios_base5widthB8ue170006Ev, symObjAddr: 0x17998, symBinAddr: 0x10001AB50, symSize: 0x18 }
  - { offsetInCU: 0x40908, offset: 0x40908, size: 0x8, addend: 0x0, symName: __ZNSt3__115basic_streambufIcNS_11char_traitsIcEEE5sputnB8ue170006EPKcl, symObjAddr: 0x179B0, symBinAddr: 0x10001AB68, symSize: 0x3C }
  - { offsetInCU: 0x4094A, offset: 0x4094A, size: 0x8, addend: 0x0, symName: __ZNSt3__112basic_stringIcNS_11char_traitsIcEENS_9allocatorIcEEEC1B8ue170006Emc, symObjAddr: 0x179EC, symBinAddr: 0x10001ABA4, symSize: 0x3C }
  - { offsetInCU: 0x40992, offset: 0x40992, size: 0x8, addend: 0x0, symName: __ZNSt3__112basic_stringIcNS_11char_traitsIcEENS_9allocatorIcEEE4dataB8ue170006Ev, symObjAddr: 0x17A28, symBinAddr: 0x10001ABE0, symSize: 0x28 }
  - { offsetInCU: 0x409B8, offset: 0x409B8, size: 0x8, addend: 0x0, symName: __ZNSt3__18ios_base5widthB8ue170006El, symObjAddr: 0x17A50, symBinAddr: 0x10001AC08, symSize: 0x2C }
  - { offsetInCU: 0x409FE, offset: 0x409FE, size: 0x8, addend: 0x0, symName: __ZNSt3__112basic_stringIcNS_11char_traitsIcEENS_9allocatorIcEEEC2B8ue170006Emc, symObjAddr: 0x17A7C, symBinAddr: 0x10001AC34, symSize: 0x4C }
  - { offsetInCU: 0x40A46, offset: 0x40A46, size: 0x8, addend: 0x0, symName: __ZNSt3__119ostreambuf_iteratorIcNS_11char_traitsIcEEEC2B8ue170006ERNS_13basic_ostreamIcS2_EE, symObjAddr: 0x17AC8, symBinAddr: 0x10001AC80, symSize: 0x54 }
  - { offsetInCU: 0x40A7E, offset: 0x40A7E, size: 0x8, addend: 0x0, symName: __ZNKSt3__19basic_iosIcNS_11char_traitsIcEEE5rdbufB8ue170006Ev, symObjAddr: 0x17B1C, symBinAddr: 0x10001ACD4, symSize: 0x24 }
  - { offsetInCU: 0x40AA6, offset: 0x40AA6, size: 0x8, addend: 0x0, symName: __ZNKSt3__18ios_base5rdbufB8ue170006Ev, symObjAddr: 0x17B40, symBinAddr: 0x10001ACF8, symSize: 0x18 }
  - { offsetInCU: 0x40ACC, offset: 0x40ACC, size: 0x8, addend: 0x0, symName: __ZNSt3__111char_traitsIcE11eq_int_typeB8ue170006Eii, symObjAddr: 0x17B58, symBinAddr: 0x10001AD10, symSize: 0x28 }
  - { offsetInCU: 0x40AFF, offset: 0x40AFF, size: 0x8, addend: 0x0, symName: __ZNSt3__113basic_ostreamIcNS_11char_traitsIcEEEC2B8ue170006EPNS_15basic_streambufIcS2_EE, symObjAddr: 0x17B80, symBinAddr: 0x10001AD38, symSize: 0x60 }
  - { offsetInCU: 0x40B44, offset: 0x40B44, size: 0x8, addend: 0x0, symName: __ZNSt3__113basic_filebufIcNS_11char_traitsIcEEE4openERKNS_12basic_stringIcS2_NS_9allocatorIcEEEEj, symObjAddr: 0x17BE0, symBinAddr: 0x10001AD98, symSize: 0x44 }
  - { offsetInCU: 0x40B88, offset: 0x40B88, size: 0x8, addend: 0x0, symName: __ZNKSt3__112basic_stringIcNS_11char_traitsIcEENS_9allocatorIcEEE5c_strB8ue170006Ev, symObjAddr: 0x17C24, symBinAddr: 0x10001ADDC, symSize: 0x24 }
  - { offsetInCU: 0x40BAE, offset: 0x40BAE, size: 0x8, addend: 0x0, symName: __ZNSt3__13mapIiNS_6vectorINS_12basic_stringIcNS_11char_traitsIcEENS_9allocatorIcEEEENS5_IS7_EEEENS_4lessIiEENS5_INS_4pairIKiS9_EEEEEC2B8ue170006Ev, symObjAddr: 0x17C48, symBinAddr: 0x10001AE00, symSize: 0x40 }
  - { offsetInCU: 0x40BD8, offset: 0x40BD8, size: 0x8, addend: 0x0, symName: __ZNSt3__119__map_value_compareIiNS_12__value_typeIiNS_6vectorINS_12basic_stringIcNS_11char_traitsIcEENS_9allocatorIcEEEENS6_IS8_EEEEEENS_4lessIiEELb1EEC1B8ue170006ESD_, symObjAddr: 0x17C88, symBinAddr: 0x10001AE40, symSize: 0x2C }
  - { offsetInCU: 0x40C11, offset: 0x40C11, size: 0x8, addend: 0x0, symName: __ZNSt3__16__treeINS_12__value_typeIiNS_6vectorINS_12basic_stringIcNS_11char_traitsIcEENS_9allocatorIcEEEENS6_IS8_EEEEEENS_19__map_value_compareIiSB_NS_4lessIiEELb1EEENS6_ISB_EEEC1ERKSF_, symObjAddr: 0x17CB4, symBinAddr: 0x10001AE6C, symSize: 0x34 }
  - { offsetInCU: 0x40C4C, offset: 0x40C4C, size: 0x8, addend: 0x0, symName: __ZNSt3__119__map_value_compareIiNS_12__value_typeIiNS_6vectorINS_12basic_stringIcNS_11char_traitsIcEENS_9allocatorIcEEEENS6_IS8_EEEEEENS_4lessIiEELb1EEC2B8ue170006ESD_, symObjAddr: 0x17CE8, symBinAddr: 0x10001AEA0, symSize: 0x14 }
  - { offsetInCU: 0x40C85, offset: 0x40C85, size: 0x8, addend: 0x0, symName: __ZNSt3__16__treeINS_12__value_typeIiNS_6vectorINS_12basic_stringIcNS_11char_traitsIcEENS_9allocatorIcEEEENS6_IS8_EEEEEENS_19__map_value_compareIiSB_NS_4lessIiEELb1EEENS6_ISB_EEEC2ERKSF_, symObjAddr: 0x17CFC, symBinAddr: 0x10001AEB4, symSize: 0x7C }
  - { offsetInCU: 0x40CC0, offset: 0x40CC0, size: 0x8, addend: 0x0, symName: __ZNSt3__117__compressed_pairINS_15__tree_end_nodeIPNS_16__tree_node_baseIPvEEEENS_9allocatorINS_11__tree_nodeINS_12__value_typeIiNS_6vectorINS_12basic_stringIcNS_11char_traitsIcEENS7_IcEEEENS7_ISF_EEEEEES3_EEEEEC1B8ue170006ILb1EvEEv, symObjAddr: 0x17D78, symBinAddr: 0x10001AF30, symSize: 0x2C }
  - { offsetInCU: 0x40CF5, offset: 0x40CF5, size: 0x8, addend: 0x0, symName: __ZNSt3__117__compressed_pairImNS_19__map_value_compareIiNS_12__value_typeIiNS_6vectorINS_12basic_stringIcNS_11char_traitsIcEENS_9allocatorIcEEEENS7_IS9_EEEEEENS_4lessIiEELb1EEEEC1B8ue170006IiRKSF_EEOT_OT0_, symObjAddr: 0x17DA4, symBinAddr: 0x10001AF5C, symSize: 0x3C }
  - { offsetInCU: 0x40D4D, offset: 0x40D4D, size: 0x8, addend: 0x0, symName: __ZNSt3__16__treeINS_12__value_typeIiNS_6vectorINS_12basic_stringIcNS_11char_traitsIcEENS_9allocatorIcEEEENS6_IS8_EEEEEENS_19__map_value_compareIiSB_NS_4lessIiEELb1EEENS6_ISB_EEE10__end_nodeB8ue170006Ev, symObjAddr: 0x17DE0, symBinAddr: 0x10001AF98, symSize: 0x2C }
  - { offsetInCU: 0x40D73, offset: 0x40D73, size: 0x8, addend: 0x0, symName: __ZNSt3__16__treeINS_12__value_typeIiNS_6vectorINS_12basic_stringIcNS_11char_traitsIcEENS_9allocatorIcEEEENS6_IS8_EEEEEENS_19__map_value_compareIiSB_NS_4lessIiEELb1EEENS6_ISB_EEE12__begin_nodeB8ue170006Ev, symObjAddr: 0x17E0C, symBinAddr: 0x10001AFC4, symSize: 0x14 }
  - { offsetInCU: 0x40D99, offset: 0x40D99, size: 0x8, addend: 0x0, symName: __ZNSt3__117__compressed_pairINS_15__tree_end_nodeIPNS_16__tree_node_baseIPvEEEENS_9allocatorINS_11__tree_nodeINS_12__value_typeIiNS_6vectorINS_12basic_stringIcNS_11char_traitsIcEENS7_IcEEEENS7_ISF_EEEEEES3_EEEEEC2B8ue170006ILb1EvEEv, symObjAddr: 0x17E20, symBinAddr: 0x10001AFD8, symSize: 0x34 }
  - { offsetInCU: 0x40DCE, offset: 0x40DCE, size: 0x8, addend: 0x0, symName: __ZNSt3__122__compressed_pair_elemINS_15__tree_end_nodeIPNS_16__tree_node_baseIPvEEEELi0ELb0EEC2B8ue170006ENS_16__value_init_tagE, symObjAddr: 0x17E54, symBinAddr: 0x10001B00C, symSize: 0x2C }
  - { offsetInCU: 0x40E03, offset: 0x40E03, size: 0x8, addend: 0x0, symName: __ZNSt3__122__compressed_pair_elemINS_9allocatorINS_11__tree_nodeINS_12__value_typeIiNS_6vectorINS_12basic_stringIcNS_11char_traitsIcEENS1_IcEEEENS1_IS9_EEEEEEPvEEEELi1ELb1EEC2B8ue170006ENS_16__value_init_tagE, symObjAddr: 0x17E80, symBinAddr: 0x10001B038, symSize: 0x2C }
  - { offsetInCU: 0x40E38, offset: 0x40E38, size: 0x8, addend: 0x0, symName: __ZNSt3__115__tree_end_nodeIPNS_16__tree_node_baseIPvEEEC1B8ue170006Ev, symObjAddr: 0x17EAC, symBinAddr: 0x10001B064, symSize: 0x2C }
  - { offsetInCU: 0x40E62, offset: 0x40E62, size: 0x8, addend: 0x0, symName: __ZNSt3__115__tree_end_nodeIPNS_16__tree_node_baseIPvEEEC2B8ue170006Ev, symObjAddr: 0x17ED8, symBinAddr: 0x10001B090, symSize: 0x18 }
  - { offsetInCU: 0x40E8C, offset: 0x40E8C, size: 0x8, addend: 0x0, symName: __ZNSt3__19allocatorINS_11__tree_nodeINS_12__value_typeIiNS_6vectorINS_12basic_stringIcNS_11char_traitsIcEENS0_IcEEEENS0_IS8_EEEEEEPvEEEC2B8ue170006Ev, symObjAddr: 0x17EF0, symBinAddr: 0x10001B0A8, symSize: 0x2C }
  - { offsetInCU: 0x40EB6, offset: 0x40EB6, size: 0x8, addend: 0x0, symName: __ZNSt3__116__non_trivial_ifILb1ENS_9allocatorINS_11__tree_nodeINS_12__value_typeIiNS_6vectorINS_12basic_stringIcNS_11char_traitsIcEENS1_IcEEEENS1_IS9_EEEEEEPvEEEEEC2B8ue170006Ev, symObjAddr: 0x17F1C, symBinAddr: 0x10001B0D4, symSize: 0x14 }
  - { offsetInCU: 0x40EE0, offset: 0x40EE0, size: 0x8, addend: 0x0, symName: __ZNSt3__117__compressed_pairImNS_19__map_value_compareIiNS_12__value_typeIiNS_6vectorINS_12basic_stringIcNS_11char_traitsIcEENS_9allocatorIcEEEENS7_IS9_EEEEEENS_4lessIiEELb1EEEEC2B8ue170006IiRKSF_EEOT_OT0_, symObjAddr: 0x17F30, symBinAddr: 0x10001B0E8, symSize: 0x44 }
  - { offsetInCU: 0x40F38, offset: 0x40F38, size: 0x8, addend: 0x0, symName: __ZNSt3__122__compressed_pair_elemImLi0ELb0EEC2B8ue170006IivEEOT_, symObjAddr: 0x17F74, symBinAddr: 0x10001B12C, symSize: 0x24 }
  - { offsetInCU: 0x40F7A, offset: 0x40F7A, size: 0x8, addend: 0x0, symName: __ZNSt3__122__compressed_pair_elemINS_19__map_value_compareIiNS_12__value_typeIiNS_6vectorINS_12basic_stringIcNS_11char_traitsIcEENS_9allocatorIcEEEENS7_IS9_EEEEEENS_4lessIiEELb1EEELi1ELb1EEC2B8ue170006IRKSF_vEEOT_, symObjAddr: 0x17F98, symBinAddr: 0x10001B150, symSize: 0x18 }
  - { offsetInCU: 0x40FBC, offset: 0x40FBC, size: 0x8, addend: 0x0, symName: __ZNSt3__114pointer_traitsIPNS_15__tree_end_nodeIPNS_16__tree_node_baseIPvEEEEE10pointer_toB8ue170006ERS6_, symObjAddr: 0x17FB0, symBinAddr: 0x10001B168, symSize: 0x14 }
  - { offsetInCU: 0x40FDF, offset: 0x40FDF, size: 0x8, addend: 0x0, symName: __ZNSt3__117__compressed_pairINS_15__tree_end_nodeIPNS_16__tree_node_baseIPvEEEENS_9allocatorINS_11__tree_nodeINS_12__value_typeIiNS_6vectorINS_12basic_stringIcNS_11char_traitsIcEENS7_IcEEEENS7_ISF_EEEEEES3_EEEEE5firstB8ue170006Ev, symObjAddr: 0x17FC4, symBinAddr: 0x10001B17C, symSize: 0x24 }
  - { offsetInCU: 0x41005, offset: 0x41005, size: 0x8, addend: 0x0, symName: __ZNSt3__122__compressed_pair_elemINS_15__tree_end_nodeIPNS_16__tree_node_baseIPvEEEELi0ELb0EE5__getB8ue170006Ev, symObjAddr: 0x17FE8, symBinAddr: 0x10001B1A0, symSize: 0x14 }
  - { offsetInCU: 0x4102B, offset: 0x4102B, size: 0x8, addend: 0x0, symName: __ZNSt3__13mapIiNS_6vectorINS_12basic_stringIcNS_11char_traitsIcEENS_9allocatorIcEEEENS5_IS7_EEEENS_4lessIiEENS5_INS_4pairIKiS9_EEEEED2B8ue170006Ev, symObjAddr: 0x17FFC, symBinAddr: 0x10001B1B4, symSize: 0x2C }
  - { offsetInCU: 0x41055, offset: 0x41055, size: 0x8, addend: 0x0, symName: __ZNSt3__16__treeINS_12__value_typeIiNS_6vectorINS_12basic_stringIcNS_11char_traitsIcEENS_9allocatorIcEEEENS6_IS8_EEEEEENS_19__map_value_compareIiSB_NS_4lessIiEELb1EEENS6_ISB_EEED1Ev, symObjAddr: 0x18028, symBinAddr: 0x10001B1E0, symSize: 0x2C }
  - { offsetInCU: 0x41081, offset: 0x41081, size: 0x8, addend: 0x0, symName: __ZNSt3__16__treeINS_12__value_typeIiNS_6vectorINS_12basic_stringIcNS_11char_traitsIcEENS_9allocatorIcEEEENS6_IS8_EEEEEENS_19__map_value_compareIiSB_NS_4lessIiEELb1EEENS6_ISB_EEED2Ev, symObjAddr: 0x18054, symBinAddr: 0x10001B20C, symSize: 0x38 }
  - { offsetInCU: 0x410AD, offset: 0x410AD, size: 0x8, addend: 0x0, symName: __ZNSt3__16__treeINS_12__value_typeIiNS_6vectorINS_12basic_stringIcNS_11char_traitsIcEENS_9allocatorIcEEEENS6_IS8_EEEEEENS_19__map_value_compareIiSB_NS_4lessIiEELb1EEENS6_ISB_EEE7destroyEPNS_11__tree_nodeISB_PvEE, symObjAddr: 0x1808C, symBinAddr: 0x10001B244, symSize: 0xAC }
  - { offsetInCU: 0x410F9, offset: 0x410F9, size: 0x8, addend: 0x0, symName: __ZNKSt3__16__treeINS_12__value_typeIiNS_6vectorINS_12basic_stringIcNS_11char_traitsIcEENS_9allocatorIcEEEENS6_IS8_EEEEEENS_19__map_value_compareIiSB_NS_4lessIiEELb1EEENS6_ISB_EEE6__rootB8ue170006Ev, symObjAddr: 0x18138, symBinAddr: 0x10001B2F0, symSize: 0x28 }
  - { offsetInCU: 0x4111F, offset: 0x4111F, size: 0x8, addend: 0x0, symName: __ZNSt3__16__treeINS_12__value_typeIiNS_6vectorINS_12basic_stringIcNS_11char_traitsIcEENS_9allocatorIcEEEENS6_IS8_EEEEEENS_19__map_value_compareIiSB_NS_4lessIiEELb1EEENS6_ISB_EEE12__node_allocB8ue170006Ev, symObjAddr: 0x18160, symBinAddr: 0x10001B318, symSize: 0x28 }
  - { offsetInCU: 0x41145, offset: 0x41145, size: 0x8, addend: 0x0, symName: __ZNSt3__116allocator_traitsINS_9allocatorINS_11__tree_nodeINS_12__value_typeIiNS_6vectorINS_12basic_stringIcNS_11char_traitsIcEENS1_IcEEEENS1_IS9_EEEEEEPvEEEEE7destroyB8ue170006INS_4pairIKiSB_EEvvEEvRSF_PT_, symObjAddr: 0x18188, symBinAddr: 0x10001B340, symSize: 0x28 }
  - { offsetInCU: 0x41180, offset: 0x41180, size: 0x8, addend: 0x0, symName: __ZNSt3__122__tree_key_value_typesINS_12__value_typeIiNS_6vectorINS_12basic_stringIcNS_11char_traitsIcEENS_9allocatorIcEEEENS6_IS8_EEEEEEE9__get_ptrB8ue170006ERSB_, symObjAddr: 0x181B0, symBinAddr: 0x10001B368, symSize: 0x24 }
  - { offsetInCU: 0x411A4, offset: 0x411A4, size: 0x8, addend: 0x0, symName: __ZNSt3__116allocator_traitsINS_9allocatorINS_11__tree_nodeINS_12__value_typeIiNS_6vectorINS_12basic_stringIcNS_11char_traitsIcEENS1_IcEEEENS1_IS9_EEEEEEPvEEEEE10deallocateB8ue170006ERSF_PSE_m, symObjAddr: 0x181D4, symBinAddr: 0x10001B38C, symSize: 0x34 }
  - { offsetInCU: 0x411E6, offset: 0x411E6, size: 0x8, addend: 0x0, symName: __ZNSt3__117__compressed_pairINS_15__tree_end_nodeIPNS_16__tree_node_baseIPvEEEENS_9allocatorINS_11__tree_nodeINS_12__value_typeIiNS_6vectorINS_12basic_stringIcNS_11char_traitsIcEENS7_IcEEEENS7_ISF_EEEEEES3_EEEEE6secondB8ue170006Ev, symObjAddr: 0x18208, symBinAddr: 0x10001B3C0, symSize: 0x24 }
  - { offsetInCU: 0x4120C, offset: 0x4120C, size: 0x8, addend: 0x0, symName: __ZNSt3__122__compressed_pair_elemINS_9allocatorINS_11__tree_nodeINS_12__value_typeIiNS_6vectorINS_12basic_stringIcNS_11char_traitsIcEENS1_IcEEEENS1_IS9_EEEEEEPvEEEELi1ELb1EE5__getB8ue170006Ev, symObjAddr: 0x1822C, symBinAddr: 0x10001B3E4, symSize: 0x14 }
  - { offsetInCU: 0x41232, offset: 0x41232, size: 0x8, addend: 0x0, symName: __ZNSt3__14pairIKiNS_6vectorINS_12basic_stringIcNS_11char_traitsIcEENS_9allocatorIcEEEENS6_IS8_EEEEED1Ev, symObjAddr: 0x18288, symBinAddr: 0x10001B440, symSize: 0x2C }
  - { offsetInCU: 0x4125E, offset: 0x4125E, size: 0x8, addend: 0x0, symName: __ZNSt3__14pairIKiNS_6vectorINS_12basic_stringIcNS_11char_traitsIcEENS_9allocatorIcEEEENS6_IS8_EEEEED2Ev, symObjAddr: 0x182B4, symBinAddr: 0x10001B46C, symSize: 0x30 }
  - { offsetInCU: 0x4128A, offset: 0x4128A, size: 0x8, addend: 0x0, symName: __ZNSt3__112__value_typeIiNS_6vectorINS_12basic_stringIcNS_11char_traitsIcEENS_9allocatorIcEEEENS5_IS7_EEEEE11__get_valueB8ue170006Ev, symObjAddr: 0x182E4, symBinAddr: 0x10001B49C, symSize: 0x24 }
  - { offsetInCU: 0x412B0, offset: 0x412B0, size: 0x8, addend: 0x0, symName: __ZNSt3__19allocatorINS_11__tree_nodeINS_12__value_typeIiNS_6vectorINS_12basic_stringIcNS_11char_traitsIcEENS0_IcEEEENS0_IS8_EEEEEEPvEEE10deallocateB8ue170006EPSD_m, symObjAddr: 0x18340, symBinAddr: 0x10001B4F8, symSize: 0x40 }
  - { offsetInCU: 0x412F2, offset: 0x412F2, size: 0x8, addend: 0x0, symName: __ZNKSt3__16__treeINS_12__value_typeIiNS_6vectorINS_12basic_stringIcNS_11char_traitsIcEENS_9allocatorIcEEEENS6_IS8_EEEEEENS_19__map_value_compareIiSB_NS_4lessIiEELb1EEENS6_ISB_EEE10__end_nodeB8ue170006Ev, symObjAddr: 0x18380, symBinAddr: 0x10001B538, symSize: 0x2C }
  - { offsetInCU: 0x41318, offset: 0x41318, size: 0x8, addend: 0x0, symName: __ZNKSt3__117__compressed_pairINS_15__tree_end_nodeIPNS_16__tree_node_baseIPvEEEENS_9allocatorINS_11__tree_nodeINS_12__value_typeIiNS_6vectorINS_12basic_stringIcNS_11char_traitsIcEENS7_IcEEEENS7_ISF_EEEEEES3_EEEEE5firstB8ue170006Ev, symObjAddr: 0x183AC, symBinAddr: 0x10001B564, symSize: 0x24 }
  - { offsetInCU: 0x4133E, offset: 0x4133E, size: 0x8, addend: 0x0, symName: __ZNKSt3__122__compressed_pair_elemINS_15__tree_end_nodeIPNS_16__tree_node_baseIPvEEEELi0ELb0EE5__getB8ue170006Ev, symObjAddr: 0x183D0, symBinAddr: 0x10001B588, symSize: 0x14 }
  - { offsetInCU: 0x41364, offset: 0x41364, size: 0x8, addend: 0x0, symName: __ZNSt3__114basic_iostreamIcNS_11char_traitsIcEEEC2B8ue170006EPNS_15basic_streambufIcS2_EE, symObjAddr: 0x183E4, symBinAddr: 0x10001B59C, symSize: 0xAC }
  - { offsetInCU: 0x413AA, offset: 0x413AA, size: 0x8, addend: 0x0, symName: __ZNSt3__115basic_stringbufIcNS_11char_traitsIcEENS_9allocatorIcEEEC1B8ue170006ERKNS_12basic_stringIcS2_S4_EEj, symObjAddr: 0x18490, symBinAddr: 0x10001B648, symSize: 0x3C }
  - { offsetInCU: 0x413F2, offset: 0x413F2, size: 0x8, addend: 0x0, symName: __ZNSt3__113basic_ostreamIcNS_11char_traitsIcEEEC2B8ue170006Ev, symObjAddr: 0x184CC, symBinAddr: 0x10001B684, symSize: 0x34 }
  - { offsetInCU: 0x41429, offset: 0x41429, size: 0x8, addend: 0x0, symName: __ZNSt3__115basic_stringbufIcNS_11char_traitsIcEENS_9allocatorIcEEEC2B8ue170006ERKNS_12basic_stringIcS2_S4_EEj, symObjAddr: 0x18500, symBinAddr: 0x10001B6B8, symSize: 0xB4 }
  - { offsetInCU: 0x41471, offset: 0x41471, size: 0x8, addend: 0x0, symName: __ZNSt3__112basic_stringIcNS_11char_traitsIcEENS_9allocatorIcEEEC1B8ue170006ERKS4_, symObjAddr: 0x185B4, symBinAddr: 0x10001B76C, symSize: 0x34 }
  - { offsetInCU: 0x414AA, offset: 0x414AA, size: 0x8, addend: 0x0, symName: __ZNSt3__112basic_stringIcNS_11char_traitsIcEENS_9allocatorIcEEEC2B8ue170006ERKS4_, symObjAddr: 0x185E8, symBinAddr: 0x10001B7A0, symSize: 0x48 }
  - { offsetInCU: 0x41506, offset: 0x41506, size: 0x8, addend: 0x0, symName: __ZNKSt3__113basic_istreamIcNS_11char_traitsIcEEE6sentrycvbB8ue170006Ev, symObjAddr: 0x18630, symBinAddr: 0x10001B7E8, symSize: 0x1C }
  - { offsetInCU: 0x4152C, offset: 0x4152C, size: 0x8, addend: 0x0, symName: __ZNSt3__112basic_stringIcNS_11char_traitsIcEENS_9allocatorIcEEE5clearB8ue170006Ev, symObjAddr: 0x1864C, symBinAddr: 0x10001B804, symSize: 0x78 }
  - { offsetInCU: 0x41554, offset: 0x41554, size: 0x8, addend: 0x0, symName: __ZNSt3__115basic_streambufIcNS_11char_traitsIcEEE6sbumpcB8ue170006Ev, symObjAddr: 0x186C4, symBinAddr: 0x10001B87C, symSize: 0x78 }
  - { offsetInCU: 0x4157A, offset: 0x4157A, size: 0x8, addend: 0x0, symName: __ZNSt3__111char_traitsIcE12to_char_typeB8ue170006Ei, symObjAddr: 0x1873C, symBinAddr: 0x10001B8F4, symSize: 0x18 }
  - { offsetInCU: 0x4159D, offset: 0x4159D, size: 0x8, addend: 0x0, symName: __ZNSt3__111char_traitsIcE2eqEcc, symObjAddr: 0x18754, symBinAddr: 0x10001B90C, symSize: 0x28 }
  - { offsetInCU: 0x415CE, offset: 0x415CE, size: 0x8, addend: 0x0, symName: __ZNSt3__18ios_base18__setstate_nothrowB8ue170006Ej, symObjAddr: 0x1877C, symBinAddr: 0x10001B934, symSize: 0x64 }
  - { offsetInCU: 0x41603, offset: 0x41603, size: 0x8, addend: 0x0, symName: __ZNKSt3__19basic_iosIcNS_11char_traitsIcEEE10exceptionsB8ue170006Ev, symObjAddr: 0x187E0, symBinAddr: 0x10001B998, symSize: 0x24 }
  - { offsetInCU: 0x41629, offset: 0x41629, size: 0x8, addend: 0x0, symName: __ZNSt3__111char_traitsIcE11to_int_typeB8ue170006Ec, symObjAddr: 0x18804, symBinAddr: 0x10001B9BC, symSize: 0x14 }
  - { offsetInCU: 0x4164D, offset: 0x4164D, size: 0x8, addend: 0x0, symName: __ZNKSt3__18ios_base10exceptionsB8ue170006Ev, symObjAddr: 0x18818, symBinAddr: 0x10001B9D0, symSize: 0x18 }
  - { offsetInCU: 0x4168D, offset: 0x4168D, size: 0x8, addend: 0x0, symName: __ZNSt3__16__treeINS_12__value_typeIiNS_6vectorINS_12basic_stringIcNS_11char_traitsIcEENS_9allocatorIcEEEENS6_IS8_EEEEEENS_19__map_value_compareIiSB_NS_4lessIiEELb1EEENS6_ISB_EEE25__emplace_unique_key_argsIiJRKNS_21piecewise_construct_tENS_5tupleIJRKiEEENSM_IJEEEEEENS_4pairINS_15__tree_iteratorISB_PNS_11__tree_nodeISB_PvEElEEbEERKT_DpOT0_, symObjAddr: 0x18830, symBinAddr: 0x10001B9E8, symSize: 0x100 }
  - { offsetInCU: 0x41763, offset: 0x41763, size: 0x8, addend: 0x0, symName: __ZNKSt3__115__tree_iteratorINS_12__value_typeIiNS_6vectorINS_12basic_stringIcNS_11char_traitsIcEENS_9allocatorIcEEEENS6_IS8_EEEEEEPNS_11__tree_nodeISB_PvEElEptB8ue170006Ev, symObjAddr: 0x18960, symBinAddr: 0x10001BB18, symSize: 0x2C }
  - { offsetInCU: 0x41789, offset: 0x41789, size: 0x8, addend: 0x0, symName: __ZNSt3__16__treeINS_12__value_typeIiNS_6vectorINS_12basic_stringIcNS_11char_traitsIcEENS_9allocatorIcEEEENS6_IS8_EEEEEENS_19__map_value_compareIiSB_NS_4lessIiEELb1EEENS6_ISB_EEE12__find_equalIiEERPNS_16__tree_node_baseIPvEERPNS_15__tree_end_nodeISM_EERKT_, symObjAddr: 0x1898C, symBinAddr: 0x10001BB44, symSize: 0x184 }
  - { offsetInCU: 0x417F6, offset: 0x417F6, size: 0x8, addend: 0x0, symName: __ZNSt3__16__treeINS_12__value_typeIiNS_6vectorINS_12basic_stringIcNS_11char_traitsIcEENS_9allocatorIcEEEENS6_IS8_EEEEEENS_19__map_value_compareIiSB_NS_4lessIiEELb1EEENS6_ISB_EEE16__construct_nodeIJRKNS_21piecewise_construct_tENS_5tupleIJRKiEEENSM_IJEEEEEENS_10unique_ptrINS_11__tree_nodeISB_PvEENS_22__tree_node_destructorINS6_ISU_EEEEEEDpOT_, symObjAddr: 0x18B10, symBinAddr: 0x10001BCC8, symSize: 0x120 }
  - { offsetInCU: 0x4187F, offset: 0x4187F, size: 0x8, addend: 0x0, symName: __ZNSt3__16__treeINS_12__value_typeIiNS_6vectorINS_12basic_stringIcNS_11char_traitsIcEENS_9allocatorIcEEEENS6_IS8_EEEEEENS_19__map_value_compareIiSB_NS_4lessIiEELb1EEENS6_ISB_EEE16__insert_node_atEPNS_15__tree_end_nodeIPNS_16__tree_node_baseIPvEEEERSM_SM_, symObjAddr: 0x18C30, symBinAddr: 0x10001BDE8, symSize: 0xCC }
  - { offsetInCU: 0x418D4, offset: 0x418D4, size: 0x8, addend: 0x0, symName: __ZNKSt3__110unique_ptrINS_11__tree_nodeINS_12__value_typeIiNS_6vectorINS_12basic_stringIcNS_11char_traitsIcEENS_9allocatorIcEEEENS7_IS9_EEEEEEPvEENS_22__tree_node_destructorINS7_ISE_EEEEE3getB8ue170006Ev, symObjAddr: 0x18CFC, symBinAddr: 0x10001BEB4, symSize: 0x28 }
  - { offsetInCU: 0x418FA, offset: 0x418FA, size: 0x8, addend: 0x0, symName: __ZNSt3__110unique_ptrINS_11__tree_nodeINS_12__value_typeIiNS_6vectorINS_12basic_stringIcNS_11char_traitsIcEENS_9allocatorIcEEEENS7_IS9_EEEEEEPvEENS_22__tree_node_destructorINS7_ISE_EEEEE7releaseB8ue170006Ev, symObjAddr: 0x18D24, symBinAddr: 0x10001BEDC, symSize: 0x44 }
  - { offsetInCU: 0x4192F, offset: 0x4192F, size: 0x8, addend: 0x0, symName: __ZNSt3__110unique_ptrINS_11__tree_nodeINS_12__value_typeIiNS_6vectorINS_12basic_stringIcNS_11char_traitsIcEENS_9allocatorIcEEEENS7_IS9_EEEEEEPvEENS_22__tree_node_destructorINS7_ISE_EEEEED1B8ue170006Ev, symObjAddr: 0x18D68, symBinAddr: 0x10001BF20, symSize: 0x2C }
  - { offsetInCU: 0x41959, offset: 0x41959, size: 0x8, addend: 0x0, symName: __ZNSt3__115__tree_iteratorINS_12__value_typeIiNS_6vectorINS_12basic_stringIcNS_11char_traitsIcEENS_9allocatorIcEEEENS6_IS8_EEEEEEPNS_11__tree_nodeISB_PvEElEC1B8ue170006ESF_, symObjAddr: 0x18D94, symBinAddr: 0x10001BF4C, symSize: 0x34 }
  - { offsetInCU: 0x41998, offset: 0x41998, size: 0x8, addend: 0x0, symName: __ZNSt3__14pairINS_15__tree_iteratorINS_12__value_typeIiNS_6vectorINS_12basic_stringIcNS_11char_traitsIcEENS_9allocatorIcEEEENS7_IS9_EEEEEEPNS_11__tree_nodeISC_PvEElEEbEC1B8ue170006ISH_RbLSE_0EEEOT_OT0_, symObjAddr: 0x18DC8, symBinAddr: 0x10001BF80, symSize: 0x3C }
  - { offsetInCU: 0x419F6, offset: 0x419F6, size: 0x8, addend: 0x0, symName: __ZNKSt3__16__treeINS_12__value_typeIiNS_6vectorINS_12basic_stringIcNS_11char_traitsIcEENS_9allocatorIcEEEENS6_IS8_EEEEEENS_19__map_value_compareIiSB_NS_4lessIiEELb1EEENS6_ISB_EEE10__root_ptrB8ue170006Ev, symObjAddr: 0x18E04, symBinAddr: 0x10001BFBC, symSize: 0x24 }
  - { offsetInCU: 0x41A1C, offset: 0x41A1C, size: 0x8, addend: 0x0, symName: __ZNSt3__16__treeINS_12__value_typeIiNS_6vectorINS_12basic_stringIcNS_11char_traitsIcEENS_9allocatorIcEEEENS6_IS8_EEEEEENS_19__map_value_compareIiSB_NS_4lessIiEELb1EEENS6_ISB_EEE10value_compB8ue170006Ev, symObjAddr: 0x18E28, symBinAddr: 0x10001BFE0, symSize: 0x28 }
  - { offsetInCU: 0x41A42, offset: 0x41A42, size: 0x8, addend: 0x0, symName: __ZNKSt3__119__map_value_compareIiNS_12__value_typeIiNS_6vectorINS_12basic_stringIcNS_11char_traitsIcEENS_9allocatorIcEEEENS6_IS8_EEEEEENS_4lessIiEELb1EEclB8ue170006ERKiRKSB_, symObjAddr: 0x18E50, symBinAddr: 0x10001C008, symSize: 0x50 }
  - { offsetInCU: 0x41A86, offset: 0x41A86, size: 0x8, addend: 0x0, symName: __ZNKSt3__119__map_value_compareIiNS_12__value_typeIiNS_6vectorINS_12basic_stringIcNS_11char_traitsIcEENS_9allocatorIcEEEENS6_IS8_EEEEEENS_4lessIiEELb1EEclB8ue170006ERKSB_RKi, symObjAddr: 0x18EA0, symBinAddr: 0x10001C058, symSize: 0x48 }
  - { offsetInCU: 0x41ACA, offset: 0x41ACA, size: 0x8, addend: 0x0, symName: __ZNSt3__117__compressed_pairImNS_19__map_value_compareIiNS_12__value_typeIiNS_6vectorINS_12basic_stringIcNS_11char_traitsIcEENS_9allocatorIcEEEENS7_IS9_EEEEEENS_4lessIiEELb1EEEE6secondB8ue170006Ev, symObjAddr: 0x18EE8, symBinAddr: 0x10001C0A0, symSize: 0x24 }
  - { offsetInCU: 0x41AF0, offset: 0x41AF0, size: 0x8, addend: 0x0, symName: __ZNSt3__122__compressed_pair_elemINS_19__map_value_compareIiNS_12__value_typeIiNS_6vectorINS_12basic_stringIcNS_11char_traitsIcEENS_9allocatorIcEEEENS7_IS9_EEEEEENS_4lessIiEELb1EEELi1ELb1EE5__getB8ue170006Ev, symObjAddr: 0x18F0C, symBinAddr: 0x10001C0C4, symSize: 0x14 }
  - { offsetInCU: 0x41B16, offset: 0x41B16, size: 0x8, addend: 0x0, symName: __ZNKSt3__14lessIiEclB8ue170006ERKiS3_, symObjAddr: 0x18F20, symBinAddr: 0x10001C0D8, symSize: 0x34 }
  - { offsetInCU: 0x41B5A, offset: 0x41B5A, size: 0x8, addend: 0x0, symName: __ZNKSt3__112__value_typeIiNS_6vectorINS_12basic_stringIcNS_11char_traitsIcEENS_9allocatorIcEEEENS5_IS7_EEEEE11__get_valueB8ue170006Ev, symObjAddr: 0x18F54, symBinAddr: 0x10001C10C, symSize: 0x24 }
  - { offsetInCU: 0x41B80, offset: 0x41B80, size: 0x8, addend: 0x0, symName: __ZNSt3__116allocator_traitsINS_9allocatorINS_11__tree_nodeINS_12__value_typeIiNS_6vectorINS_12basic_stringIcNS_11char_traitsIcEENS1_IcEEEENS1_IS9_EEEEEEPvEEEEE8allocateB8ue170006ERSF_m, symObjAddr: 0x18FB0, symBinAddr: 0x10001C168, symSize: 0x2C }
  - { offsetInCU: 0x41BB3, offset: 0x41BB3, size: 0x8, addend: 0x0, symName: __ZNSt3__122__tree_node_destructorINS_9allocatorINS_11__tree_nodeINS_12__value_typeIiNS_6vectorINS_12basic_stringIcNS_11char_traitsIcEENS1_IcEEEENS1_IS9_EEEEEEPvEEEEEC1B8ue170006ERSF_b, symObjAddr: 0x18FDC, symBinAddr: 0x10001C194, symSize: 0x48 }
  - { offsetInCU: 0x41C01, offset: 0x41C01, size: 0x8, addend: 0x0, symName: __ZNSt3__110unique_ptrINS_11__tree_nodeINS_12__value_typeIiNS_6vectorINS_12basic_stringIcNS_11char_traitsIcEENS_9allocatorIcEEEENS7_IS9_EEEEEEPvEENS_22__tree_node_destructorINS7_ISE_EEEEEC1B8ue170006ILb1EvEEPSE_NS_16__dependent_typeINS_27__unique_ptr_deleter_sfinaeISH_EEXT_EE20__good_rval_ref_typeE, symObjAddr: 0x19024, symBinAddr: 0x10001C1DC, symSize: 0x3C }
  - { offsetInCU: 0x41C52, offset: 0x41C52, size: 0x8, addend: 0x0, symName: __ZNSt3__116allocator_traitsINS_9allocatorINS_11__tree_nodeINS_12__value_typeIiNS_6vectorINS_12basic_stringIcNS_11char_traitsIcEENS1_IcEEEENS1_IS9_EEEEEEPvEEEEE9constructB8ue170006INS_4pairIKiSB_EEJRKNS_21piecewise_construct_tENS_5tupleIJRSJ_EEENSO_IJEEEEvvEEvRSF_PT_DpOT0_, symObjAddr: 0x19060, symBinAddr: 0x10001C218, symSize: 0x40 }
  - { offsetInCU: 0x41CCF, offset: 0x41CCF, size: 0x8, addend: 0x0, symName: __ZNKSt3__110unique_ptrINS_11__tree_nodeINS_12__value_typeIiNS_6vectorINS_12basic_stringIcNS_11char_traitsIcEENS_9allocatorIcEEEENS7_IS9_EEEEEEPvEENS_22__tree_node_destructorINS7_ISE_EEEEEptB8ue170006Ev, symObjAddr: 0x190A0, symBinAddr: 0x10001C258, symSize: 0x28 }
  - { offsetInCU: 0x41CF5, offset: 0x41CF5, size: 0x8, addend: 0x0, symName: __ZNSt3__110unique_ptrINS_11__tree_nodeINS_12__value_typeIiNS_6vectorINS_12basic_stringIcNS_11char_traitsIcEENS_9allocatorIcEEEENS7_IS9_EEEEEEPvEENS_22__tree_node_destructorINS7_ISE_EEEEE11get_deleterB8ue170006Ev, symObjAddr: 0x190C8, symBinAddr: 0x10001C280, symSize: 0x24 }
  - { offsetInCU: 0x41D1B, offset: 0x41D1B, size: 0x8, addend: 0x0, symName: __ZNSt3__19allocatorINS_11__tree_nodeINS_12__value_typeIiNS_6vectorINS_12basic_stringIcNS_11char_traitsIcEENS0_IcEEEENS0_IS8_EEEEEEPvEEE8allocateB8ue170006Em, symObjAddr: 0x190EC, symBinAddr: 0x10001C2A4, symSize: 0x58 }
  - { offsetInCU: 0x41D5A, offset: 0x41D5A, size: 0x8, addend: 0x0, symName: __ZNSt3__116allocator_traitsINS_9allocatorINS_11__tree_nodeINS_12__value_typeIiNS_6vectorINS_12basic_stringIcNS_11char_traitsIcEENS1_IcEEEENS1_IS9_EEEEEEPvEEEEE8max_sizeB8ue170006ISF_vvEEmRKSF_, symObjAddr: 0x19144, symBinAddr: 0x10001C2FC, symSize: 0x28 }
  - { offsetInCU: 0x41D86, offset: 0x41D86, size: 0x8, addend: 0x0, symName: __ZNSt3__122__tree_node_destructorINS_9allocatorINS_11__tree_nodeINS_12__value_typeIiNS_6vectorINS_12basic_stringIcNS_11char_traitsIcEENS1_IcEEEENS1_IS9_EEEEEEPvEEEEEC2B8ue170006ERSF_b, symObjAddr: 0x1916C, symBinAddr: 0x10001C324, symSize: 0x38 }
  - { offsetInCU: 0x41DCE, offset: 0x41DCE, size: 0x8, addend: 0x0, symName: __ZNSt3__110unique_ptrINS_11__tree_nodeINS_12__value_typeIiNS_6vectorINS_12basic_stringIcNS_11char_traitsIcEENS_9allocatorIcEEEENS7_IS9_EEEEEEPvEENS_22__tree_node_destructorINS7_ISE_EEEEEC2B8ue170006ILb1EvEEPSE_NS_16__dependent_typeINS_27__unique_ptr_deleter_sfinaeISH_EEXT_EE20__good_rval_ref_typeE, symObjAddr: 0x191A4, symBinAddr: 0x10001C35C, symSize: 0x48 }
  - { offsetInCU: 0x41E1F, offset: 0x41E1F, size: 0x8, addend: 0x0, symName: __ZNSt3__117__compressed_pairIPNS_11__tree_nodeINS_12__value_typeIiNS_6vectorINS_12basic_stringIcNS_11char_traitsIcEENS_9allocatorIcEEEENS7_IS9_EEEEEEPvEENS_22__tree_node_destructorINS7_ISE_EEEEEC1B8ue170006IRSF_SI_EEOT_OT0_, symObjAddr: 0x191EC, symBinAddr: 0x10001C3A4, symSize: 0x3C }
  - { offsetInCU: 0x41E77, offset: 0x41E77, size: 0x8, addend: 0x0, symName: __ZNSt3__117__compressed_pairIPNS_11__tree_nodeINS_12__value_typeIiNS_6vectorINS_12basic_stringIcNS_11char_traitsIcEENS_9allocatorIcEEEENS7_IS9_EEEEEEPvEENS_22__tree_node_destructorINS7_ISE_EEEEEC2B8ue170006IRSF_SI_EEOT_OT0_, symObjAddr: 0x19228, symBinAddr: 0x10001C3E0, symSize: 0x48 }
  - { offsetInCU: 0x41ECF, offset: 0x41ECF, size: 0x8, addend: 0x0, symName: __ZNSt3__122__compressed_pair_elemIPNS_11__tree_nodeINS_12__value_typeIiNS_6vectorINS_12basic_stringIcNS_11char_traitsIcEENS_9allocatorIcEEEENS7_IS9_EEEEEEPvEELi0ELb0EEC2B8ue170006IRSF_vEEOT_, symObjAddr: 0x19270, symBinAddr: 0x10001C428, symSize: 0x24 }
  - { offsetInCU: 0x41F11, offset: 0x41F11, size: 0x8, addend: 0x0, symName: __ZNSt3__122__compressed_pair_elemINS_22__tree_node_destructorINS_9allocatorINS_11__tree_nodeINS_12__value_typeIiNS_6vectorINS_12basic_stringIcNS_11char_traitsIcEENS2_IcEEEENS2_ISA_EEEEEEPvEEEEEELi1ELb0EEC2B8ue170006ISH_vEEOT_, symObjAddr: 0x19294, symBinAddr: 0x10001C44C, symSize: 0x24 }
  - { offsetInCU: 0x41F53, offset: 0x41F53, size: 0x8, addend: 0x0, symName: __ZNSt3__14pairIKiNS_6vectorINS_12basic_stringIcNS_11char_traitsIcEENS_9allocatorIcEEEENS6_IS8_EEEEEC1B8ue170006IJRS1_EJEEENS_21piecewise_construct_tENS_5tupleIJDpT_EEENSF_IJDpT0_EEE, symObjAddr: 0x19308, symBinAddr: 0x10001C4C0, symSize: 0x44 }
  - { offsetInCU: 0x41FBA, offset: 0x41FBA, size: 0x8, addend: 0x0, symName: __ZNSt3__14pairIKiNS_6vectorINS_12basic_stringIcNS_11char_traitsIcEENS_9allocatorIcEEEENS6_IS8_EEEEEC1B8ue170006IJRS1_EJEJLm0EEJEEENS_21piecewise_construct_tERNS_5tupleIJDpT_EEERNSF_IJDpT0_EEENS_15__tuple_indicesIJXspT1_EEEENSO_IJXspT2_EEEE, symObjAddr: 0x1934C, symBinAddr: 0x10001C504, symSize: 0x3C }
  - { offsetInCU: 0x4204A, offset: 0x4204A, size: 0x8, addend: 0x0, symName: __ZNSt3__14pairIKiNS_6vectorINS_12basic_stringIcNS_11char_traitsIcEENS_9allocatorIcEEEENS6_IS8_EEEEEC2B8ue170006IJRS1_EJEJLm0EEJEEENS_21piecewise_construct_tERNS_5tupleIJDpT_EEERNSF_IJDpT0_EEENS_15__tuple_indicesIJXspT1_EEEENSO_IJXspT2_EEEE, symObjAddr: 0x19388, symBinAddr: 0x10001C540, symSize: 0x4C }
  - { offsetInCU: 0x420DA, offset: 0x420DA, size: 0x8, addend: 0x0, symName: __ZNSt3__112__tuple_leafILm0ERKiLb0EE3getB8ue170006Ev, symObjAddr: 0x193F8, symBinAddr: 0x10001C5B0, symSize: 0x18 }
  - { offsetInCU: 0x42100, offset: 0x42100, size: 0x8, addend: 0x0, symName: __ZNKSt3__117__compressed_pairIPNS_11__tree_nodeINS_12__value_typeIiNS_6vectorINS_12basic_stringIcNS_11char_traitsIcEENS_9allocatorIcEEEENS7_IS9_EEEEEEPvEENS_22__tree_node_destructorINS7_ISE_EEEEE5firstB8ue170006Ev, symObjAddr: 0x19410, symBinAddr: 0x10001C5C8, symSize: 0x24 }
  - { offsetInCU: 0x42126, offset: 0x42126, size: 0x8, addend: 0x0, symName: __ZNKSt3__122__compressed_pair_elemIPNS_11__tree_nodeINS_12__value_typeIiNS_6vectorINS_12basic_stringIcNS_11char_traitsIcEENS_9allocatorIcEEEENS7_IS9_EEEEEEPvEELi0ELb0EE5__getB8ue170006Ev, symObjAddr: 0x19434, symBinAddr: 0x10001C5EC, symSize: 0x14 }
  - { offsetInCU: 0x4214C, offset: 0x4214C, size: 0x8, addend: 0x0, symName: __ZNSt3__117__compressed_pairIPNS_11__tree_nodeINS_12__value_typeIiNS_6vectorINS_12basic_stringIcNS_11char_traitsIcEENS_9allocatorIcEEEENS7_IS9_EEEEEEPvEENS_22__tree_node_destructorINS7_ISE_EEEEE6secondB8ue170006Ev, symObjAddr: 0x19448, symBinAddr: 0x10001C600, symSize: 0x28 }
  - { offsetInCU: 0x42172, offset: 0x42172, size: 0x8, addend: 0x0, symName: __ZNSt3__122__compressed_pair_elemINS_22__tree_node_destructorINS_9allocatorINS_11__tree_nodeINS_12__value_typeIiNS_6vectorINS_12basic_stringIcNS_11char_traitsIcEENS2_IcEEEENS2_ISA_EEEEEEPvEEEEEELi1ELb0EE5__getB8ue170006Ev, symObjAddr: 0x19470, symBinAddr: 0x10001C628, symSize: 0x14 }
  - { offsetInCU: 0x42198, offset: 0x42198, size: 0x8, addend: 0x0, symName: __ZNSt3__16__treeINS_12__value_typeIiNS_6vectorINS_12basic_stringIcNS_11char_traitsIcEENS_9allocatorIcEEEENS6_IS8_EEEEEENS_19__map_value_compareIiSB_NS_4lessIiEELb1EEENS6_ISB_EEE4sizeB8ue170006Ev, symObjAddr: 0x19700, symBinAddr: 0x10001C8B8, symSize: 0x28 }
  - { offsetInCU: 0x421BE, offset: 0x421BE, size: 0x8, addend: 0x0, symName: __ZNSt3__116__tree_node_baseIPvE12__set_parentB8ue170006EPS2_, symObjAddr: 0x198CC, symBinAddr: 0x10001CA84, symSize: 0x20 }
  - { offsetInCU: 0x421F3, offset: 0x421F3, size: 0x8, addend: 0x0, symName: __ZNSt3__117__compressed_pairImNS_19__map_value_compareIiNS_12__value_typeIiNS_6vectorINS_12basic_stringIcNS_11char_traitsIcEENS_9allocatorIcEEEENS7_IS9_EEEEEENS_4lessIiEELb1EEEE5firstB8ue170006Ev, symObjAddr: 0x198EC, symBinAddr: 0x10001CAA4, symSize: 0x24 }
  - { offsetInCU: 0x42219, offset: 0x42219, size: 0x8, addend: 0x0, symName: __ZNSt3__122__compressed_pair_elemImLi0ELb0EE5__getB8ue170006Ev, symObjAddr: 0x19910, symBinAddr: 0x10001CAC8, symSize: 0x14 }
  - { offsetInCU: 0x4223F, offset: 0x4223F, size: 0x8, addend: 0x0, symName: __ZNSt3__117__compressed_pairIPNS_11__tree_nodeINS_12__value_typeIiNS_6vectorINS_12basic_stringIcNS_11char_traitsIcEENS_9allocatorIcEEEENS7_IS9_EEEEEEPvEENS_22__tree_node_destructorINS7_ISE_EEEEE5firstB8ue170006Ev, symObjAddr: 0x19924, symBinAddr: 0x10001CADC, symSize: 0x24 }
  - { offsetInCU: 0x42265, offset: 0x42265, size: 0x8, addend: 0x0, symName: __ZNSt3__122__compressed_pair_elemIPNS_11__tree_nodeINS_12__value_typeIiNS_6vectorINS_12basic_stringIcNS_11char_traitsIcEENS_9allocatorIcEEEENS7_IS9_EEEEEEPvEELi0ELb0EE5__getB8ue170006Ev, symObjAddr: 0x19948, symBinAddr: 0x10001CB00, symSize: 0x14 }
  - { offsetInCU: 0x4228B, offset: 0x4228B, size: 0x8, addend: 0x0, symName: __ZNSt3__110unique_ptrINS_11__tree_nodeINS_12__value_typeIiNS_6vectorINS_12basic_stringIcNS_11char_traitsIcEENS_9allocatorIcEEEENS7_IS9_EEEEEEPvEENS_22__tree_node_destructorINS7_ISE_EEEEED2B8ue170006Ev, symObjAddr: 0x1995C, symBinAddr: 0x10001CB14, symSize: 0x30 }
  - { offsetInCU: 0x422B5, offset: 0x422B5, size: 0x8, addend: 0x0, symName: __ZNSt3__110unique_ptrINS_11__tree_nodeINS_12__value_typeIiNS_6vectorINS_12basic_stringIcNS_11char_traitsIcEENS_9allocatorIcEEEENS7_IS9_EEEEEEPvEENS_22__tree_node_destructorINS7_ISE_EEEEE5resetB8ue170006EPSE_, symObjAddr: 0x1998C, symBinAddr: 0x10001CB44, symSize: 0x78 }
  - { offsetInCU: 0x422F9, offset: 0x422F9, size: 0x8, addend: 0x0, symName: __ZNSt3__122__tree_node_destructorINS_9allocatorINS_11__tree_nodeINS_12__value_typeIiNS_6vectorINS_12basic_stringIcNS_11char_traitsIcEENS1_IcEEEENS1_IS9_EEEEEEPvEEEEEclB8ue170006EPSE_, symObjAddr: 0x19A04, symBinAddr: 0x10001CBBC, symSize: 0x98 }
  - { offsetInCU: 0x4232E, offset: 0x4232E, size: 0x8, addend: 0x0, symName: __ZNSt3__115__tree_iteratorINS_12__value_typeIiNS_6vectorINS_12basic_stringIcNS_11char_traitsIcEENS_9allocatorIcEEEENS6_IS8_EEEEEEPNS_11__tree_nodeISB_PvEElEC2B8ue170006ESF_, symObjAddr: 0x19A9C, symBinAddr: 0x10001CC54, symSize: 0x20 }
  - { offsetInCU: 0x42367, offset: 0x42367, size: 0x8, addend: 0x0, symName: __ZNSt3__14pairINS_15__tree_iteratorINS_12__value_typeIiNS_6vectorINS_12basic_stringIcNS_11char_traitsIcEENS_9allocatorIcEEEENS7_IS9_EEEEEEPNS_11__tree_nodeISC_PvEElEEbEC2B8ue170006ISH_RbLSE_0EEEOT_OT0_, symObjAddr: 0x19ABC, symBinAddr: 0x10001CC74, symSize: 0x38 }
  - { offsetInCU: 0x423C5, offset: 0x423C5, size: 0x8, addend: 0x0, symName: __ZNSt3__15tupleIJRKiEEC1B8ue170006INS_4_AndELi0EEES2_, symObjAddr: 0x19AF4, symBinAddr: 0x10001CCAC, symSize: 0x34 }
  - { offsetInCU: 0x4240D, offset: 0x4240D, size: 0x8, addend: 0x0, symName: __ZNSt3__15tupleIJRKiEEC2B8ue170006INS_4_AndELi0EEES2_, symObjAddr: 0x19B28, symBinAddr: 0x10001CCE0, symSize: 0x34 }
  - { offsetInCU: 0x42455, offset: 0x42455, size: 0x8, addend: 0x0, symName: __ZNSt3__112__tuple_implINS_15__tuple_indicesIJLm0EEEEJRKiEEC1B8ue170006IJLm0EEJS4_EJEJEJS4_EEENS1_IJXspT_EEEENS_13__tuple_typesIJDpT0_EEENS1_IJXspT1_EEEENS8_IJDpT2_EEEDpOT3_, symObjAddr: 0x19B5C, symBinAddr: 0x10001CD14, symSize: 0x34 }
  - { offsetInCU: 0x424EA, offset: 0x424EA, size: 0x8, addend: 0x0, symName: __ZNSt3__112__tuple_implINS_15__tuple_indicesIJLm0EEEEJRKiEEC2B8ue170006IJLm0EEJS4_EJEJEJS4_EEENS1_IJXspT_EEEENS_13__tuple_typesIJDpT0_EEENS1_IJXspT1_EEEENS8_IJDpT2_EEEDpOT3_, symObjAddr: 0x19B90, symBinAddr: 0x10001CD48, symSize: 0x34 }
  - { offsetInCU: 0x4257F, offset: 0x4257F, size: 0x8, addend: 0x0, symName: __ZNSt3__112__tuple_leafILm0ERKiLb0EEC2B8ue170006IS2_vEEOT_, symObjAddr: 0x19BC4, symBinAddr: 0x10001CD7C, symSize: 0x20 }
  - { offsetInCU: 0x425C2, offset: 0x425C2, size: 0x8, addend: 0x0, symName: __ZNSt3__114pointer_traitsIPNS_12__value_typeIiNS_6vectorINS_12basic_stringIcNS_11char_traitsIcEENS_9allocatorIcEEEENS6_IS8_EEEEEEE10pointer_toB8ue170006ERSB_, symObjAddr: 0x19BE4, symBinAddr: 0x10001CD9C, symSize: 0x14 }
  - { offsetInCU: 0x425E5, offset: 0x425E5, size: 0x8, addend: 0x0, symName: __ZNKSt3__115__tree_iteratorINS_12__value_typeIiNS_6vectorINS_12basic_stringIcNS_11char_traitsIcEENS_9allocatorIcEEEENS6_IS8_EEEEEEPNS_11__tree_nodeISB_PvEElE8__get_npB8ue170006Ev, symObjAddr: 0x19BF8, symBinAddr: 0x10001CDB0, symSize: 0x18 }
  - { offsetInCU: 0x4260B, offset: 0x4260B, size: 0x8, addend: 0x0, symName: __ZNSt3__13mapIiNS_6vectorIiNS_9allocatorIiEEEENS_4lessIiEENS2_INS_4pairIKiS4_EEEEEC2B8ue170006Ev, symObjAddr: 0x19C10, symBinAddr: 0x10001CDC8, symSize: 0x40 }
  - { offsetInCU: 0x42635, offset: 0x42635, size: 0x8, addend: 0x0, symName: __ZNSt3__119__map_value_compareIiNS_12__value_typeIiNS_6vectorIiNS_9allocatorIiEEEEEENS_4lessIiEELb1EEC1B8ue170006ES8_, symObjAddr: 0x19C50, symBinAddr: 0x10001CE08, symSize: 0x2C }
  - { offsetInCU: 0x4266E, offset: 0x4266E, size: 0x8, addend: 0x0, symName: __ZNSt3__16__treeINS_12__value_typeIiNS_6vectorIiNS_9allocatorIiEEEEEENS_19__map_value_compareIiS6_NS_4lessIiEELb1EEENS3_IS6_EEEC1ERKSA_, symObjAddr: 0x19C7C, symBinAddr: 0x10001CE34, symSize: 0x34 }
  - { offsetInCU: 0x426A9, offset: 0x426A9, size: 0x8, addend: 0x0, symName: __ZNSt3__119__map_value_compareIiNS_12__value_typeIiNS_6vectorIiNS_9allocatorIiEEEEEENS_4lessIiEELb1EEC2B8ue170006ES8_, symObjAddr: 0x19CB0, symBinAddr: 0x10001CE68, symSize: 0x14 }
  - { offsetInCU: 0x426E2, offset: 0x426E2, size: 0x8, addend: 0x0, symName: __ZNSt3__16__treeINS_12__value_typeIiNS_6vectorIiNS_9allocatorIiEEEEEENS_19__map_value_compareIiS6_NS_4lessIiEELb1EEENS3_IS6_EEEC2ERKSA_, symObjAddr: 0x19CC4, symBinAddr: 0x10001CE7C, symSize: 0x7C }
  - { offsetInCU: 0x4271D, offset: 0x4271D, size: 0x8, addend: 0x0, symName: __ZNSt3__117__compressed_pairINS_15__tree_end_nodeIPNS_16__tree_node_baseIPvEEEENS_9allocatorINS_11__tree_nodeINS_12__value_typeIiNS_6vectorIiNS7_IiEEEEEES3_EEEEEC1B8ue170006ILb1EvEEv, symObjAddr: 0x19D40, symBinAddr: 0x10001CEF8, symSize: 0x2C }
  - { offsetInCU: 0x42752, offset: 0x42752, size: 0x8, addend: 0x0, symName: __ZNSt3__117__compressed_pairImNS_19__map_value_compareIiNS_12__value_typeIiNS_6vectorIiNS_9allocatorIiEEEEEENS_4lessIiEELb1EEEEC1B8ue170006IiRKSA_EEOT_OT0_, symObjAddr: 0x19D6C, symBinAddr: 0x10001CF24, symSize: 0x3C }
  - { offsetInCU: 0x427AA, offset: 0x427AA, size: 0x8, addend: 0x0, symName: __ZNSt3__16__treeINS_12__value_typeIiNS_6vectorIiNS_9allocatorIiEEEEEENS_19__map_value_compareIiS6_NS_4lessIiEELb1EEENS3_IS6_EEE10__end_nodeB8ue170006Ev, symObjAddr: 0x19DA8, symBinAddr: 0x10001CF60, symSize: 0x2C }
  - { offsetInCU: 0x427D0, offset: 0x427D0, size: 0x8, addend: 0x0, symName: __ZNSt3__16__treeINS_12__value_typeIiNS_6vectorIiNS_9allocatorIiEEEEEENS_19__map_value_compareIiS6_NS_4lessIiEELb1EEENS3_IS6_EEE12__begin_nodeB8ue170006Ev, symObjAddr: 0x19DD4, symBinAddr: 0x10001CF8C, symSize: 0x14 }
  - { offsetInCU: 0x427F6, offset: 0x427F6, size: 0x8, addend: 0x0, symName: __ZNSt3__117__compressed_pairINS_15__tree_end_nodeIPNS_16__tree_node_baseIPvEEEENS_9allocatorINS_11__tree_nodeINS_12__value_typeIiNS_6vectorIiNS7_IiEEEEEES3_EEEEEC2B8ue170006ILb1EvEEv, symObjAddr: 0x19DE8, symBinAddr: 0x10001CFA0, symSize: 0x34 }
  - { offsetInCU: 0x4282B, offset: 0x4282B, size: 0x8, addend: 0x0, symName: __ZNSt3__122__compressed_pair_elemINS_9allocatorINS_11__tree_nodeINS_12__value_typeIiNS_6vectorIiNS1_IiEEEEEEPvEEEELi1ELb1EEC2B8ue170006ENS_16__value_init_tagE, symObjAddr: 0x19E1C, symBinAddr: 0x10001CFD4, symSize: 0x2C }
  - { offsetInCU: 0x42860, offset: 0x42860, size: 0x8, addend: 0x0, symName: __ZNSt3__19allocatorINS_11__tree_nodeINS_12__value_typeIiNS_6vectorIiNS0_IiEEEEEEPvEEEC2B8ue170006Ev, symObjAddr: 0x19E48, symBinAddr: 0x10001D000, symSize: 0x2C }
  - { offsetInCU: 0x4288A, offset: 0x4288A, size: 0x8, addend: 0x0, symName: __ZNSt3__116__non_trivial_ifILb1ENS_9allocatorINS_11__tree_nodeINS_12__value_typeIiNS_6vectorIiNS1_IiEEEEEEPvEEEEEC2B8ue170006Ev, symObjAddr: 0x19E74, symBinAddr: 0x10001D02C, symSize: 0x14 }
  - { offsetInCU: 0x428B4, offset: 0x428B4, size: 0x8, addend: 0x0, symName: __ZNSt3__117__compressed_pairImNS_19__map_value_compareIiNS_12__value_typeIiNS_6vectorIiNS_9allocatorIiEEEEEENS_4lessIiEELb1EEEEC2B8ue170006IiRKSA_EEOT_OT0_, symObjAddr: 0x19E88, symBinAddr: 0x10001D040, symSize: 0x44 }
  - { offsetInCU: 0x4290C, offset: 0x4290C, size: 0x8, addend: 0x0, symName: __ZNSt3__122__compressed_pair_elemINS_19__map_value_compareIiNS_12__value_typeIiNS_6vectorIiNS_9allocatorIiEEEEEENS_4lessIiEELb1EEELi1ELb1EEC2B8ue170006IRKSA_vEEOT_, symObjAddr: 0x19ECC, symBinAddr: 0x10001D084, symSize: 0x18 }
  - { offsetInCU: 0x4294E, offset: 0x4294E, size: 0x8, addend: 0x0, symName: __ZNSt3__117__compressed_pairINS_15__tree_end_nodeIPNS_16__tree_node_baseIPvEEEENS_9allocatorINS_11__tree_nodeINS_12__value_typeIiNS_6vectorIiNS7_IiEEEEEES3_EEEEE5firstB8ue170006Ev, symObjAddr: 0x19EE4, symBinAddr: 0x10001D09C, symSize: 0x24 }
  - { offsetInCU: 0x42974, offset: 0x42974, size: 0x8, addend: 0x0, symName: __ZNSt3__13mapIiNS_6vectorIiNS_9allocatorIiEEEENS_4lessIiEENS2_INS_4pairIKiS4_EEEEED2B8ue170006Ev, symObjAddr: 0x19F08, symBinAddr: 0x10001D0C0, symSize: 0x2C }
  - { offsetInCU: 0x4299E, offset: 0x4299E, size: 0x8, addend: 0x0, symName: __ZNSt3__16__treeINS_12__value_typeIiNS_6vectorIiNS_9allocatorIiEEEEEENS_19__map_value_compareIiS6_NS_4lessIiEELb1EEENS3_IS6_EEED1Ev, symObjAddr: 0x19F34, symBinAddr: 0x10001D0EC, symSize: 0x2C }
  - { offsetInCU: 0x429CA, offset: 0x429CA, size: 0x8, addend: 0x0, symName: __ZNSt3__16__treeINS_12__value_typeIiNS_6vectorIiNS_9allocatorIiEEEEEENS_19__map_value_compareIiS6_NS_4lessIiEELb1EEENS3_IS6_EEED2Ev, symObjAddr: 0x19F60, symBinAddr: 0x10001D118, symSize: 0x38 }
  - { offsetInCU: 0x429F6, offset: 0x429F6, size: 0x8, addend: 0x0, symName: __ZNSt3__16__treeINS_12__value_typeIiNS_6vectorIiNS_9allocatorIiEEEEEENS_19__map_value_compareIiS6_NS_4lessIiEELb1EEENS3_IS6_EEE7destroyEPNS_11__tree_nodeIS6_PvEE, symObjAddr: 0x19F98, symBinAddr: 0x10001D150, symSize: 0xAC }
  - { offsetInCU: 0x42A42, offset: 0x42A42, size: 0x8, addend: 0x0, symName: __ZNKSt3__16__treeINS_12__value_typeIiNS_6vectorIiNS_9allocatorIiEEEEEENS_19__map_value_compareIiS6_NS_4lessIiEELb1EEENS3_IS6_EEE6__rootB8ue170006Ev, symObjAddr: 0x1A044, symBinAddr: 0x10001D1FC, symSize: 0x28 }
  - { offsetInCU: 0x42A68, offset: 0x42A68, size: 0x8, addend: 0x0, symName: __ZNSt3__16__treeINS_12__value_typeIiNS_6vectorIiNS_9allocatorIiEEEEEENS_19__map_value_compareIiS6_NS_4lessIiEELb1EEENS3_IS6_EEE12__node_allocB8ue170006Ev, symObjAddr: 0x1A06C, symBinAddr: 0x10001D224, symSize: 0x28 }
  - { offsetInCU: 0x42A8E, offset: 0x42A8E, size: 0x8, addend: 0x0, symName: __ZNSt3__116allocator_traitsINS_9allocatorINS_11__tree_nodeINS_12__value_typeIiNS_6vectorIiNS1_IiEEEEEEPvEEEEE7destroyB8ue170006INS_4pairIKiS6_EEvvEEvRSA_PT_, symObjAddr: 0x1A094, symBinAddr: 0x10001D24C, symSize: 0x28 }
  - { offsetInCU: 0x42AC9, offset: 0x42AC9, size: 0x8, addend: 0x0, symName: __ZNSt3__122__tree_key_value_typesINS_12__value_typeIiNS_6vectorIiNS_9allocatorIiEEEEEEE9__get_ptrB8ue170006ERS6_, symObjAddr: 0x1A0BC, symBinAddr: 0x10001D274, symSize: 0x24 }
  - { offsetInCU: 0x42AED, offset: 0x42AED, size: 0x8, addend: 0x0, symName: __ZNSt3__116allocator_traitsINS_9allocatorINS_11__tree_nodeINS_12__value_typeIiNS_6vectorIiNS1_IiEEEEEEPvEEEEE10deallocateB8ue170006ERSA_PS9_m, symObjAddr: 0x1A0E0, symBinAddr: 0x10001D298, symSize: 0x34 }
  - { offsetInCU: 0x42B2F, offset: 0x42B2F, size: 0x8, addend: 0x0, symName: __ZNSt3__117__compressed_pairINS_15__tree_end_nodeIPNS_16__tree_node_baseIPvEEEENS_9allocatorINS_11__tree_nodeINS_12__value_typeIiNS_6vectorIiNS7_IiEEEEEES3_EEEEE6secondB8ue170006Ev, symObjAddr: 0x1A114, symBinAddr: 0x10001D2CC, symSize: 0x24 }
  - { offsetInCU: 0x42B55, offset: 0x42B55, size: 0x8, addend: 0x0, symName: __ZNSt3__122__compressed_pair_elemINS_9allocatorINS_11__tree_nodeINS_12__value_typeIiNS_6vectorIiNS1_IiEEEEEEPvEEEELi1ELb1EE5__getB8ue170006Ev, symObjAddr: 0x1A138, symBinAddr: 0x10001D2F0, symSize: 0x14 }
  - { offsetInCU: 0x42B7B, offset: 0x42B7B, size: 0x8, addend: 0x0, symName: __ZNSt3__14pairIKiNS_6vectorIiNS_9allocatorIiEEEEED1Ev, symObjAddr: 0x1A194, symBinAddr: 0x10001D34C, symSize: 0x2C }
  - { offsetInCU: 0x42BA7, offset: 0x42BA7, size: 0x8, addend: 0x0, symName: __ZNSt3__14pairIKiNS_6vectorIiNS_9allocatorIiEEEEED2Ev, symObjAddr: 0x1A1C0, symBinAddr: 0x10001D378, symSize: 0x30 }
  - { offsetInCU: 0x42BD3, offset: 0x42BD3, size: 0x8, addend: 0x0, symName: __ZNSt3__112__value_typeIiNS_6vectorIiNS_9allocatorIiEEEEE11__get_valueB8ue170006Ev, symObjAddr: 0x1A1F0, symBinAddr: 0x10001D3A8, symSize: 0x24 }
  - { offsetInCU: 0x42BF9, offset: 0x42BF9, size: 0x8, addend: 0x0, symName: __ZNSt3__19allocatorINS_11__tree_nodeINS_12__value_typeIiNS_6vectorIiNS0_IiEEEEEEPvEEE10deallocateB8ue170006EPS8_m, symObjAddr: 0x1A24C, symBinAddr: 0x10001D404, symSize: 0x40 }
  - { offsetInCU: 0x42C3B, offset: 0x42C3B, size: 0x8, addend: 0x0, symName: __ZNKSt3__16__treeINS_12__value_typeIiNS_6vectorIiNS_9allocatorIiEEEEEENS_19__map_value_compareIiS6_NS_4lessIiEELb1EEENS3_IS6_EEE10__end_nodeB8ue170006Ev, symObjAddr: 0x1A28C, symBinAddr: 0x10001D444, symSize: 0x2C }
  - { offsetInCU: 0x42C61, offset: 0x42C61, size: 0x8, addend: 0x0, symName: __ZNKSt3__117__compressed_pairINS_15__tree_end_nodeIPNS_16__tree_node_baseIPvEEEENS_9allocatorINS_11__tree_nodeINS_12__value_typeIiNS_6vectorIiNS7_IiEEEEEES3_EEEEE5firstB8ue170006Ev, symObjAddr: 0x1A2B8, symBinAddr: 0x10001D470, symSize: 0x24 }
  - { offsetInCU: 0x42C87, offset: 0x42C87, size: 0x8, addend: 0x0, symName: __ZNSt3__16__treeINS_12__value_typeIiNS_6vectorIiNS_9allocatorIiEEEEEENS_19__map_value_compareIiS6_NS_4lessIiEELb1EEENS3_IS6_EEE4findIiEENS_15__tree_iteratorIS6_PNS_11__tree_nodeIS6_PvEElEERKT_, symObjAddr: 0x1A2DC, symBinAddr: 0x10001D494, symSize: 0xF8 }
  - { offsetInCU: 0x42CD6, offset: 0x42CD6, size: 0x8, addend: 0x0, symName: __ZNSt3__114__map_iteratorINS_15__tree_iteratorINS_12__value_typeIiNS_6vectorIiNS_9allocatorIiEEEEEEPNS_11__tree_nodeIS7_PvEElEEEC1B8ue170006ESC_, symObjAddr: 0x1A3D4, symBinAddr: 0x10001D58C, symSize: 0x34 }
  - { offsetInCU: 0x42D0F, offset: 0x42D0F, size: 0x8, addend: 0x0, symName: __ZNSt3__16__treeINS_12__value_typeIiNS_6vectorIiNS_9allocatorIiEEEEEENS_19__map_value_compareIiS6_NS_4lessIiEELb1EEENS3_IS6_EEE13__lower_boundIiEENS_15__tree_iteratorIS6_PNS_11__tree_nodeIS6_PvEElEERKT_SI_PNS_15__tree_end_nodeIPNS_16__tree_node_baseISG_EEEE, symObjAddr: 0x1A408, symBinAddr: 0x10001D5C0, symSize: 0xA4 }
  - { offsetInCU: 0x42D6D, offset: 0x42D6D, size: 0x8, addend: 0x0, symName: __ZNSt3__16__treeINS_12__value_typeIiNS_6vectorIiNS_9allocatorIiEEEEEENS_19__map_value_compareIiS6_NS_4lessIiEELb1EEENS3_IS6_EEE3endB8ue170006Ev, symObjAddr: 0x1A4E0, symBinAddr: 0x10001D698, symSize: 0x34 }
  - { offsetInCU: 0x42D93, offset: 0x42D93, size: 0x8, addend: 0x0, symName: __ZNSt3__16__treeINS_12__value_typeIiNS_6vectorIiNS_9allocatorIiEEEEEENS_19__map_value_compareIiS6_NS_4lessIiEELb1EEENS3_IS6_EEE10value_compB8ue170006Ev, symObjAddr: 0x1A514, symBinAddr: 0x10001D6CC, symSize: 0x28 }
  - { offsetInCU: 0x42DB9, offset: 0x42DB9, size: 0x8, addend: 0x0, symName: __ZNKSt3__119__map_value_compareIiNS_12__value_typeIiNS_6vectorIiNS_9allocatorIiEEEEEENS_4lessIiEELb1EEclB8ue170006ERKiRKS6_, symObjAddr: 0x1A53C, symBinAddr: 0x10001D6F4, symSize: 0x50 }
  - { offsetInCU: 0x42DFD, offset: 0x42DFD, size: 0x8, addend: 0x0, symName: __ZNKSt3__115__tree_iteratorINS_12__value_typeIiNS_6vectorIiNS_9allocatorIiEEEEEEPNS_11__tree_nodeIS6_PvEElEdeB8ue170006Ev, symObjAddr: 0x1A58C, symBinAddr: 0x10001D744, symSize: 0x28 }
  - { offsetInCU: 0x42E23, offset: 0x42E23, size: 0x8, addend: 0x0, symName: __ZNKSt3__119__map_value_compareIiNS_12__value_typeIiNS_6vectorIiNS_9allocatorIiEEEEEENS_4lessIiEELb1EEclB8ue170006ERKS6_RKi, symObjAddr: 0x1A5B4, symBinAddr: 0x10001D76C, symSize: 0x48 }
  - { offsetInCU: 0x42E67, offset: 0x42E67, size: 0x8, addend: 0x0, symName: __ZNSt3__115__tree_iteratorINS_12__value_typeIiNS_6vectorIiNS_9allocatorIiEEEEEEPNS_11__tree_nodeIS6_PvEElEC1B8ue170006EPNS_15__tree_end_nodeIPNS_16__tree_node_baseIS8_EEEE, symObjAddr: 0x1A5FC, symBinAddr: 0x10001D7B4, symSize: 0x34 }
  - { offsetInCU: 0x42EA0, offset: 0x42EA0, size: 0x8, addend: 0x0, symName: __ZNKSt3__112__value_typeIiNS_6vectorIiNS_9allocatorIiEEEEE11__get_valueB8ue170006Ev, symObjAddr: 0x1A630, symBinAddr: 0x10001D7E8, symSize: 0x24 }
  - { offsetInCU: 0x42EC6, offset: 0x42EC6, size: 0x8, addend: 0x0, symName: __ZNSt3__115__tree_iteratorINS_12__value_typeIiNS_6vectorIiNS_9allocatorIiEEEEEEPNS_11__tree_nodeIS6_PvEElEC2B8ue170006EPNS_15__tree_end_nodeIPNS_16__tree_node_baseIS8_EEEE, symObjAddr: 0x1A68C, symBinAddr: 0x10001D844, symSize: 0x20 }
  - { offsetInCU: 0x42EFF, offset: 0x42EFF, size: 0x8, addend: 0x0, symName: __ZNSt3__117__compressed_pairImNS_19__map_value_compareIiNS_12__value_typeIiNS_6vectorIiNS_9allocatorIiEEEEEENS_4lessIiEELb1EEEE6secondB8ue170006Ev, symObjAddr: 0x1A6DC, symBinAddr: 0x10001D894, symSize: 0x24 }
  - { offsetInCU: 0x42F25, offset: 0x42F25, size: 0x8, addend: 0x0, symName: __ZNSt3__122__compressed_pair_elemINS_19__map_value_compareIiNS_12__value_typeIiNS_6vectorIiNS_9allocatorIiEEEEEENS_4lessIiEELb1EEELi1ELb1EE5__getB8ue170006Ev, symObjAddr: 0x1A700, symBinAddr: 0x10001D8B8, symSize: 0x14 }
  - { offsetInCU: 0x42F4B, offset: 0x42F4B, size: 0x8, addend: 0x0, symName: __ZNKSt3__115__tree_iteratorINS_12__value_typeIiNS_6vectorIiNS_9allocatorIiEEEEEEPNS_11__tree_nodeIS6_PvEElE8__get_npB8ue170006Ev, symObjAddr: 0x1A714, symBinAddr: 0x10001D8CC, symSize: 0x18 }
  - { offsetInCU: 0x42F71, offset: 0x42F71, size: 0x8, addend: 0x0, symName: __ZNSt3__114__map_iteratorINS_15__tree_iteratorINS_12__value_typeIiNS_6vectorIiNS_9allocatorIiEEEEEEPNS_11__tree_nodeIS7_PvEElEEEC2B8ue170006ESC_, symObjAddr: 0x1A72C, symBinAddr: 0x10001D8E4, symSize: 0x20 }
  - { offsetInCU: 0x42FAA, offset: 0x42FAA, size: 0x8, addend: 0x0, symName: __ZNSt3__16__treeINS_12__value_typeIiNS_6vectorIiNS_9allocatorIiEEEEEENS_19__map_value_compareIiS6_NS_4lessIiEELb1EEENS3_IS6_EEE25__emplace_unique_key_argsIiJRKNS_21piecewise_construct_tENS_5tupleIJRKiEEENSH_IJEEEEEENS_4pairINS_15__tree_iteratorIS6_PNS_11__tree_nodeIS6_PvEElEEbEERKT_DpOT0_, symObjAddr: 0x1A74C, symBinAddr: 0x10001D904, symSize: 0x100 }
  - { offsetInCU: 0x43080, offset: 0x43080, size: 0x8, addend: 0x0, symName: __ZNKSt3__115__tree_iteratorINS_12__value_typeIiNS_6vectorIiNS_9allocatorIiEEEEEEPNS_11__tree_nodeIS6_PvEElEptB8ue170006Ev, symObjAddr: 0x1A84C, symBinAddr: 0x10001DA04, symSize: 0x2C }
  - { offsetInCU: 0x430A6, offset: 0x430A6, size: 0x8, addend: 0x0, symName: __ZNSt3__16__treeINS_12__value_typeIiNS_6vectorIiNS_9allocatorIiEEEEEENS_19__map_value_compareIiS6_NS_4lessIiEELb1EEENS3_IS6_EEE12__find_equalIiEERPNS_16__tree_node_baseIPvEERPNS_15__tree_end_nodeISH_EERKT_, symObjAddr: 0x1A878, symBinAddr: 0x10001DA30, symSize: 0x184 }
  - { offsetInCU: 0x43113, offset: 0x43113, size: 0x8, addend: 0x0, symName: __ZNSt3__16__treeINS_12__value_typeIiNS_6vectorIiNS_9allocatorIiEEEEEENS_19__map_value_compareIiS6_NS_4lessIiEELb1EEENS3_IS6_EEE16__construct_nodeIJRKNS_21piecewise_construct_tENS_5tupleIJRKiEEENSH_IJEEEEEENS_10unique_ptrINS_11__tree_nodeIS6_PvEENS_22__tree_node_destructorINS3_ISP_EEEEEEDpOT_, symObjAddr: 0x1A9FC, symBinAddr: 0x10001DBB4, symSize: 0x120 }
  - { offsetInCU: 0x4319C, offset: 0x4319C, size: 0x8, addend: 0x0, symName: __ZNSt3__16__treeINS_12__value_typeIiNS_6vectorIiNS_9allocatorIiEEEEEENS_19__map_value_compareIiS6_NS_4lessIiEELb1EEENS3_IS6_EEE16__insert_node_atEPNS_15__tree_end_nodeIPNS_16__tree_node_baseIPvEEEERSH_SH_, symObjAddr: 0x1AB1C, symBinAddr: 0x10001DCD4, symSize: 0xCC }
  - { offsetInCU: 0x431F1, offset: 0x431F1, size: 0x8, addend: 0x0, symName: __ZNKSt3__110unique_ptrINS_11__tree_nodeINS_12__value_typeIiNS_6vectorIiNS_9allocatorIiEEEEEEPvEENS_22__tree_node_destructorINS4_IS9_EEEEE3getB8ue170006Ev, symObjAddr: 0x1ABE8, symBinAddr: 0x10001DDA0, symSize: 0x28 }
  - { offsetInCU: 0x43217, offset: 0x43217, size: 0x8, addend: 0x0, symName: __ZNSt3__110unique_ptrINS_11__tree_nodeINS_12__value_typeIiNS_6vectorIiNS_9allocatorIiEEEEEEPvEENS_22__tree_node_destructorINS4_IS9_EEEEE7releaseB8ue170006Ev, symObjAddr: 0x1AC10, symBinAddr: 0x10001DDC8, symSize: 0x44 }
  - { offsetInCU: 0x4324C, offset: 0x4324C, size: 0x8, addend: 0x0, symName: __ZNSt3__110unique_ptrINS_11__tree_nodeINS_12__value_typeIiNS_6vectorIiNS_9allocatorIiEEEEEEPvEENS_22__tree_node_destructorINS4_IS9_EEEEED1B8ue170006Ev, symObjAddr: 0x1AC54, symBinAddr: 0x10001DE0C, symSize: 0x2C }
  - { offsetInCU: 0x43276, offset: 0x43276, size: 0x8, addend: 0x0, symName: __ZNSt3__115__tree_iteratorINS_12__value_typeIiNS_6vectorIiNS_9allocatorIiEEEEEEPNS_11__tree_nodeIS6_PvEElEC1B8ue170006ESA_, symObjAddr: 0x1AC80, symBinAddr: 0x10001DE38, symSize: 0x34 }
  - { offsetInCU: 0x432B5, offset: 0x432B5, size: 0x8, addend: 0x0, symName: __ZNSt3__14pairINS_15__tree_iteratorINS_12__value_typeIiNS_6vectorIiNS_9allocatorIiEEEEEEPNS_11__tree_nodeIS7_PvEElEEbEC1B8ue170006ISC_RbLS9_0EEEOT_OT0_, symObjAddr: 0x1ACB4, symBinAddr: 0x10001DE6C, symSize: 0x3C }
  - { offsetInCU: 0x43313, offset: 0x43313, size: 0x8, addend: 0x0, symName: __ZNKSt3__16__treeINS_12__value_typeIiNS_6vectorIiNS_9allocatorIiEEEEEENS_19__map_value_compareIiS6_NS_4lessIiEELb1EEENS3_IS6_EEE10__root_ptrB8ue170006Ev, symObjAddr: 0x1ACF0, symBinAddr: 0x10001DEA8, symSize: 0x24 }
  - { offsetInCU: 0x43339, offset: 0x43339, size: 0x8, addend: 0x0, symName: __ZNSt3__116allocator_traitsINS_9allocatorINS_11__tree_nodeINS_12__value_typeIiNS_6vectorIiNS1_IiEEEEEEPvEEEEE8allocateB8ue170006ERSA_m, symObjAddr: 0x1AD14, symBinAddr: 0x10001DECC, symSize: 0x2C }
  - { offsetInCU: 0x4336C, offset: 0x4336C, size: 0x8, addend: 0x0, symName: __ZNSt3__122__tree_node_destructorINS_9allocatorINS_11__tree_nodeINS_12__value_typeIiNS_6vectorIiNS1_IiEEEEEEPvEEEEEC1B8ue170006ERSA_b, symObjAddr: 0x1AD40, symBinAddr: 0x10001DEF8, symSize: 0x48 }
  - { offsetInCU: 0x433BA, offset: 0x433BA, size: 0x8, addend: 0x0, symName: __ZNSt3__110unique_ptrINS_11__tree_nodeINS_12__value_typeIiNS_6vectorIiNS_9allocatorIiEEEEEEPvEENS_22__tree_node_destructorINS4_IS9_EEEEEC1B8ue170006ILb1EvEEPS9_NS_16__dependent_typeINS_27__unique_ptr_deleter_sfinaeISC_EEXT_EE20__good_rval_ref_typeE, symObjAddr: 0x1AD88, symBinAddr: 0x10001DF40, symSize: 0x3C }
  - { offsetInCU: 0x4340B, offset: 0x4340B, size: 0x8, addend: 0x0, symName: __ZNSt3__116allocator_traitsINS_9allocatorINS_11__tree_nodeINS_12__value_typeIiNS_6vectorIiNS1_IiEEEEEEPvEEEEE9constructB8ue170006INS_4pairIKiS6_EEJRKNS_21piecewise_construct_tENS_5tupleIJRSE_EEENSJ_IJEEEEvvEEvRSA_PT_DpOT0_, symObjAddr: 0x1ADC4, symBinAddr: 0x10001DF7C, symSize: 0x40 }
  - { offsetInCU: 0x43488, offset: 0x43488, size: 0x8, addend: 0x0, symName: __ZNKSt3__110unique_ptrINS_11__tree_nodeINS_12__value_typeIiNS_6vectorIiNS_9allocatorIiEEEEEEPvEENS_22__tree_node_destructorINS4_IS9_EEEEEptB8ue170006Ev, symObjAddr: 0x1AE04, symBinAddr: 0x10001DFBC, symSize: 0x28 }
  - { offsetInCU: 0x434AE, offset: 0x434AE, size: 0x8, addend: 0x0, symName: __ZNSt3__110unique_ptrINS_11__tree_nodeINS_12__value_typeIiNS_6vectorIiNS_9allocatorIiEEEEEEPvEENS_22__tree_node_destructorINS4_IS9_EEEEE11get_deleterB8ue170006Ev, symObjAddr: 0x1AE2C, symBinAddr: 0x10001DFE4, symSize: 0x24 }
  - { offsetInCU: 0x434D4, offset: 0x434D4, size: 0x8, addend: 0x0, symName: __ZNSt3__19allocatorINS_11__tree_nodeINS_12__value_typeIiNS_6vectorIiNS0_IiEEEEEEPvEEE8allocateB8ue170006Em, symObjAddr: 0x1AE50, symBinAddr: 0x10001E008, symSize: 0x58 }
  - { offsetInCU: 0x43513, offset: 0x43513, size: 0x8, addend: 0x0, symName: __ZNSt3__116allocator_traitsINS_9allocatorINS_11__tree_nodeINS_12__value_typeIiNS_6vectorIiNS1_IiEEEEEEPvEEEEE8max_sizeB8ue170006ISA_vvEEmRKSA_, symObjAddr: 0x1AEA8, symBinAddr: 0x10001E060, symSize: 0x28 }
  - { offsetInCU: 0x4353F, offset: 0x4353F, size: 0x8, addend: 0x0, symName: __ZNSt3__122__tree_node_destructorINS_9allocatorINS_11__tree_nodeINS_12__value_typeIiNS_6vectorIiNS1_IiEEEEEEPvEEEEEC2B8ue170006ERSA_b, symObjAddr: 0x1AED0, symBinAddr: 0x10001E088, symSize: 0x38 }
  - { offsetInCU: 0x43587, offset: 0x43587, size: 0x8, addend: 0x0, symName: __ZNSt3__110unique_ptrINS_11__tree_nodeINS_12__value_typeIiNS_6vectorIiNS_9allocatorIiEEEEEEPvEENS_22__tree_node_destructorINS4_IS9_EEEEEC2B8ue170006ILb1EvEEPS9_NS_16__dependent_typeINS_27__unique_ptr_deleter_sfinaeISC_EEXT_EE20__good_rval_ref_typeE, symObjAddr: 0x1AF08, symBinAddr: 0x10001E0C0, symSize: 0x48 }
  - { offsetInCU: 0x435D8, offset: 0x435D8, size: 0x8, addend: 0x0, symName: __ZNSt3__117__compressed_pairIPNS_11__tree_nodeINS_12__value_typeIiNS_6vectorIiNS_9allocatorIiEEEEEEPvEENS_22__tree_node_destructorINS4_IS9_EEEEEC1B8ue170006IRSA_SD_EEOT_OT0_, symObjAddr: 0x1AF50, symBinAddr: 0x10001E108, symSize: 0x3C }
  - { offsetInCU: 0x43630, offset: 0x43630, size: 0x8, addend: 0x0, symName: __ZNSt3__117__compressed_pairIPNS_11__tree_nodeINS_12__value_typeIiNS_6vectorIiNS_9allocatorIiEEEEEEPvEENS_22__tree_node_destructorINS4_IS9_EEEEEC2B8ue170006IRSA_SD_EEOT_OT0_, symObjAddr: 0x1AF8C, symBinAddr: 0x10001E144, symSize: 0x48 }
  - { offsetInCU: 0x43688, offset: 0x43688, size: 0x8, addend: 0x0, symName: __ZNSt3__122__compressed_pair_elemIPNS_11__tree_nodeINS_12__value_typeIiNS_6vectorIiNS_9allocatorIiEEEEEEPvEELi0ELb0EEC2B8ue170006IRSA_vEEOT_, symObjAddr: 0x1AFD4, symBinAddr: 0x10001E18C, symSize: 0x24 }
  - { offsetInCU: 0x436CA, offset: 0x436CA, size: 0x8, addend: 0x0, symName: __ZNSt3__122__compressed_pair_elemINS_22__tree_node_destructorINS_9allocatorINS_11__tree_nodeINS_12__value_typeIiNS_6vectorIiNS2_IiEEEEEEPvEEEEEELi1ELb0EEC2B8ue170006ISC_vEEOT_, symObjAddr: 0x1AFF8, symBinAddr: 0x10001E1B0, symSize: 0x24 }
  - { offsetInCU: 0x4370C, offset: 0x4370C, size: 0x8, addend: 0x0, symName: __ZNSt3__14pairIKiNS_6vectorIiNS_9allocatorIiEEEEEC1B8ue170006IJRS1_EJEEENS_21piecewise_construct_tENS_5tupleIJDpT_EEENSA_IJDpT0_EEE, symObjAddr: 0x1B06C, symBinAddr: 0x10001E224, symSize: 0x44 }
  - { offsetInCU: 0x43773, offset: 0x43773, size: 0x8, addend: 0x0, symName: __ZNSt3__14pairIKiNS_6vectorIiNS_9allocatorIiEEEEEC1B8ue170006IJRS1_EJEJLm0EEJEEENS_21piecewise_construct_tERNS_5tupleIJDpT_EEERNSA_IJDpT0_EEENS_15__tuple_indicesIJXspT1_EEEENSJ_IJXspT2_EEEE, symObjAddr: 0x1B0B0, symBinAddr: 0x10001E268, symSize: 0x3C }
  - { offsetInCU: 0x43803, offset: 0x43803, size: 0x8, addend: 0x0, symName: __ZNSt3__14pairIKiNS_6vectorIiNS_9allocatorIiEEEEEC2B8ue170006IJRS1_EJEJLm0EEJEEENS_21piecewise_construct_tERNS_5tupleIJDpT_EEERNSA_IJDpT0_EEENS_15__tuple_indicesIJXspT1_EEEENSJ_IJXspT2_EEEE, symObjAddr: 0x1B0EC, symBinAddr: 0x10001E2A4, symSize: 0x4C }
  - { offsetInCU: 0x43893, offset: 0x43893, size: 0x8, addend: 0x0, symName: __ZNKSt3__117__compressed_pairIPNS_11__tree_nodeINS_12__value_typeIiNS_6vectorIiNS_9allocatorIiEEEEEEPvEENS_22__tree_node_destructorINS4_IS9_EEEEE5firstB8ue170006Ev, symObjAddr: 0x1B138, symBinAddr: 0x10001E2F0, symSize: 0x24 }
  - { offsetInCU: 0x438B9, offset: 0x438B9, size: 0x8, addend: 0x0, symName: __ZNKSt3__122__compressed_pair_elemIPNS_11__tree_nodeINS_12__value_typeIiNS_6vectorIiNS_9allocatorIiEEEEEEPvEELi0ELb0EE5__getB8ue170006Ev, symObjAddr: 0x1B15C, symBinAddr: 0x10001E314, symSize: 0x14 }
  - { offsetInCU: 0x438DF, offset: 0x438DF, size: 0x8, addend: 0x0, symName: __ZNSt3__117__compressed_pairIPNS_11__tree_nodeINS_12__value_typeIiNS_6vectorIiNS_9allocatorIiEEEEEEPvEENS_22__tree_node_destructorINS4_IS9_EEEEE6secondB8ue170006Ev, symObjAddr: 0x1B170, symBinAddr: 0x10001E328, symSize: 0x28 }
  - { offsetInCU: 0x43905, offset: 0x43905, size: 0x8, addend: 0x0, symName: __ZNSt3__122__compressed_pair_elemINS_22__tree_node_destructorINS_9allocatorINS_11__tree_nodeINS_12__value_typeIiNS_6vectorIiNS2_IiEEEEEEPvEEEEEELi1ELb0EE5__getB8ue170006Ev, symObjAddr: 0x1B198, symBinAddr: 0x10001E350, symSize: 0x14 }
  - { offsetInCU: 0x4392B, offset: 0x4392B, size: 0x8, addend: 0x0, symName: __ZNSt3__16__treeINS_12__value_typeIiNS_6vectorIiNS_9allocatorIiEEEEEENS_19__map_value_compareIiS6_NS_4lessIiEELb1EEENS3_IS6_EEE4sizeB8ue170006Ev, symObjAddr: 0x1B1AC, symBinAddr: 0x10001E364, symSize: 0x28 }
  - { offsetInCU: 0x43951, offset: 0x43951, size: 0x8, addend: 0x0, symName: __ZNSt3__117__compressed_pairImNS_19__map_value_compareIiNS_12__value_typeIiNS_6vectorIiNS_9allocatorIiEEEEEENS_4lessIiEELb1EEEE5firstB8ue170006Ev, symObjAddr: 0x1B1D4, symBinAddr: 0x10001E38C, symSize: 0x24 }
  - { offsetInCU: 0x43977, offset: 0x43977, size: 0x8, addend: 0x0, symName: __ZNSt3__117__compressed_pairIPNS_11__tree_nodeINS_12__value_typeIiNS_6vectorIiNS_9allocatorIiEEEEEEPvEENS_22__tree_node_destructorINS4_IS9_EEEEE5firstB8ue170006Ev, symObjAddr: 0x1B1F8, symBinAddr: 0x10001E3B0, symSize: 0x24 }
  - { offsetInCU: 0x4399D, offset: 0x4399D, size: 0x8, addend: 0x0, symName: __ZNSt3__122__compressed_pair_elemIPNS_11__tree_nodeINS_12__value_typeIiNS_6vectorIiNS_9allocatorIiEEEEEEPvEELi0ELb0EE5__getB8ue170006Ev, symObjAddr: 0x1B21C, symBinAddr: 0x10001E3D4, symSize: 0x14 }
  - { offsetInCU: 0x439C3, offset: 0x439C3, size: 0x8, addend: 0x0, symName: __ZNSt3__110unique_ptrINS_11__tree_nodeINS_12__value_typeIiNS_6vectorIiNS_9allocatorIiEEEEEEPvEENS_22__tree_node_destructorINS4_IS9_EEEEED2B8ue170006Ev, symObjAddr: 0x1B230, symBinAddr: 0x10001E3E8, symSize: 0x30 }
  - { offsetInCU: 0x439ED, offset: 0x439ED, size: 0x8, addend: 0x0, symName: __ZNSt3__110unique_ptrINS_11__tree_nodeINS_12__value_typeIiNS_6vectorIiNS_9allocatorIiEEEEEEPvEENS_22__tree_node_destructorINS4_IS9_EEEEE5resetB8ue170006EPS9_, symObjAddr: 0x1B260, symBinAddr: 0x10001E418, symSize: 0x78 }
  - { offsetInCU: 0x43A31, offset: 0x43A31, size: 0x8, addend: 0x0, symName: __ZNSt3__122__tree_node_destructorINS_9allocatorINS_11__tree_nodeINS_12__value_typeIiNS_6vectorIiNS1_IiEEEEEEPvEEEEEclB8ue170006EPS9_, symObjAddr: 0x1B2D8, symBinAddr: 0x10001E490, symSize: 0x98 }
  - { offsetInCU: 0x43A66, offset: 0x43A66, size: 0x8, addend: 0x0, symName: __ZNSt3__115__tree_iteratorINS_12__value_typeIiNS_6vectorIiNS_9allocatorIiEEEEEEPNS_11__tree_nodeIS6_PvEElEC2B8ue170006ESA_, symObjAddr: 0x1B370, symBinAddr: 0x10001E528, symSize: 0x20 }
  - { offsetInCU: 0x43A9F, offset: 0x43A9F, size: 0x8, addend: 0x0, symName: __ZNSt3__14pairINS_15__tree_iteratorINS_12__value_typeIiNS_6vectorIiNS_9allocatorIiEEEEEEPNS_11__tree_nodeIS7_PvEElEEbEC2B8ue170006ISC_RbLS9_0EEEOT_OT0_, symObjAddr: 0x1B390, symBinAddr: 0x10001E548, symSize: 0x38 }
  - { offsetInCU: 0x43AFD, offset: 0x43AFD, size: 0x8, addend: 0x0, symName: __ZNSt3__114pointer_traitsIPNS_12__value_typeIiNS_6vectorIiNS_9allocatorIiEEEEEEE10pointer_toB8ue170006ERS6_, symObjAddr: 0x1B3C8, symBinAddr: 0x10001E580, symSize: 0x14 }
  - { offsetInCU: 0x43B20, offset: 0x43B20, size: 0x8, addend: 0x0, symName: __ZNSt3__13mapIiNS0_INS_12basic_stringIcNS_11char_traitsIcEENS_9allocatorIcEEEEiNS_4lessIS6_EENS4_INS_4pairIKS6_iEEEEEENS7_IiEENS4_INS9_IKiSD_EEEEEC2B8ue170006Ev, symObjAddr: 0x1B3DC, symBinAddr: 0x10001E594, symSize: 0x40 }
  - { offsetInCU: 0x43B4A, offset: 0x43B4A, size: 0x8, addend: 0x0, symName: __ZNSt3__119__map_value_compareIiNS_12__value_typeIiNS_3mapINS_12basic_stringIcNS_11char_traitsIcEENS_9allocatorIcEEEEiNS_4lessIS8_EENS6_INS_4pairIKS8_iEEEEEEEENS9_IiEELb1EEC1B8ue170006ESH_, symObjAddr: 0x1B41C, symBinAddr: 0x10001E5D4, symSize: 0x2C }
  - { offsetInCU: 0x43B83, offset: 0x43B83, size: 0x8, addend: 0x0, symName: __ZNSt3__16__treeINS_12__value_typeIiNS_3mapINS_12basic_stringIcNS_11char_traitsIcEENS_9allocatorIcEEEEiNS_4lessIS8_EENS6_INS_4pairIKS8_iEEEEEEEENS_19__map_value_compareIiSG_NS9_IiEELb1EEENS6_ISG_EEEC1ERKSJ_, symObjAddr: 0x1B448, symBinAddr: 0x10001E600, symSize: 0x34 }
  - { offsetInCU: 0x43BBE, offset: 0x43BBE, size: 0x8, addend: 0x0, symName: __ZNSt3__119__map_value_compareIiNS_12__value_typeIiNS_3mapINS_12basic_stringIcNS_11char_traitsIcEENS_9allocatorIcEEEEiNS_4lessIS8_EENS6_INS_4pairIKS8_iEEEEEEEENS9_IiEELb1EEC2B8ue170006ESH_, symObjAddr: 0x1B47C, symBinAddr: 0x10001E634, symSize: 0x14 }
  - { offsetInCU: 0x43BF7, offset: 0x43BF7, size: 0x8, addend: 0x0, symName: __ZNSt3__16__treeINS_12__value_typeIiNS_3mapINS_12basic_stringIcNS_11char_traitsIcEENS_9allocatorIcEEEEiNS_4lessIS8_EENS6_INS_4pairIKS8_iEEEEEEEENS_19__map_value_compareIiSG_NS9_IiEELb1EEENS6_ISG_EEEC2ERKSJ_, symObjAddr: 0x1B490, symBinAddr: 0x10001E648, symSize: 0x7C }
  - { offsetInCU: 0x43C32, offset: 0x43C32, size: 0x8, addend: 0x0, symName: __ZNSt3__117__compressed_pairINS_15__tree_end_nodeIPNS_16__tree_node_baseIPvEEEENS_9allocatorINS_11__tree_nodeINS_12__value_typeIiNS_3mapINS_12basic_stringIcNS_11char_traitsIcEENS7_IcEEEEiNS_4lessISF_EENS7_INS_4pairIKSF_iEEEEEEEES3_EEEEEC1B8ue170006ILb1EvEEv, symObjAddr: 0x1B50C, symBinAddr: 0x10001E6C4, symSize: 0x2C }
  - { offsetInCU: 0x43C67, offset: 0x43C67, size: 0x8, addend: 0x0, symName: __ZNSt3__117__compressed_pairImNS_19__map_value_compareIiNS_12__value_typeIiNS_3mapINS_12basic_stringIcNS_11char_traitsIcEENS_9allocatorIcEEEEiNS_4lessIS9_EENS7_INS_4pairIKS9_iEEEEEEEENSA_IiEELb1EEEEC1B8ue170006IiRKSJ_EEOT_OT0_, symObjAddr: 0x1B538, symBinAddr: 0x10001E6F0, symSize: 0x3C }
  - { offsetInCU: 0x43CBF, offset: 0x43CBF, size: 0x8, addend: 0x0, symName: __ZNSt3__16__treeINS_12__value_typeIiNS_3mapINS_12basic_stringIcNS_11char_traitsIcEENS_9allocatorIcEEEEiNS_4lessIS8_EENS6_INS_4pairIKS8_iEEEEEEEENS_19__map_value_compareIiSG_NS9_IiEELb1EEENS6_ISG_EEE10__end_nodeB8ue170006Ev, symObjAddr: 0x1B574, symBinAddr: 0x10001E72C, symSize: 0x2C }
  - { offsetInCU: 0x43CE5, offset: 0x43CE5, size: 0x8, addend: 0x0, symName: __ZNSt3__16__treeINS_12__value_typeIiNS_3mapINS_12basic_stringIcNS_11char_traitsIcEENS_9allocatorIcEEEEiNS_4lessIS8_EENS6_INS_4pairIKS8_iEEEEEEEENS_19__map_value_compareIiSG_NS9_IiEELb1EEENS6_ISG_EEE12__begin_nodeB8ue170006Ev, symObjAddr: 0x1B5A0, symBinAddr: 0x10001E758, symSize: 0x14 }
  - { offsetInCU: 0x43D0B, offset: 0x43D0B, size: 0x8, addend: 0x0, symName: __ZNSt3__117__compressed_pairINS_15__tree_end_nodeIPNS_16__tree_node_baseIPvEEEENS_9allocatorINS_11__tree_nodeINS_12__value_typeIiNS_3mapINS_12basic_stringIcNS_11char_traitsIcEENS7_IcEEEEiNS_4lessISF_EENS7_INS_4pairIKSF_iEEEEEEEES3_EEEEEC2B8ue170006ILb1EvEEv, symObjAddr: 0x1B5B4, symBinAddr: 0x10001E76C, symSize: 0x34 }
  - { offsetInCU: 0x43D40, offset: 0x43D40, size: 0x8, addend: 0x0, symName: __ZNSt3__122__compressed_pair_elemINS_9allocatorINS_11__tree_nodeINS_12__value_typeIiNS_3mapINS_12basic_stringIcNS_11char_traitsIcEENS1_IcEEEEiNS_4lessIS9_EENS1_INS_4pairIKS9_iEEEEEEEEPvEEEELi1ELb1EEC2B8ue170006ENS_16__value_init_tagE, symObjAddr: 0x1B5E8, symBinAddr: 0x10001E7A0, symSize: 0x2C }
  - { offsetInCU: 0x43D75, offset: 0x43D75, size: 0x8, addend: 0x0, symName: __ZNSt3__19allocatorINS_11__tree_nodeINS_12__value_typeIiNS_3mapINS_12basic_stringIcNS_11char_traitsIcEENS0_IcEEEEiNS_4lessIS8_EENS0_INS_4pairIKS8_iEEEEEEEEPvEEEC2B8ue170006Ev, symObjAddr: 0x1B614, symBinAddr: 0x10001E7CC, symSize: 0x2C }
  - { offsetInCU: 0x43D9F, offset: 0x43D9F, size: 0x8, addend: 0x0, symName: __ZNSt3__116__non_trivial_ifILb1ENS_9allocatorINS_11__tree_nodeINS_12__value_typeIiNS_3mapINS_12basic_stringIcNS_11char_traitsIcEENS1_IcEEEEiNS_4lessIS9_EENS1_INS_4pairIKS9_iEEEEEEEEPvEEEEEC2B8ue170006Ev, symObjAddr: 0x1B640, symBinAddr: 0x10001E7F8, symSize: 0x14 }
  - { offsetInCU: 0x43DC9, offset: 0x43DC9, size: 0x8, addend: 0x0, symName: __ZNSt3__117__compressed_pairImNS_19__map_value_compareIiNS_12__value_typeIiNS_3mapINS_12basic_stringIcNS_11char_traitsIcEENS_9allocatorIcEEEEiNS_4lessIS9_EENS7_INS_4pairIKS9_iEEEEEEEENSA_IiEELb1EEEEC2B8ue170006IiRKSJ_EEOT_OT0_, symObjAddr: 0x1B654, symBinAddr: 0x10001E80C, symSize: 0x44 }
  - { offsetInCU: 0x43E21, offset: 0x43E21, size: 0x8, addend: 0x0, symName: __ZNSt3__122__compressed_pair_elemINS_19__map_value_compareIiNS_12__value_typeIiNS_3mapINS_12basic_stringIcNS_11char_traitsIcEENS_9allocatorIcEEEEiNS_4lessIS9_EENS7_INS_4pairIKS9_iEEEEEEEENSA_IiEELb1EEELi1ELb1EEC2B8ue170006IRKSJ_vEEOT_, symObjAddr: 0x1B698, symBinAddr: 0x10001E850, symSize: 0x18 }
  - { offsetInCU: 0x43E63, offset: 0x43E63, size: 0x8, addend: 0x0, symName: __ZNSt3__117__compressed_pairINS_15__tree_end_nodeIPNS_16__tree_node_baseIPvEEEENS_9allocatorINS_11__tree_nodeINS_12__value_typeIiNS_3mapINS_12basic_stringIcNS_11char_traitsIcEENS7_IcEEEEiNS_4lessISF_EENS7_INS_4pairIKSF_iEEEEEEEES3_EEEEE5firstB8ue170006Ev, symObjAddr: 0x1B6B0, symBinAddr: 0x10001E868, symSize: 0x24 }
  - { offsetInCU: 0x43E89, offset: 0x43E89, size: 0x8, addend: 0x0, symName: __ZNSt3__13mapIiNS0_INS_12basic_stringIcNS_11char_traitsIcEENS_9allocatorIcEEEEiNS_4lessIS6_EENS4_INS_4pairIKS6_iEEEEEENS7_IiEENS4_INS9_IKiSD_EEEEED2B8ue170006Ev, symObjAddr: 0x1B6D4, symBinAddr: 0x10001E88C, symSize: 0x2C }
  - { offsetInCU: 0x43EB3, offset: 0x43EB3, size: 0x8, addend: 0x0, symName: __ZNSt3__16__treeINS_12__value_typeIiNS_3mapINS_12basic_stringIcNS_11char_traitsIcEENS_9allocatorIcEEEEiNS_4lessIS8_EENS6_INS_4pairIKS8_iEEEEEEEENS_19__map_value_compareIiSG_NS9_IiEELb1EEENS6_ISG_EEED1Ev, symObjAddr: 0x1B700, symBinAddr: 0x10001E8B8, symSize: 0x2C }
  - { offsetInCU: 0x43EDF, offset: 0x43EDF, size: 0x8, addend: 0x0, symName: __ZNSt3__16__treeINS_12__value_typeIiNS_3mapINS_12basic_stringIcNS_11char_traitsIcEENS_9allocatorIcEEEEiNS_4lessIS8_EENS6_INS_4pairIKS8_iEEEEEEEENS_19__map_value_compareIiSG_NS9_IiEELb1EEENS6_ISG_EEED2Ev, symObjAddr: 0x1B72C, symBinAddr: 0x10001E8E4, symSize: 0x38 }
  - { offsetInCU: 0x43F0B, offset: 0x43F0B, size: 0x8, addend: 0x0, symName: __ZNSt3__16__treeINS_12__value_typeIiNS_3mapINS_12basic_stringIcNS_11char_traitsIcEENS_9allocatorIcEEEEiNS_4lessIS8_EENS6_INS_4pairIKS8_iEEEEEEEENS_19__map_value_compareIiSG_NS9_IiEELb1EEENS6_ISG_EEE7destroyEPNS_11__tree_nodeISG_PvEE, symObjAddr: 0x1B764, symBinAddr: 0x10001E91C, symSize: 0xAC }
  - { offsetInCU: 0x43F57, offset: 0x43F57, size: 0x8, addend: 0x0, symName: __ZNKSt3__16__treeINS_12__value_typeIiNS_3mapINS_12basic_stringIcNS_11char_traitsIcEENS_9allocatorIcEEEEiNS_4lessIS8_EENS6_INS_4pairIKS8_iEEEEEEEENS_19__map_value_compareIiSG_NS9_IiEELb1EEENS6_ISG_EEE6__rootB8ue170006Ev, symObjAddr: 0x1B810, symBinAddr: 0x10001E9C8, symSize: 0x28 }
  - { offsetInCU: 0x43F7D, offset: 0x43F7D, size: 0x8, addend: 0x0, symName: __ZNSt3__16__treeINS_12__value_typeIiNS_3mapINS_12basic_stringIcNS_11char_traitsIcEENS_9allocatorIcEEEEiNS_4lessIS8_EENS6_INS_4pairIKS8_iEEEEEEEENS_19__map_value_compareIiSG_NS9_IiEELb1EEENS6_ISG_EEE12__node_allocB8ue170006Ev, symObjAddr: 0x1B838, symBinAddr: 0x10001E9F0, symSize: 0x28 }
  - { offsetInCU: 0x43FA3, offset: 0x43FA3, size: 0x8, addend: 0x0, symName: __ZNSt3__116allocator_traitsINS_9allocatorINS_11__tree_nodeINS_12__value_typeIiNS_3mapINS_12basic_stringIcNS_11char_traitsIcEENS1_IcEEEEiNS_4lessIS9_EENS1_INS_4pairIKS9_iEEEEEEEEPvEEEEE7destroyB8ue170006INSC_IKiSG_EEvvEEvRSK_PT_, symObjAddr: 0x1B860, symBinAddr: 0x10001EA18, symSize: 0x28 }
  - { offsetInCU: 0x43FDE, offset: 0x43FDE, size: 0x8, addend: 0x0, symName: __ZNSt3__122__tree_key_value_typesINS_12__value_typeIiNS_3mapINS_12basic_stringIcNS_11char_traitsIcEENS_9allocatorIcEEEEiNS_4lessIS8_EENS6_INS_4pairIKS8_iEEEEEEEEE9__get_ptrB8ue170006ERSG_, symObjAddr: 0x1B888, symBinAddr: 0x10001EA40, symSize: 0x24 }
  - { offsetInCU: 0x44002, offset: 0x44002, size: 0x8, addend: 0x0, symName: __ZNSt3__116allocator_traitsINS_9allocatorINS_11__tree_nodeINS_12__value_typeIiNS_3mapINS_12basic_stringIcNS_11char_traitsIcEENS1_IcEEEEiNS_4lessIS9_EENS1_INS_4pairIKS9_iEEEEEEEEPvEEEEE10deallocateB8ue170006ERSK_PSJ_m, symObjAddr: 0x1B8AC, symBinAddr: 0x10001EA64, symSize: 0x34 }
  - { offsetInCU: 0x44044, offset: 0x44044, size: 0x8, addend: 0x0, symName: __ZNSt3__117__compressed_pairINS_15__tree_end_nodeIPNS_16__tree_node_baseIPvEEEENS_9allocatorINS_11__tree_nodeINS_12__value_typeIiNS_3mapINS_12basic_stringIcNS_11char_traitsIcEENS7_IcEEEEiNS_4lessISF_EENS7_INS_4pairIKSF_iEEEEEEEES3_EEEEE6secondB8ue170006Ev, symObjAddr: 0x1B8E0, symBinAddr: 0x10001EA98, symSize: 0x24 }
  - { offsetInCU: 0x4406A, offset: 0x4406A, size: 0x8, addend: 0x0, symName: __ZNSt3__122__compressed_pair_elemINS_9allocatorINS_11__tree_nodeINS_12__value_typeIiNS_3mapINS_12basic_stringIcNS_11char_traitsIcEENS1_IcEEEEiNS_4lessIS9_EENS1_INS_4pairIKS9_iEEEEEEEEPvEEEELi1ELb1EE5__getB8ue170006Ev, symObjAddr: 0x1B904, symBinAddr: 0x10001EABC, symSize: 0x14 }
  - { offsetInCU: 0x44090, offset: 0x44090, size: 0x8, addend: 0x0, symName: __ZNSt3__14pairIKiNS_3mapINS_12basic_stringIcNS_11char_traitsIcEENS_9allocatorIcEEEEiNS_4lessIS8_EENS6_INS0_IKS8_iEEEEEEED1Ev, symObjAddr: 0x1B960, symBinAddr: 0x10001EB18, symSize: 0x2C }
  - { offsetInCU: 0x440BC, offset: 0x440BC, size: 0x8, addend: 0x0, symName: __ZNSt3__14pairIKiNS_3mapINS_12basic_stringIcNS_11char_traitsIcEENS_9allocatorIcEEEEiNS_4lessIS8_EENS6_INS0_IKS8_iEEEEEEED2Ev, symObjAddr: 0x1B98C, symBinAddr: 0x10001EB44, symSize: 0x30 }
  - { offsetInCU: 0x440E8, offset: 0x440E8, size: 0x8, addend: 0x0, symName: __ZNSt3__13mapINS_12basic_stringIcNS_11char_traitsIcEENS_9allocatorIcEEEEiNS_4lessIS6_EENS4_INS_4pairIKS6_iEEEEED1B8ue170006Ev, symObjAddr: 0x1B9BC, symBinAddr: 0x10001EB74, symSize: 0x2C }
  - { offsetInCU: 0x44112, offset: 0x44112, size: 0x8, addend: 0x0, symName: __ZNSt3__13mapINS_12basic_stringIcNS_11char_traitsIcEENS_9allocatorIcEEEEiNS_4lessIS6_EENS4_INS_4pairIKS6_iEEEEED2B8ue170006Ev, symObjAddr: 0x1B9E8, symBinAddr: 0x10001EBA0, symSize: 0x2C }
  - { offsetInCU: 0x4413C, offset: 0x4413C, size: 0x8, addend: 0x0, symName: __ZNSt3__16__treeINS_12__value_typeINS_12basic_stringIcNS_11char_traitsIcEENS_9allocatorIcEEEEiEENS_19__map_value_compareIS7_S8_NS_4lessIS7_EELb1EEENS5_IS8_EEED1Ev, symObjAddr: 0x1BA14, symBinAddr: 0x10001EBCC, symSize: 0x2C }
  - { offsetInCU: 0x44168, offset: 0x44168, size: 0x8, addend: 0x0, symName: __ZNSt3__16__treeINS_12__value_typeINS_12basic_stringIcNS_11char_traitsIcEENS_9allocatorIcEEEEiEENS_19__map_value_compareIS7_S8_NS_4lessIS7_EELb1EEENS5_IS8_EEED2Ev, symObjAddr: 0x1BA40, symBinAddr: 0x10001EBF8, symSize: 0x38 }
  - { offsetInCU: 0x44194, offset: 0x44194, size: 0x8, addend: 0x0, symName: __ZNSt3__16__treeINS_12__value_typeINS_12basic_stringIcNS_11char_traitsIcEENS_9allocatorIcEEEEiEENS_19__map_value_compareIS7_S8_NS_4lessIS7_EELb1EEENS5_IS8_EEE7destroyEPNS_11__tree_nodeIS8_PvEE, symObjAddr: 0x1BA78, symBinAddr: 0x10001EC30, symSize: 0xAC }
  - { offsetInCU: 0x441E0, offset: 0x441E0, size: 0x8, addend: 0x0, symName: __ZNKSt3__16__treeINS_12__value_typeINS_12basic_stringIcNS_11char_traitsIcEENS_9allocatorIcEEEEiEENS_19__map_value_compareIS7_S8_NS_4lessIS7_EELb1EEENS5_IS8_EEE6__rootB8ue170006Ev, symObjAddr: 0x1BB24, symBinAddr: 0x10001ECDC, symSize: 0x28 }
  - { offsetInCU: 0x44206, offset: 0x44206, size: 0x8, addend: 0x0, symName: __ZNSt3__16__treeINS_12__value_typeINS_12basic_stringIcNS_11char_traitsIcEENS_9allocatorIcEEEEiEENS_19__map_value_compareIS7_S8_NS_4lessIS7_EELb1EEENS5_IS8_EEE12__node_allocB8ue170006Ev, symObjAddr: 0x1BB4C, symBinAddr: 0x10001ED04, symSize: 0x28 }
  - { offsetInCU: 0x4422C, offset: 0x4422C, size: 0x8, addend: 0x0, symName: __ZNSt3__116allocator_traitsINS_9allocatorINS_11__tree_nodeINS_12__value_typeINS_12basic_stringIcNS_11char_traitsIcEENS1_IcEEEEiEEPvEEEEE7destroyB8ue170006INS_4pairIKS8_iEEvvEEvRSC_PT_, symObjAddr: 0x1BB74, symBinAddr: 0x10001ED2C, symSize: 0x28 }
  - { offsetInCU: 0x44267, offset: 0x44267, size: 0x8, addend: 0x0, symName: __ZNSt3__122__tree_key_value_typesINS_12__value_typeINS_12basic_stringIcNS_11char_traitsIcEENS_9allocatorIcEEEEiEEE9__get_ptrB8ue170006ERS8_, symObjAddr: 0x1BB9C, symBinAddr: 0x10001ED54, symSize: 0x24 }
  - { offsetInCU: 0x4428B, offset: 0x4428B, size: 0x8, addend: 0x0, symName: __ZNSt3__116allocator_traitsINS_9allocatorINS_11__tree_nodeINS_12__value_typeINS_12basic_stringIcNS_11char_traitsIcEENS1_IcEEEEiEEPvEEEEE10deallocateB8ue170006ERSC_PSB_m, symObjAddr: 0x1BBC0, symBinAddr: 0x10001ED78, symSize: 0x34 }
  - { offsetInCU: 0x442CD, offset: 0x442CD, size: 0x8, addend: 0x0, symName: __ZNSt3__117__compressed_pairINS_15__tree_end_nodeIPNS_16__tree_node_baseIPvEEEENS_9allocatorINS_11__tree_nodeINS_12__value_typeINS_12basic_stringIcNS_11char_traitsIcEENS7_IcEEEEiEES3_EEEEE6secondB8ue170006Ev, symObjAddr: 0x1BBF4, symBinAddr: 0x10001EDAC, symSize: 0x24 }
  - { offsetInCU: 0x442F3, offset: 0x442F3, size: 0x8, addend: 0x0, symName: __ZNSt3__122__compressed_pair_elemINS_9allocatorINS_11__tree_nodeINS_12__value_typeINS_12basic_stringIcNS_11char_traitsIcEENS1_IcEEEEiEEPvEEEELi1ELb1EE5__getB8ue170006Ev, symObjAddr: 0x1BC18, symBinAddr: 0x10001EDD0, symSize: 0x14 }
  - { offsetInCU: 0x44319, offset: 0x44319, size: 0x8, addend: 0x0, symName: __ZNSt3__14pairIKNS_12basic_stringIcNS_11char_traitsIcEENS_9allocatorIcEEEEiED1Ev, symObjAddr: 0x1BC74, symBinAddr: 0x10001EE2C, symSize: 0x2C }
  - { offsetInCU: 0x44345, offset: 0x44345, size: 0x8, addend: 0x0, symName: __ZNSt3__14pairIKNS_12basic_stringIcNS_11char_traitsIcEENS_9allocatorIcEEEEiED2Ev, symObjAddr: 0x1BCA0, symBinAddr: 0x10001EE58, symSize: 0x2C }
  - { offsetInCU: 0x44371, offset: 0x44371, size: 0x8, addend: 0x0, symName: __ZNSt3__112__value_typeINS_12basic_stringIcNS_11char_traitsIcEENS_9allocatorIcEEEEiE11__get_valueB8ue170006Ev, symObjAddr: 0x1BCCC, symBinAddr: 0x10001EE84, symSize: 0x24 }
  - { offsetInCU: 0x44397, offset: 0x44397, size: 0x8, addend: 0x0, symName: __ZNSt3__19allocatorINS_11__tree_nodeINS_12__value_typeINS_12basic_stringIcNS_11char_traitsIcEENS0_IcEEEEiEEPvEEE10deallocateB8ue170006EPSA_m, symObjAddr: 0x1BD28, symBinAddr: 0x10001EEE0, symSize: 0x40 }
  - { offsetInCU: 0x443D9, offset: 0x443D9, size: 0x8, addend: 0x0, symName: __ZNKSt3__16__treeINS_12__value_typeINS_12basic_stringIcNS_11char_traitsIcEENS_9allocatorIcEEEEiEENS_19__map_value_compareIS7_S8_NS_4lessIS7_EELb1EEENS5_IS8_EEE10__end_nodeB8ue170006Ev, symObjAddr: 0x1BD68, symBinAddr: 0x10001EF20, symSize: 0x2C }
  - { offsetInCU: 0x443FF, offset: 0x443FF, size: 0x8, addend: 0x0, symName: __ZNKSt3__117__compressed_pairINS_15__tree_end_nodeIPNS_16__tree_node_baseIPvEEEENS_9allocatorINS_11__tree_nodeINS_12__value_typeINS_12basic_stringIcNS_11char_traitsIcEENS7_IcEEEEiEES3_EEEEE5firstB8ue170006Ev, symObjAddr: 0x1BD94, symBinAddr: 0x10001EF4C, symSize: 0x24 }
  - { offsetInCU: 0x44425, offset: 0x44425, size: 0x8, addend: 0x0, symName: __ZNSt3__112__value_typeIiNS_3mapINS_12basic_stringIcNS_11char_traitsIcEENS_9allocatorIcEEEEiNS_4lessIS7_EENS5_INS_4pairIKS7_iEEEEEEE11__get_valueB8ue170006Ev, symObjAddr: 0x1BDB8, symBinAddr: 0x10001EF70, symSize: 0x24 }
  - { offsetInCU: 0x4444B, offset: 0x4444B, size: 0x8, addend: 0x0, symName: __ZNSt3__19allocatorINS_11__tree_nodeINS_12__value_typeIiNS_3mapINS_12basic_stringIcNS_11char_traitsIcEENS0_IcEEEEiNS_4lessIS8_EENS0_INS_4pairIKS8_iEEEEEEEEPvEEE10deallocateB8ue170006EPSI_m, symObjAddr: 0x1BE14, symBinAddr: 0x10001EFCC, symSize: 0x40 }
  - { offsetInCU: 0x4448D, offset: 0x4448D, size: 0x8, addend: 0x0, symName: __ZNKSt3__16__treeINS_12__value_typeIiNS_3mapINS_12basic_stringIcNS_11char_traitsIcEENS_9allocatorIcEEEEiNS_4lessIS8_EENS6_INS_4pairIKS8_iEEEEEEEENS_19__map_value_compareIiSG_NS9_IiEELb1EEENS6_ISG_EEE10__end_nodeB8ue170006Ev, symObjAddr: 0x1BE54, symBinAddr: 0x10001F00C, symSize: 0x2C }
  - { offsetInCU: 0x444B3, offset: 0x444B3, size: 0x8, addend: 0x0, symName: __ZNKSt3__117__compressed_pairINS_15__tree_end_nodeIPNS_16__tree_node_baseIPvEEEENS_9allocatorINS_11__tree_nodeINS_12__value_typeIiNS_3mapINS_12basic_stringIcNS_11char_traitsIcEENS7_IcEEEEiNS_4lessISF_EENS7_INS_4pairIKSF_iEEEEEEEES3_EEEEE5firstB8ue170006Ev, symObjAddr: 0x1BE80, symBinAddr: 0x10001F038, symSize: 0x24 }
  - { offsetInCU: 0x444D9, offset: 0x444D9, size: 0x8, addend: 0x0, symName: __ZNKSt3__16__treeINS_12__value_typeIiNS_6vectorINS_12basic_stringIcNS_11char_traitsIcEENS_9allocatorIcEEEENS6_IS8_EEEEEENS_19__map_value_compareIiSB_NS_4lessIiEELb1EEENS6_ISB_EEE4findIiEENS_21__tree_const_iteratorISB_PNS_11__tree_nodeISB_PvEElEERKT_, symObjAddr: 0x1BEA4, symBinAddr: 0x10001F05C, symSize: 0xF8 }
  - { offsetInCU: 0x44528, offset: 0x44528, size: 0x8, addend: 0x0, symName: __ZNSt3__120__map_const_iteratorINS_21__tree_const_iteratorINS_12__value_typeIiNS_6vectorINS_12basic_stringIcNS_11char_traitsIcEENS_9allocatorIcEEEENS7_IS9_EEEEEEPNS_11__tree_nodeISC_PvEElEEEC1B8ue170006ESH_, symObjAddr: 0x1BF9C, symBinAddr: 0x10001F154, symSize: 0x34 }
  - { offsetInCU: 0x44561, offset: 0x44561, size: 0x8, addend: 0x0, symName: __ZNKSt3__16__treeINS_12__value_typeIiNS_6vectorINS_12basic_stringIcNS_11char_traitsIcEENS_9allocatorIcEEEENS6_IS8_EEEEEENS_19__map_value_compareIiSB_NS_4lessIiEELb1EEENS6_ISB_EEE13__lower_boundIiEENS_21__tree_const_iteratorISB_PNS_11__tree_nodeISB_PvEElEERKT_SN_PNS_15__tree_end_nodeIPNS_16__tree_node_baseISL_EEEE, symObjAddr: 0x1BFD0, symBinAddr: 0x10001F188, symSize: 0xA4 }
  - { offsetInCU: 0x445BF, offset: 0x445BF, size: 0x8, addend: 0x0, symName: __ZNKSt3__16__treeINS_12__value_typeIiNS_6vectorINS_12basic_stringIcNS_11char_traitsIcEENS_9allocatorIcEEEENS6_IS8_EEEEEENS_19__map_value_compareIiSB_NS_4lessIiEELb1EEENS6_ISB_EEE3endB8ue170006Ev, symObjAddr: 0x1C0A8, symBinAddr: 0x10001F260, symSize: 0x34 }
  - { offsetInCU: 0x445E5, offset: 0x445E5, size: 0x8, addend: 0x0, symName: __ZNKSt3__16__treeINS_12__value_typeIiNS_6vectorINS_12basic_stringIcNS_11char_traitsIcEENS_9allocatorIcEEEENS6_IS8_EEEEEENS_19__map_value_compareIiSB_NS_4lessIiEELb1EEENS6_ISB_EEE10value_compB8ue170006Ev, symObjAddr: 0x1C0DC, symBinAddr: 0x10001F294, symSize: 0x28 }
  - { offsetInCU: 0x4460B, offset: 0x4460B, size: 0x8, addend: 0x0, symName: __ZNKSt3__121__tree_const_iteratorINS_12__value_typeIiNS_6vectorINS_12basic_stringIcNS_11char_traitsIcEENS_9allocatorIcEEEENS6_IS8_EEEEEEPNS_11__tree_nodeISB_PvEElEdeB8ue170006Ev, symObjAddr: 0x1C104, symBinAddr: 0x10001F2BC, symSize: 0x28 }
  - { offsetInCU: 0x44631, offset: 0x44631, size: 0x8, addend: 0x0, symName: __ZNSt3__121__tree_const_iteratorINS_12__value_typeIiNS_6vectorINS_12basic_stringIcNS_11char_traitsIcEENS_9allocatorIcEEEENS6_IS8_EEEEEEPNS_11__tree_nodeISB_PvEElEC1B8ue170006EPNS_15__tree_end_nodeIPNS_16__tree_node_baseISD_EEEE, symObjAddr: 0x1C12C, symBinAddr: 0x10001F2E4, symSize: 0x34 }
  - { offsetInCU: 0x4466A, offset: 0x4466A, size: 0x8, addend: 0x0, symName: __ZNSt3__121__tree_const_iteratorINS_12__value_typeIiNS_6vectorINS_12basic_stringIcNS_11char_traitsIcEENS_9allocatorIcEEEENS6_IS8_EEEEEEPNS_11__tree_nodeISB_PvEElEC2B8ue170006EPNS_15__tree_end_nodeIPNS_16__tree_node_baseISD_EEEE, symObjAddr: 0x1C160, symBinAddr: 0x10001F318, symSize: 0x20 }
  - { offsetInCU: 0x446A3, offset: 0x446A3, size: 0x8, addend: 0x0, symName: __ZNKSt3__117__compressed_pairImNS_19__map_value_compareIiNS_12__value_typeIiNS_6vectorINS_12basic_stringIcNS_11char_traitsIcEENS_9allocatorIcEEEENS7_IS9_EEEEEENS_4lessIiEELb1EEEE6secondB8ue170006Ev, symObjAddr: 0x1C1B0, symBinAddr: 0x10001F368, symSize: 0x24 }
  - { offsetInCU: 0x446C9, offset: 0x446C9, size: 0x8, addend: 0x0, symName: __ZNKSt3__122__compressed_pair_elemINS_19__map_value_compareIiNS_12__value_typeIiNS_6vectorINS_12basic_stringIcNS_11char_traitsIcEENS_9allocatorIcEEEENS7_IS9_EEEEEENS_4lessIiEELb1EEELi1ELb1EE5__getB8ue170006Ev, symObjAddr: 0x1C1D4, symBinAddr: 0x10001F38C, symSize: 0x14 }
  - { offsetInCU: 0x446EF, offset: 0x446EF, size: 0x8, addend: 0x0, symName: __ZNKSt3__121__tree_const_iteratorINS_12__value_typeIiNS_6vectorINS_12basic_stringIcNS_11char_traitsIcEENS_9allocatorIcEEEENS6_IS8_EEEEEEPNS_11__tree_nodeISB_PvEElE8__get_npB8ue170006Ev, symObjAddr: 0x1C1E8, symBinAddr: 0x10001F3A0, symSize: 0x18 }
  - { offsetInCU: 0x44715, offset: 0x44715, size: 0x8, addend: 0x0, symName: __ZNSt3__120__map_const_iteratorINS_21__tree_const_iteratorINS_12__value_typeIiNS_6vectorINS_12basic_stringIcNS_11char_traitsIcEENS_9allocatorIcEEEENS7_IS9_EEEEEEPNS_11__tree_nodeISC_PvEElEEEC2B8ue170006ESH_, symObjAddr: 0x1C200, symBinAddr: 0x10001F3B8, symSize: 0x20 }
  - { offsetInCU: 0x4474E, offset: 0x4474E, size: 0x8, addend: 0x0, symName: __ZNKSt3__16__treeINS_12__value_typeIiNS_6vectorINS_12basic_stringIcNS_11char_traitsIcEENS_9allocatorIcEEEENS6_IS8_EEEEEENS_19__map_value_compareIiSB_NS_4lessIiEELb1EEENS6_ISB_EEE12__find_equalB8ue170006IiEERPNS_16__tree_node_baseIPvEERPNS_15__tree_end_nodeISM_EERKT_, symObjAddr: 0x1C220, symBinAddr: 0x10001F3D8, symSize: 0x34 }
  - { offsetInCU: 0x4479B, offset: 0x4479B, size: 0x8, addend: 0x0, symName: __ZNSt12out_of_rangeC1B8ue170006EPKc, symObjAddr: 0x1C2B8, symBinAddr: 0x10001F470, symSize: 0x34 }
  - { offsetInCU: 0x447D3, offset: 0x447D3, size: 0x8, addend: 0x0, symName: __ZNSt12out_of_rangeC2B8ue170006EPKc, symObjAddr: 0x1C2EC, symBinAddr: 0x10001F4A4, symSize: 0x4C }
  - { offsetInCU: 0x4480B, offset: 0x4480B, size: 0x8, addend: 0x0, symName: __ZNSt3__16__treeINS_12__value_typeIiNS_3mapINS_12basic_stringIcNS_11char_traitsIcEENS_9allocatorIcEEEEiNS_4lessIS8_EENS6_INS_4pairIKS8_iEEEEEEEENS_19__map_value_compareIiSG_NS9_IiEELb1EEENS6_ISG_EEE25__emplace_unique_key_argsIiJRKNS_21piecewise_construct_tENS_5tupleIJRKiEEENSQ_IJEEEEEENSB_INS_15__tree_iteratorISG_PNS_11__tree_nodeISG_PvEElEEbEERKT_DpOT0_, symObjAddr: 0x1C338, symBinAddr: 0x10001F4F0, symSize: 0x100 }
  - { offsetInCU: 0x448E1, offset: 0x448E1, size: 0x8, addend: 0x0, symName: __ZNKSt3__115__tree_iteratorINS_12__value_typeIiNS_3mapINS_12basic_stringIcNS_11char_traitsIcEENS_9allocatorIcEEEEiNS_4lessIS8_EENS6_INS_4pairIKS8_iEEEEEEEEPNS_11__tree_nodeISG_PvEElEptB8ue170006Ev, symObjAddr: 0x1C438, symBinAddr: 0x10001F5F0, symSize: 0x2C }
  - { offsetInCU: 0x44907, offset: 0x44907, size: 0x8, addend: 0x0, symName: __ZNSt3__16__treeINS_12__value_typeIiNS_3mapINS_12basic_stringIcNS_11char_traitsIcEENS_9allocatorIcEEEEiNS_4lessIS8_EENS6_INS_4pairIKS8_iEEEEEEEENS_19__map_value_compareIiSG_NS9_IiEELb1EEENS6_ISG_EEE12__find_equalIiEERPNS_16__tree_node_baseIPvEERPNS_15__tree_end_nodeISQ_EERKT_, symObjAddr: 0x1C464, symBinAddr: 0x10001F61C, symSize: 0x184 }
  - { offsetInCU: 0x44974, offset: 0x44974, size: 0x8, addend: 0x0, symName: __ZNSt3__16__treeINS_12__value_typeIiNS_3mapINS_12basic_stringIcNS_11char_traitsIcEENS_9allocatorIcEEEEiNS_4lessIS8_EENS6_INS_4pairIKS8_iEEEEEEEENS_19__map_value_compareIiSG_NS9_IiEELb1EEENS6_ISG_EEE16__construct_nodeIJRKNS_21piecewise_construct_tENS_5tupleIJRKiEEENSQ_IJEEEEEENS_10unique_ptrINS_11__tree_nodeISG_PvEENS_22__tree_node_destructorINS6_ISY_EEEEEEDpOT_, symObjAddr: 0x1C5E8, symBinAddr: 0x10001F7A0, symSize: 0x120 }
  - { offsetInCU: 0x449FD, offset: 0x449FD, size: 0x8, addend: 0x0, symName: __ZNSt3__16__treeINS_12__value_typeIiNS_3mapINS_12basic_stringIcNS_11char_traitsIcEENS_9allocatorIcEEEEiNS_4lessIS8_EENS6_INS_4pairIKS8_iEEEEEEEENS_19__map_value_compareIiSG_NS9_IiEELb1EEENS6_ISG_EEE16__insert_node_atEPNS_15__tree_end_nodeIPNS_16__tree_node_baseIPvEEEERSQ_SQ_, symObjAddr: 0x1C708, symBinAddr: 0x10001F8C0, symSize: 0xCC }
  - { offsetInCU: 0x44A52, offset: 0x44A52, size: 0x8, addend: 0x0, symName: __ZNKSt3__110unique_ptrINS_11__tree_nodeINS_12__value_typeIiNS_3mapINS_12basic_stringIcNS_11char_traitsIcEENS_9allocatorIcEEEEiNS_4lessIS9_EENS7_INS_4pairIKS9_iEEEEEEEEPvEENS_22__tree_node_destructorINS7_ISJ_EEEEE3getB8ue170006Ev, symObjAddr: 0x1C7D4, symBinAddr: 0x10001F98C, symSize: 0x28 }
  - { offsetInCU: 0x44A78, offset: 0x44A78, size: 0x8, addend: 0x0, symName: __ZNSt3__110unique_ptrINS_11__tree_nodeINS_12__value_typeIiNS_3mapINS_12basic_stringIcNS_11char_traitsIcEENS_9allocatorIcEEEEiNS_4lessIS9_EENS7_INS_4pairIKS9_iEEEEEEEEPvEENS_22__tree_node_destructorINS7_ISJ_EEEEE7releaseB8ue170006Ev, symObjAddr: 0x1C7FC, symBinAddr: 0x10001F9B4, symSize: 0x44 }
  - { offsetInCU: 0x44AAD, offset: 0x44AAD, size: 0x8, addend: 0x0, symName: __ZNSt3__110unique_ptrINS_11__tree_nodeINS_12__value_typeIiNS_3mapINS_12basic_stringIcNS_11char_traitsIcEENS_9allocatorIcEEEEiNS_4lessIS9_EENS7_INS_4pairIKS9_iEEEEEEEEPvEENS_22__tree_node_destructorINS7_ISJ_EEEEED1B8ue170006Ev, symObjAddr: 0x1C840, symBinAddr: 0x10001F9F8, symSize: 0x2C }
  - { offsetInCU: 0x44AD7, offset: 0x44AD7, size: 0x8, addend: 0x0, symName: __ZNSt3__115__tree_iteratorINS_12__value_typeIiNS_3mapINS_12basic_stringIcNS_11char_traitsIcEENS_9allocatorIcEEEEiNS_4lessIS8_EENS6_INS_4pairIKS8_iEEEEEEEEPNS_11__tree_nodeISG_PvEElEC1B8ue170006ESK_, symObjAddr: 0x1C86C, symBinAddr: 0x10001FA24, symSize: 0x34 }
  - { offsetInCU: 0x44B16, offset: 0x44B16, size: 0x8, addend: 0x0, symName: __ZNSt3__14pairINS_15__tree_iteratorINS_12__value_typeIiNS_3mapINS_12basic_stringIcNS_11char_traitsIcEENS_9allocatorIcEEEEiNS_4lessIS9_EENS7_INS0_IKS9_iEEEEEEEEPNS_11__tree_nodeISG_PvEElEEbEC1B8ue170006ISL_RbLSI_0EEEOT_OT0_, symObjAddr: 0x1C8A0, symBinAddr: 0x10001FA58, symSize: 0x3C }
  - { offsetInCU: 0x44B74, offset: 0x44B74, size: 0x8, addend: 0x0, symName: __ZNKSt3__16__treeINS_12__value_typeIiNS_3mapINS_12basic_stringIcNS_11char_traitsIcEENS_9allocatorIcEEEEiNS_4lessIS8_EENS6_INS_4pairIKS8_iEEEEEEEENS_19__map_value_compareIiSG_NS9_IiEELb1EEENS6_ISG_EEE10__root_ptrB8ue170006Ev, symObjAddr: 0x1C8DC, symBinAddr: 0x10001FA94, symSize: 0x24 }
  - { offsetInCU: 0x44B9A, offset: 0x44B9A, size: 0x8, addend: 0x0, symName: __ZNSt3__16__treeINS_12__value_typeIiNS_3mapINS_12basic_stringIcNS_11char_traitsIcEENS_9allocatorIcEEEEiNS_4lessIS8_EENS6_INS_4pairIKS8_iEEEEEEEENS_19__map_value_compareIiSG_NS9_IiEELb1EEENS6_ISG_EEE10value_compB8ue170006Ev, symObjAddr: 0x1C900, symBinAddr: 0x10001FAB8, symSize: 0x28 }
  - { offsetInCU: 0x44BC0, offset: 0x44BC0, size: 0x8, addend: 0x0, symName: __ZNKSt3__119__map_value_compareIiNS_12__value_typeIiNS_3mapINS_12basic_stringIcNS_11char_traitsIcEENS_9allocatorIcEEEEiNS_4lessIS8_EENS6_INS_4pairIKS8_iEEEEEEEENS9_IiEELb1EEclB8ue170006ERKiRKSG_, symObjAddr: 0x1C928, symBinAddr: 0x10001FAE0, symSize: 0x50 }
  - { offsetInCU: 0x44C04, offset: 0x44C04, size: 0x8, addend: 0x0, symName: __ZNKSt3__119__map_value_compareIiNS_12__value_typeIiNS_3mapINS_12basic_stringIcNS_11char_traitsIcEENS_9allocatorIcEEEEiNS_4lessIS8_EENS6_INS_4pairIKS8_iEEEEEEEENS9_IiEELb1EEclB8ue170006ERKSG_RKi, symObjAddr: 0x1C978, symBinAddr: 0x10001FB30, symSize: 0x48 }
  - { offsetInCU: 0x44C48, offset: 0x44C48, size: 0x8, addend: 0x0, symName: __ZNSt3__117__compressed_pairImNS_19__map_value_compareIiNS_12__value_typeIiNS_3mapINS_12basic_stringIcNS_11char_traitsIcEENS_9allocatorIcEEEEiNS_4lessIS9_EENS7_INS_4pairIKS9_iEEEEEEEENSA_IiEELb1EEEE6secondB8ue170006Ev, symObjAddr: 0x1C9C0, symBinAddr: 0x10001FB78, symSize: 0x24 }
  - { offsetInCU: 0x44C6E, offset: 0x44C6E, size: 0x8, addend: 0x0, symName: __ZNSt3__122__compressed_pair_elemINS_19__map_value_compareIiNS_12__value_typeIiNS_3mapINS_12basic_stringIcNS_11char_traitsIcEENS_9allocatorIcEEEEiNS_4lessIS9_EENS7_INS_4pairIKS9_iEEEEEEEENSA_IiEELb1EEELi1ELb1EE5__getB8ue170006Ev, symObjAddr: 0x1C9E4, symBinAddr: 0x10001FB9C, symSize: 0x14 }
  - { offsetInCU: 0x44C94, offset: 0x44C94, size: 0x8, addend: 0x0, symName: __ZNKSt3__112__value_typeIiNS_3mapINS_12basic_stringIcNS_11char_traitsIcEENS_9allocatorIcEEEEiNS_4lessIS7_EENS5_INS_4pairIKS7_iEEEEEEE11__get_valueB8ue170006Ev, symObjAddr: 0x1C9F8, symBinAddr: 0x10001FBB0, symSize: 0x24 }
  - { offsetInCU: 0x44CBA, offset: 0x44CBA, size: 0x8, addend: 0x0, symName: __ZNSt3__116allocator_traitsINS_9allocatorINS_11__tree_nodeINS_12__value_typeIiNS_3mapINS_12basic_stringIcNS_11char_traitsIcEENS1_IcEEEEiNS_4lessIS9_EENS1_INS_4pairIKS9_iEEEEEEEEPvEEEEE8allocateB8ue170006ERSK_m, symObjAddr: 0x1CA54, symBinAddr: 0x10001FC0C, symSize: 0x2C }
  - { offsetInCU: 0x44CED, offset: 0x44CED, size: 0x8, addend: 0x0, symName: __ZNSt3__122__tree_node_destructorINS_9allocatorINS_11__tree_nodeINS_12__value_typeIiNS_3mapINS_12basic_stringIcNS_11char_traitsIcEENS1_IcEEEEiNS_4lessIS9_EENS1_INS_4pairIKS9_iEEEEEEEEPvEEEEEC1B8ue170006ERSK_b, symObjAddr: 0x1CA80, symBinAddr: 0x10001FC38, symSize: 0x48 }
  - { offsetInCU: 0x44D3B, offset: 0x44D3B, size: 0x8, addend: 0x0, symName: __ZNSt3__110unique_ptrINS_11__tree_nodeINS_12__value_typeIiNS_3mapINS_12basic_stringIcNS_11char_traitsIcEENS_9allocatorIcEEEEiNS_4lessIS9_EENS7_INS_4pairIKS9_iEEEEEEEEPvEENS_22__tree_node_destructorINS7_ISJ_EEEEEC1B8ue170006ILb1EvEEPSJ_NS_16__dependent_typeINS_27__unique_ptr_deleter_sfinaeISM_EEXT_EE20__good_rval_ref_typeE, symObjAddr: 0x1CAC8, symBinAddr: 0x10001FC80, symSize: 0x3C }
  - { offsetInCU: 0x44D8C, offset: 0x44D8C, size: 0x8, addend: 0x0, symName: __ZNSt3__116allocator_traitsINS_9allocatorINS_11__tree_nodeINS_12__value_typeIiNS_3mapINS_12basic_stringIcNS_11char_traitsIcEENS1_IcEEEEiNS_4lessIS9_EENS1_INS_4pairIKS9_iEEEEEEEEPvEEEEE9constructB8ue170006INSC_IKiSG_EEJRKNS_21piecewise_construct_tENS_5tupleIJRSN_EEENSS_IJEEEEvvEEvRSK_PT_DpOT0_, symObjAddr: 0x1CB04, symBinAddr: 0x10001FCBC, symSize: 0x40 }
  - { offsetInCU: 0x44E09, offset: 0x44E09, size: 0x8, addend: 0x0, symName: __ZNKSt3__110unique_ptrINS_11__tree_nodeINS_12__value_typeIiNS_3mapINS_12basic_stringIcNS_11char_traitsIcEENS_9allocatorIcEEEEiNS_4lessIS9_EENS7_INS_4pairIKS9_iEEEEEEEEPvEENS_22__tree_node_destructorINS7_ISJ_EEEEEptB8ue170006Ev, symObjAddr: 0x1CB44, symBinAddr: 0x10001FCFC, symSize: 0x28 }
  - { offsetInCU: 0x44E2F, offset: 0x44E2F, size: 0x8, addend: 0x0, symName: __ZNSt3__110unique_ptrINS_11__tree_nodeINS_12__value_typeIiNS_3mapINS_12basic_stringIcNS_11char_traitsIcEENS_9allocatorIcEEEEiNS_4lessIS9_EENS7_INS_4pairIKS9_iEEEEEEEEPvEENS_22__tree_node_destructorINS7_ISJ_EEEEE11get_deleterB8ue170006Ev, symObjAddr: 0x1CB6C, symBinAddr: 0x10001FD24, symSize: 0x24 }
  - { offsetInCU: 0x44E55, offset: 0x44E55, size: 0x8, addend: 0x0, symName: __ZNSt3__19allocatorINS_11__tree_nodeINS_12__value_typeIiNS_3mapINS_12basic_stringIcNS_11char_traitsIcEENS0_IcEEEEiNS_4lessIS8_EENS0_INS_4pairIKS8_iEEEEEEEEPvEEE8allocateB8ue170006Em, symObjAddr: 0x1CB90, symBinAddr: 0x10001FD48, symSize: 0x58 }
  - { offsetInCU: 0x44E94, offset: 0x44E94, size: 0x8, addend: 0x0, symName: __ZNSt3__116allocator_traitsINS_9allocatorINS_11__tree_nodeINS_12__value_typeIiNS_3mapINS_12basic_stringIcNS_11char_traitsIcEENS1_IcEEEEiNS_4lessIS9_EENS1_INS_4pairIKS9_iEEEEEEEEPvEEEEE8max_sizeB8ue170006ISK_vvEEmRKSK_, symObjAddr: 0x1CBE8, symBinAddr: 0x10001FDA0, symSize: 0x28 }
  - { offsetInCU: 0x44EC0, offset: 0x44EC0, size: 0x8, addend: 0x0, symName: __ZNSt3__122__tree_node_destructorINS_9allocatorINS_11__tree_nodeINS_12__value_typeIiNS_3mapINS_12basic_stringIcNS_11char_traitsIcEENS1_IcEEEEiNS_4lessIS9_EENS1_INS_4pairIKS9_iEEEEEEEEPvEEEEEC2B8ue170006ERSK_b, symObjAddr: 0x1CC10, symBinAddr: 0x10001FDC8, symSize: 0x38 }
  - { offsetInCU: 0x44F08, offset: 0x44F08, size: 0x8, addend: 0x0, symName: __ZNSt3__110unique_ptrINS_11__tree_nodeINS_12__value_typeIiNS_3mapINS_12basic_stringIcNS_11char_traitsIcEENS_9allocatorIcEEEEiNS_4lessIS9_EENS7_INS_4pairIKS9_iEEEEEEEEPvEENS_22__tree_node_destructorINS7_ISJ_EEEEEC2B8ue170006ILb1EvEEPSJ_NS_16__dependent_typeINS_27__unique_ptr_deleter_sfinaeISM_EEXT_EE20__good_rval_ref_typeE, symObjAddr: 0x1CC48, symBinAddr: 0x10001FE00, symSize: 0x48 }
  - { offsetInCU: 0x44F59, offset: 0x44F59, size: 0x8, addend: 0x0, symName: __ZNSt3__117__compressed_pairIPNS_11__tree_nodeINS_12__value_typeIiNS_3mapINS_12basic_stringIcNS_11char_traitsIcEENS_9allocatorIcEEEEiNS_4lessIS9_EENS7_INS_4pairIKS9_iEEEEEEEEPvEENS_22__tree_node_destructorINS7_ISJ_EEEEEC1B8ue170006IRSK_SN_EEOT_OT0_, symObjAddr: 0x1CC90, symBinAddr: 0x10001FE48, symSize: 0x3C }
  - { offsetInCU: 0x44FB1, offset: 0x44FB1, size: 0x8, addend: 0x0, symName: __ZNSt3__117__compressed_pairIPNS_11__tree_nodeINS_12__value_typeIiNS_3mapINS_12basic_stringIcNS_11char_traitsIcEENS_9allocatorIcEEEEiNS_4lessIS9_EENS7_INS_4pairIKS9_iEEEEEEEEPvEENS_22__tree_node_destructorINS7_ISJ_EEEEEC2B8ue170006IRSK_SN_EEOT_OT0_, symObjAddr: 0x1CCCC, symBinAddr: 0x10001FE84, symSize: 0x48 }
  - { offsetInCU: 0x45009, offset: 0x45009, size: 0x8, addend: 0x0, symName: __ZNSt3__122__compressed_pair_elemIPNS_11__tree_nodeINS_12__value_typeIiNS_3mapINS_12basic_stringIcNS_11char_traitsIcEENS_9allocatorIcEEEEiNS_4lessIS9_EENS7_INS_4pairIKS9_iEEEEEEEEPvEELi0ELb0EEC2B8ue170006IRSK_vEEOT_, symObjAddr: 0x1CD14, symBinAddr: 0x10001FECC, symSize: 0x24 }
  - { offsetInCU: 0x4504B, offset: 0x4504B, size: 0x8, addend: 0x0, symName: __ZNSt3__122__compressed_pair_elemINS_22__tree_node_destructorINS_9allocatorINS_11__tree_nodeINS_12__value_typeIiNS_3mapINS_12basic_stringIcNS_11char_traitsIcEENS2_IcEEEEiNS_4lessISA_EENS2_INS_4pairIKSA_iEEEEEEEEPvEEEEEELi1ELb0EEC2B8ue170006ISM_vEEOT_, symObjAddr: 0x1CD38, symBinAddr: 0x10001FEF0, symSize: 0x24 }
  - { offsetInCU: 0x4508D, offset: 0x4508D, size: 0x8, addend: 0x0, symName: __ZNSt3__14pairIKiNS_3mapINS_12basic_stringIcNS_11char_traitsIcEENS_9allocatorIcEEEEiNS_4lessIS8_EENS6_INS0_IKS8_iEEEEEEEC1B8ue170006IJRS1_EJEEENS_21piecewise_construct_tENS_5tupleIJDpT_EEENSJ_IJDpT0_EEE, symObjAddr: 0x1CDAC, symBinAddr: 0x10001FF64, symSize: 0x44 }
  - { offsetInCU: 0x450F4, offset: 0x450F4, size: 0x8, addend: 0x0, symName: __ZNSt3__14pairIKiNS_3mapINS_12basic_stringIcNS_11char_traitsIcEENS_9allocatorIcEEEEiNS_4lessIS8_EENS6_INS0_IKS8_iEEEEEEEC1B8ue170006IJRS1_EJEJLm0EEJEEENS_21piecewise_construct_tERNS_5tupleIJDpT_EEERNSJ_IJDpT0_EEENS_15__tuple_indicesIJXspT1_EEEENSS_IJXspT2_EEEE, symObjAddr: 0x1CDF0, symBinAddr: 0x10001FFA8, symSize: 0x3C }
  - { offsetInCU: 0x45184, offset: 0x45184, size: 0x8, addend: 0x0, symName: __ZNSt3__14pairIKiNS_3mapINS_12basic_stringIcNS_11char_traitsIcEENS_9allocatorIcEEEEiNS_4lessIS8_EENS6_INS0_IKS8_iEEEEEEEC2B8ue170006IJRS1_EJEJLm0EEJEEENS_21piecewise_construct_tERNS_5tupleIJDpT_EEERNSJ_IJDpT0_EEENS_15__tuple_indicesIJXspT1_EEEENSS_IJXspT2_EEEE, symObjAddr: 0x1CE2C, symBinAddr: 0x10001FFE4, symSize: 0x4C }
  - { offsetInCU: 0x45214, offset: 0x45214, size: 0x8, addend: 0x0, symName: __ZNSt3__13mapINS_12basic_stringIcNS_11char_traitsIcEENS_9allocatorIcEEEEiNS_4lessIS6_EENS4_INS_4pairIKS6_iEEEEEC1B8ue170006Ev, symObjAddr: 0x1CE78, symBinAddr: 0x100020030, symSize: 0x2C }
  - { offsetInCU: 0x4523E, offset: 0x4523E, size: 0x8, addend: 0x0, symName: __ZNSt3__13mapINS_12basic_stringIcNS_11char_traitsIcEENS_9allocatorIcEEEEiNS_4lessIS6_EENS4_INS_4pairIKS6_iEEEEEC2B8ue170006Ev, symObjAddr: 0x1CEA4, symBinAddr: 0x10002005C, symSize: 0x40 }
  - { offsetInCU: 0x45268, offset: 0x45268, size: 0x8, addend: 0x0, symName: __ZNSt3__119__map_value_compareINS_12basic_stringIcNS_11char_traitsIcEENS_9allocatorIcEEEENS_12__value_typeIS6_iEENS_4lessIS6_EELb1EEC1B8ue170006ESA_, symObjAddr: 0x1CEE4, symBinAddr: 0x10002009C, symSize: 0x2C }
  - { offsetInCU: 0x452A1, offset: 0x452A1, size: 0x8, addend: 0x0, symName: __ZNSt3__16__treeINS_12__value_typeINS_12basic_stringIcNS_11char_traitsIcEENS_9allocatorIcEEEEiEENS_19__map_value_compareIS7_S8_NS_4lessIS7_EELb1EEENS5_IS8_EEEC1ERKSC_, symObjAddr: 0x1CF10, symBinAddr: 0x1000200C8, symSize: 0x34 }
  - { offsetInCU: 0x452DC, offset: 0x452DC, size: 0x8, addend: 0x0, symName: __ZNSt3__119__map_value_compareINS_12basic_stringIcNS_11char_traitsIcEENS_9allocatorIcEEEENS_12__value_typeIS6_iEENS_4lessIS6_EELb1EEC2B8ue170006ESA_, symObjAddr: 0x1CF44, symBinAddr: 0x1000200FC, symSize: 0x14 }
  - { offsetInCU: 0x45315, offset: 0x45315, size: 0x8, addend: 0x0, symName: __ZNSt3__16__treeINS_12__value_typeINS_12basic_stringIcNS_11char_traitsIcEENS_9allocatorIcEEEEiEENS_19__map_value_compareIS7_S8_NS_4lessIS7_EELb1EEENS5_IS8_EEEC2ERKSC_, symObjAddr: 0x1CF58, symBinAddr: 0x100020110, symSize: 0x7C }
  - { offsetInCU: 0x45350, offset: 0x45350, size: 0x8, addend: 0x0, symName: __ZNSt3__117__compressed_pairINS_15__tree_end_nodeIPNS_16__tree_node_baseIPvEEEENS_9allocatorINS_11__tree_nodeINS_12__value_typeINS_12basic_stringIcNS_11char_traitsIcEENS7_IcEEEEiEES3_EEEEEC1B8ue170006ILb1EvEEv, symObjAddr: 0x1CFD4, symBinAddr: 0x10002018C, symSize: 0x2C }
  - { offsetInCU: 0x45385, offset: 0x45385, size: 0x8, addend: 0x0, symName: __ZNSt3__117__compressed_pairImNS_19__map_value_compareINS_12basic_stringIcNS_11char_traitsIcEENS_9allocatorIcEEEENS_12__value_typeIS7_iEENS_4lessIS7_EELb1EEEEC1B8ue170006IiRKSC_EEOT_OT0_, symObjAddr: 0x1D000, symBinAddr: 0x1000201B8, symSize: 0x3C }
  - { offsetInCU: 0x453DD, offset: 0x453DD, size: 0x8, addend: 0x0, symName: __ZNSt3__16__treeINS_12__value_typeINS_12basic_stringIcNS_11char_traitsIcEENS_9allocatorIcEEEEiEENS_19__map_value_compareIS7_S8_NS_4lessIS7_EELb1EEENS5_IS8_EEE10__end_nodeB8ue170006Ev, symObjAddr: 0x1D03C, symBinAddr: 0x1000201F4, symSize: 0x2C }
  - { offsetInCU: 0x45403, offset: 0x45403, size: 0x8, addend: 0x0, symName: __ZNSt3__16__treeINS_12__value_typeINS_12basic_stringIcNS_11char_traitsIcEENS_9allocatorIcEEEEiEENS_19__map_value_compareIS7_S8_NS_4lessIS7_EELb1EEENS5_IS8_EEE12__begin_nodeB8ue170006Ev, symObjAddr: 0x1D068, symBinAddr: 0x100020220, symSize: 0x14 }
  - { offsetInCU: 0x45429, offset: 0x45429, size: 0x8, addend: 0x0, symName: __ZNSt3__117__compressed_pairINS_15__tree_end_nodeIPNS_16__tree_node_baseIPvEEEENS_9allocatorINS_11__tree_nodeINS_12__value_typeINS_12basic_stringIcNS_11char_traitsIcEENS7_IcEEEEiEES3_EEEEEC2B8ue170006ILb1EvEEv, symObjAddr: 0x1D07C, symBinAddr: 0x100020234, symSize: 0x34 }
  - { offsetInCU: 0x4545E, offset: 0x4545E, size: 0x8, addend: 0x0, symName: __ZNSt3__122__compressed_pair_elemINS_9allocatorINS_11__tree_nodeINS_12__value_typeINS_12basic_stringIcNS_11char_traitsIcEENS1_IcEEEEiEEPvEEEELi1ELb1EEC2B8ue170006ENS_16__value_init_tagE, symObjAddr: 0x1D0B0, symBinAddr: 0x100020268, symSize: 0x2C }
  - { offsetInCU: 0x45493, offset: 0x45493, size: 0x8, addend: 0x0, symName: __ZNSt3__19allocatorINS_11__tree_nodeINS_12__value_typeINS_12basic_stringIcNS_11char_traitsIcEENS0_IcEEEEiEEPvEEEC2B8ue170006Ev, symObjAddr: 0x1D0DC, symBinAddr: 0x100020294, symSize: 0x2C }
  - { offsetInCU: 0x454BD, offset: 0x454BD, size: 0x8, addend: 0x0, symName: __ZNSt3__116__non_trivial_ifILb1ENS_9allocatorINS_11__tree_nodeINS_12__value_typeINS_12basic_stringIcNS_11char_traitsIcEENS1_IcEEEEiEEPvEEEEEC2B8ue170006Ev, symObjAddr: 0x1D108, symBinAddr: 0x1000202C0, symSize: 0x14 }
  - { offsetInCU: 0x454E7, offset: 0x454E7, size: 0x8, addend: 0x0, symName: __ZNSt3__117__compressed_pairImNS_19__map_value_compareINS_12basic_stringIcNS_11char_traitsIcEENS_9allocatorIcEEEENS_12__value_typeIS7_iEENS_4lessIS7_EELb1EEEEC2B8ue170006IiRKSC_EEOT_OT0_, symObjAddr: 0x1D11C, symBinAddr: 0x1000202D4, symSize: 0x44 }
  - { offsetInCU: 0x4553F, offset: 0x4553F, size: 0x8, addend: 0x0, symName: __ZNSt3__122__compressed_pair_elemINS_19__map_value_compareINS_12basic_stringIcNS_11char_traitsIcEENS_9allocatorIcEEEENS_12__value_typeIS7_iEENS_4lessIS7_EELb1EEELi1ELb1EEC2B8ue170006IRKSC_vEEOT_, symObjAddr: 0x1D160, symBinAddr: 0x100020318, symSize: 0x18 }
  - { offsetInCU: 0x45581, offset: 0x45581, size: 0x8, addend: 0x0, symName: __ZNSt3__117__compressed_pairINS_15__tree_end_nodeIPNS_16__tree_node_baseIPvEEEENS_9allocatorINS_11__tree_nodeINS_12__value_typeINS_12basic_stringIcNS_11char_traitsIcEENS7_IcEEEEiEES3_EEEEE5firstB8ue170006Ev, symObjAddr: 0x1D178, symBinAddr: 0x100020330, symSize: 0x24 }
  - { offsetInCU: 0x455A7, offset: 0x455A7, size: 0x8, addend: 0x0, symName: __ZNKSt3__117__compressed_pairIPNS_11__tree_nodeINS_12__value_typeIiNS_3mapINS_12basic_stringIcNS_11char_traitsIcEENS_9allocatorIcEEEEiNS_4lessIS9_EENS7_INS_4pairIKS9_iEEEEEEEEPvEENS_22__tree_node_destructorINS7_ISJ_EEEEE5firstB8ue170006Ev, symObjAddr: 0x1D19C, symBinAddr: 0x100020354, symSize: 0x24 }
  - { offsetInCU: 0x455CD, offset: 0x455CD, size: 0x8, addend: 0x0, symName: __ZNKSt3__122__compressed_pair_elemIPNS_11__tree_nodeINS_12__value_typeIiNS_3mapINS_12basic_stringIcNS_11char_traitsIcEENS_9allocatorIcEEEEiNS_4lessIS9_EENS7_INS_4pairIKS9_iEEEEEEEEPvEELi0ELb0EE5__getB8ue170006Ev, symObjAddr: 0x1D1C0, symBinAddr: 0x100020378, symSize: 0x14 }
  - { offsetInCU: 0x455F3, offset: 0x455F3, size: 0x8, addend: 0x0, symName: __ZNSt3__117__compressed_pairIPNS_11__tree_nodeINS_12__value_typeIiNS_3mapINS_12basic_stringIcNS_11char_traitsIcEENS_9allocatorIcEEEEiNS_4lessIS9_EENS7_INS_4pairIKS9_iEEEEEEEEPvEENS_22__tree_node_destructorINS7_ISJ_EEEEE6secondB8ue170006Ev, symObjAddr: 0x1D1D4, symBinAddr: 0x10002038C, symSize: 0x28 }
  - { offsetInCU: 0x45619, offset: 0x45619, size: 0x8, addend: 0x0, symName: __ZNSt3__122__compressed_pair_elemINS_22__tree_node_destructorINS_9allocatorINS_11__tree_nodeINS_12__value_typeIiNS_3mapINS_12basic_stringIcNS_11char_traitsIcEENS2_IcEEEEiNS_4lessISA_EENS2_INS_4pairIKSA_iEEEEEEEEPvEEEEEELi1ELb0EE5__getB8ue170006Ev, symObjAddr: 0x1D1FC, symBinAddr: 0x1000203B4, symSize: 0x14 }
  - { offsetInCU: 0x4563F, offset: 0x4563F, size: 0x8, addend: 0x0, symName: __ZNSt3__16__treeINS_12__value_typeIiNS_3mapINS_12basic_stringIcNS_11char_traitsIcEENS_9allocatorIcEEEEiNS_4lessIS8_EENS6_INS_4pairIKS8_iEEEEEEEENS_19__map_value_compareIiSG_NS9_IiEELb1EEENS6_ISG_EEE4sizeB8ue170006Ev, symObjAddr: 0x1D210, symBinAddr: 0x1000203C8, symSize: 0x28 }
  - { offsetInCU: 0x45665, offset: 0x45665, size: 0x8, addend: 0x0, symName: __ZNSt3__117__compressed_pairImNS_19__map_value_compareIiNS_12__value_typeIiNS_3mapINS_12basic_stringIcNS_11char_traitsIcEENS_9allocatorIcEEEEiNS_4lessIS9_EENS7_INS_4pairIKS9_iEEEEEEEENSA_IiEELb1EEEE5firstB8ue170006Ev, symObjAddr: 0x1D238, symBinAddr: 0x1000203F0, symSize: 0x24 }
  - { offsetInCU: 0x4568B, offset: 0x4568B, size: 0x8, addend: 0x0, symName: __ZNSt3__117__compressed_pairIPNS_11__tree_nodeINS_12__value_typeIiNS_3mapINS_12basic_stringIcNS_11char_traitsIcEENS_9allocatorIcEEEEiNS_4lessIS9_EENS7_INS_4pairIKS9_iEEEEEEEEPvEENS_22__tree_node_destructorINS7_ISJ_EEEEE5firstB8ue170006Ev, symObjAddr: 0x1D25C, symBinAddr: 0x100020414, symSize: 0x24 }
  - { offsetInCU: 0x456B1, offset: 0x456B1, size: 0x8, addend: 0x0, symName: __ZNSt3__122__compressed_pair_elemIPNS_11__tree_nodeINS_12__value_typeIiNS_3mapINS_12basic_stringIcNS_11char_traitsIcEENS_9allocatorIcEEEEiNS_4lessIS9_EENS7_INS_4pairIKS9_iEEEEEEEEPvEELi0ELb0EE5__getB8ue170006Ev, symObjAddr: 0x1D280, symBinAddr: 0x100020438, symSize: 0x14 }
  - { offsetInCU: 0x456D7, offset: 0x456D7, size: 0x8, addend: 0x0, symName: __ZNSt3__110unique_ptrINS_11__tree_nodeINS_12__value_typeIiNS_3mapINS_12basic_stringIcNS_11char_traitsIcEENS_9allocatorIcEEEEiNS_4lessIS9_EENS7_INS_4pairIKS9_iEEEEEEEEPvEENS_22__tree_node_destructorINS7_ISJ_EEEEED2B8ue170006Ev, symObjAddr: 0x1D294, symBinAddr: 0x10002044C, symSize: 0x30 }
  - { offsetInCU: 0x45701, offset: 0x45701, size: 0x8, addend: 0x0, symName: __ZNSt3__110unique_ptrINS_11__tree_nodeINS_12__value_typeIiNS_3mapINS_12basic_stringIcNS_11char_traitsIcEENS_9allocatorIcEEEEiNS_4lessIS9_EENS7_INS_4pairIKS9_iEEEEEEEEPvEENS_22__tree_node_destructorINS7_ISJ_EEEEE5resetB8ue170006EPSJ_, symObjAddr: 0x1D2C4, symBinAddr: 0x10002047C, symSize: 0x78 }
  - { offsetInCU: 0x45745, offset: 0x45745, size: 0x8, addend: 0x0, symName: __ZNSt3__122__tree_node_destructorINS_9allocatorINS_11__tree_nodeINS_12__value_typeIiNS_3mapINS_12basic_stringIcNS_11char_traitsIcEENS1_IcEEEEiNS_4lessIS9_EENS1_INS_4pairIKS9_iEEEEEEEEPvEEEEEclB8ue170006EPSJ_, symObjAddr: 0x1D33C, symBinAddr: 0x1000204F4, symSize: 0x98 }
  - { offsetInCU: 0x4577A, offset: 0x4577A, size: 0x8, addend: 0x0, symName: __ZNSt3__115__tree_iteratorINS_12__value_typeIiNS_3mapINS_12basic_stringIcNS_11char_traitsIcEENS_9allocatorIcEEEEiNS_4lessIS8_EENS6_INS_4pairIKS8_iEEEEEEEEPNS_11__tree_nodeISG_PvEElEC2B8ue170006ESK_, symObjAddr: 0x1D3D4, symBinAddr: 0x10002058C, symSize: 0x20 }
  - { offsetInCU: 0x457B3, offset: 0x457B3, size: 0x8, addend: 0x0, symName: __ZNSt3__14pairINS_15__tree_iteratorINS_12__value_typeIiNS_3mapINS_12basic_stringIcNS_11char_traitsIcEENS_9allocatorIcEEEEiNS_4lessIS9_EENS7_INS0_IKS9_iEEEEEEEEPNS_11__tree_nodeISG_PvEElEEbEC2B8ue170006ISL_RbLSI_0EEEOT_OT0_, symObjAddr: 0x1D3F4, symBinAddr: 0x1000205AC, symSize: 0x38 }
  - { offsetInCU: 0x45811, offset: 0x45811, size: 0x8, addend: 0x0, symName: __ZNSt3__114pointer_traitsIPNS_12__value_typeIiNS_3mapINS_12basic_stringIcNS_11char_traitsIcEENS_9allocatorIcEEEEiNS_4lessIS8_EENS6_INS_4pairIKS8_iEEEEEEEEE10pointer_toB8ue170006ERSG_, symObjAddr: 0x1D42C, symBinAddr: 0x1000205E4, symSize: 0x14 }
  - { offsetInCU: 0x45834, offset: 0x45834, size: 0x8, addend: 0x0, symName: __ZNKSt3__115__tree_iteratorINS_12__value_typeIiNS_3mapINS_12basic_stringIcNS_11char_traitsIcEENS_9allocatorIcEEEEiNS_4lessIS8_EENS6_INS_4pairIKS8_iEEEEEEEEPNS_11__tree_nodeISG_PvEElE8__get_npB8ue170006Ev, symObjAddr: 0x1D440, symBinAddr: 0x1000205F8, symSize: 0x18 }
  - { offsetInCU: 0x4585A, offset: 0x4585A, size: 0x8, addend: 0x0, symName: __ZNSt3__16__treeINS_12__value_typeINS_12basic_stringIcNS_11char_traitsIcEENS_9allocatorIcEEEEiEENS_19__map_value_compareIS7_S8_NS_4lessIS7_EELb1EEENS5_IS8_EEE25__emplace_unique_key_argsIS7_JRKNS_21piecewise_construct_tENS_5tupleIJRKS7_EEENSJ_IJEEEEEENS_4pairINS_15__tree_iteratorIS8_PNS_11__tree_nodeIS8_PvEElEEbEERKT_DpOT0_, symObjAddr: 0x1D458, symBinAddr: 0x100020610, symSize: 0x100 }
  - { offsetInCU: 0x45930, offset: 0x45930, size: 0x8, addend: 0x0, symName: __ZNKSt3__115__tree_iteratorINS_12__value_typeINS_12basic_stringIcNS_11char_traitsIcEENS_9allocatorIcEEEEiEEPNS_11__tree_nodeIS8_PvEElEptB8ue170006Ev, symObjAddr: 0x1D584, symBinAddr: 0x10002073C, symSize: 0x2C }
  - { offsetInCU: 0x45956, offset: 0x45956, size: 0x8, addend: 0x0, symName: __ZNSt3__16__treeINS_12__value_typeINS_12basic_stringIcNS_11char_traitsIcEENS_9allocatorIcEEEEiEENS_19__map_value_compareIS7_S8_NS_4lessIS7_EELb1EEENS5_IS8_EEE12__find_equalIS7_EERPNS_16__tree_node_baseIPvEERPNS_15__tree_end_nodeISJ_EERKT_, symObjAddr: 0x1D5B0, symBinAddr: 0x100020768, symSize: 0x184 }
  - { offsetInCU: 0x459C3, offset: 0x459C3, size: 0x8, addend: 0x0, symName: __ZNSt3__16__treeINS_12__value_typeINS_12basic_stringIcNS_11char_traitsIcEENS_9allocatorIcEEEEiEENS_19__map_value_compareIS7_S8_NS_4lessIS7_EELb1EEENS5_IS8_EEE16__construct_nodeIJRKNS_21piecewise_construct_tENS_5tupleIJRKS7_EEENSJ_IJEEEEEENS_10unique_ptrINS_11__tree_nodeIS8_PvEENS_22__tree_node_destructorINS5_ISR_EEEEEEDpOT_, symObjAddr: 0x1D734, symBinAddr: 0x1000208EC, symSize: 0x120 }
  - { offsetInCU: 0x45A4C, offset: 0x45A4C, size: 0x8, addend: 0x0, symName: __ZNSt3__16__treeINS_12__value_typeINS_12basic_stringIcNS_11char_traitsIcEENS_9allocatorIcEEEEiEENS_19__map_value_compareIS7_S8_NS_4lessIS7_EELb1EEENS5_IS8_EEE16__insert_node_atEPNS_15__tree_end_nodeIPNS_16__tree_node_baseIPvEEEERSJ_SJ_, symObjAddr: 0x1D854, symBinAddr: 0x100020A0C, symSize: 0xCC }
  - { offsetInCU: 0x45AA1, offset: 0x45AA1, size: 0x8, addend: 0x0, symName: __ZNKSt3__110unique_ptrINS_11__tree_nodeINS_12__value_typeINS_12basic_stringIcNS_11char_traitsIcEENS_9allocatorIcEEEEiEEPvEENS_22__tree_node_destructorINS6_ISB_EEEEE3getB8ue170006Ev, symObjAddr: 0x1D920, symBinAddr: 0x100020AD8, symSize: 0x28 }
  - { offsetInCU: 0x45AC7, offset: 0x45AC7, size: 0x8, addend: 0x0, symName: __ZNSt3__110unique_ptrINS_11__tree_nodeINS_12__value_typeINS_12basic_stringIcNS_11char_traitsIcEENS_9allocatorIcEEEEiEEPvEENS_22__tree_node_destructorINS6_ISB_EEEEE7releaseB8ue170006Ev, symObjAddr: 0x1D948, symBinAddr: 0x100020B00, symSize: 0x44 }
  - { offsetInCU: 0x45AFC, offset: 0x45AFC, size: 0x8, addend: 0x0, symName: __ZNSt3__110unique_ptrINS_11__tree_nodeINS_12__value_typeINS_12basic_stringIcNS_11char_traitsIcEENS_9allocatorIcEEEEiEEPvEENS_22__tree_node_destructorINS6_ISB_EEEEED1B8ue170006Ev, symObjAddr: 0x1D98C, symBinAddr: 0x100020B44, symSize: 0x2C }
  - { offsetInCU: 0x45B26, offset: 0x45B26, size: 0x8, addend: 0x0, symName: __ZNSt3__115__tree_iteratorINS_12__value_typeINS_12basic_stringIcNS_11char_traitsIcEENS_9allocatorIcEEEEiEEPNS_11__tree_nodeIS8_PvEElEC1B8ue170006ESC_, symObjAddr: 0x1D9B8, symBinAddr: 0x100020B70, symSize: 0x34 }
  - { offsetInCU: 0x45B65, offset: 0x45B65, size: 0x8, addend: 0x0, symName: __ZNSt3__14pairINS_15__tree_iteratorINS_12__value_typeINS_12basic_stringIcNS_11char_traitsIcEENS_9allocatorIcEEEEiEEPNS_11__tree_nodeIS9_PvEElEEbEC1B8ue170006ISE_RbLSB_0EEEOT_OT0_, symObjAddr: 0x1D9EC, symBinAddr: 0x100020BA4, symSize: 0x3C }
  - { offsetInCU: 0x45BC3, offset: 0x45BC3, size: 0x8, addend: 0x0, symName: __ZNKSt3__16__treeINS_12__value_typeINS_12basic_stringIcNS_11char_traitsIcEENS_9allocatorIcEEEEiEENS_19__map_value_compareIS7_S8_NS_4lessIS7_EELb1EEENS5_IS8_EEE10__root_ptrB8ue170006Ev, symObjAddr: 0x1DA28, symBinAddr: 0x100020BE0, symSize: 0x24 }
  - { offsetInCU: 0x45BE9, offset: 0x45BE9, size: 0x8, addend: 0x0, symName: __ZNSt3__16__treeINS_12__value_typeINS_12basic_stringIcNS_11char_traitsIcEENS_9allocatorIcEEEEiEENS_19__map_value_compareIS7_S8_NS_4lessIS7_EELb1EEENS5_IS8_EEE10value_compB8ue170006Ev, symObjAddr: 0x1DA4C, symBinAddr: 0x100020C04, symSize: 0x28 }
  - { offsetInCU: 0x45C0F, offset: 0x45C0F, size: 0x8, addend: 0x0, symName: __ZNKSt3__119__map_value_compareINS_12basic_stringIcNS_11char_traitsIcEENS_9allocatorIcEEEENS_12__value_typeIS6_iEENS_4lessIS6_EELb1EEclB8ue170006ERKS6_RKS8_, symObjAddr: 0x1DA74, symBinAddr: 0x100020C2C, symSize: 0x50 }
  - { offsetInCU: 0x45C53, offset: 0x45C53, size: 0x8, addend: 0x0, symName: __ZNKSt3__119__map_value_compareINS_12basic_stringIcNS_11char_traitsIcEENS_9allocatorIcEEEENS_12__value_typeIS6_iEENS_4lessIS6_EELb1EEclB8ue170006ERKS8_RKS6_, symObjAddr: 0x1DAC4, symBinAddr: 0x100020C7C, symSize: 0x48 }
  - { offsetInCU: 0x45C97, offset: 0x45C97, size: 0x8, addend: 0x0, symName: __ZNSt3__117__compressed_pairImNS_19__map_value_compareINS_12basic_stringIcNS_11char_traitsIcEENS_9allocatorIcEEEENS_12__value_typeIS7_iEENS_4lessIS7_EELb1EEEE6secondB8ue170006Ev, symObjAddr: 0x1DB0C, symBinAddr: 0x100020CC4, symSize: 0x24 }
  - { offsetInCU: 0x45CBD, offset: 0x45CBD, size: 0x8, addend: 0x0, symName: __ZNSt3__122__compressed_pair_elemINS_19__map_value_compareINS_12basic_stringIcNS_11char_traitsIcEENS_9allocatorIcEEEENS_12__value_typeIS7_iEENS_4lessIS7_EELb1EEELi1ELb1EE5__getB8ue170006Ev, symObjAddr: 0x1DB30, symBinAddr: 0x100020CE8, symSize: 0x14 }
  - { offsetInCU: 0x45CE3, offset: 0x45CE3, size: 0x8, addend: 0x0, symName: __ZNKSt3__14lessINS_12basic_stringIcNS_11char_traitsIcEENS_9allocatorIcEEEEEclB8ue170006ERKS6_S9_, symObjAddr: 0x1DB44, symBinAddr: 0x100020CFC, symSize: 0x50 }
  - { offsetInCU: 0x45D27, offset: 0x45D27, size: 0x8, addend: 0x0, symName: __ZNSt3__116allocator_traitsINS_9allocatorINS_11__tree_nodeINS_12__value_typeINS_12basic_stringIcNS_11char_traitsIcEENS1_IcEEEEiEEPvEEEEE8allocateB8ue170006ERSC_m, symObjAddr: 0x1DB94, symBinAddr: 0x100020D4C, symSize: 0x2C }
  - { offsetInCU: 0x45D5A, offset: 0x45D5A, size: 0x8, addend: 0x0, symName: __ZNSt3__122__tree_node_destructorINS_9allocatorINS_11__tree_nodeINS_12__value_typeINS_12basic_stringIcNS_11char_traitsIcEENS1_IcEEEEiEEPvEEEEEC1B8ue170006ERSC_b, symObjAddr: 0x1DBC0, symBinAddr: 0x100020D78, symSize: 0x48 }
  - { offsetInCU: 0x45DA8, offset: 0x45DA8, size: 0x8, addend: 0x0, symName: __ZNSt3__110unique_ptrINS_11__tree_nodeINS_12__value_typeINS_12basic_stringIcNS_11char_traitsIcEENS_9allocatorIcEEEEiEEPvEENS_22__tree_node_destructorINS6_ISB_EEEEEC1B8ue170006ILb1EvEEPSB_NS_16__dependent_typeINS_27__unique_ptr_deleter_sfinaeISE_EEXT_EE20__good_rval_ref_typeE, symObjAddr: 0x1DC08, symBinAddr: 0x100020DC0, symSize: 0x3C }
  - { offsetInCU: 0x45DF9, offset: 0x45DF9, size: 0x8, addend: 0x0, symName: __ZNSt3__116allocator_traitsINS_9allocatorINS_11__tree_nodeINS_12__value_typeINS_12basic_stringIcNS_11char_traitsIcEENS1_IcEEEEiEEPvEEEEE9constructB8ue170006INS_4pairIKS8_iEEJRKNS_21piecewise_construct_tENS_5tupleIJRSG_EEENSL_IJEEEEvvEEvRSC_PT_DpOT0_, symObjAddr: 0x1DC44, symBinAddr: 0x100020DFC, symSize: 0x40 }
  - { offsetInCU: 0x45E76, offset: 0x45E76, size: 0x8, addend: 0x0, symName: __ZNKSt3__110unique_ptrINS_11__tree_nodeINS_12__value_typeINS_12basic_stringIcNS_11char_traitsIcEENS_9allocatorIcEEEEiEEPvEENS_22__tree_node_destructorINS6_ISB_EEEEEptB8ue170006Ev, symObjAddr: 0x1DC84, symBinAddr: 0x100020E3C, symSize: 0x28 }
  - { offsetInCU: 0x45E9C, offset: 0x45E9C, size: 0x8, addend: 0x0, symName: __ZNSt3__110unique_ptrINS_11__tree_nodeINS_12__value_typeINS_12basic_stringIcNS_11char_traitsIcEENS_9allocatorIcEEEEiEEPvEENS_22__tree_node_destructorINS6_ISB_EEEEE11get_deleterB8ue170006Ev, symObjAddr: 0x1DCAC, symBinAddr: 0x100020E64, symSize: 0x24 }
  - { offsetInCU: 0x45EC2, offset: 0x45EC2, size: 0x8, addend: 0x0, symName: __ZNSt3__19allocatorINS_11__tree_nodeINS_12__value_typeINS_12basic_stringIcNS_11char_traitsIcEENS0_IcEEEEiEEPvEEE8allocateB8ue170006Em, symObjAddr: 0x1DCD0, symBinAddr: 0x100020E88, symSize: 0x58 }
  - { offsetInCU: 0x45F01, offset: 0x45F01, size: 0x8, addend: 0x0, symName: __ZNSt3__116allocator_traitsINS_9allocatorINS_11__tree_nodeINS_12__value_typeINS_12basic_stringIcNS_11char_traitsIcEENS1_IcEEEEiEEPvEEEEE8max_sizeB8ue170006ISC_vvEEmRKSC_, symObjAddr: 0x1DD28, symBinAddr: 0x100020EE0, symSize: 0x28 }
  - { offsetInCU: 0x45F2D, offset: 0x45F2D, size: 0x8, addend: 0x0, symName: __ZNSt3__122__tree_node_destructorINS_9allocatorINS_11__tree_nodeINS_12__value_typeINS_12basic_stringIcNS_11char_traitsIcEENS1_IcEEEEiEEPvEEEEEC2B8ue170006ERSC_b, symObjAddr: 0x1DD50, symBinAddr: 0x100020F08, symSize: 0x38 }
  - { offsetInCU: 0x45F75, offset: 0x45F75, size: 0x8, addend: 0x0, symName: __ZNSt3__110unique_ptrINS_11__tree_nodeINS_12__value_typeINS_12basic_stringIcNS_11char_traitsIcEENS_9allocatorIcEEEEiEEPvEENS_22__tree_node_destructorINS6_ISB_EEEEEC2B8ue170006ILb1EvEEPSB_NS_16__dependent_typeINS_27__unique_ptr_deleter_sfinaeISE_EEXT_EE20__good_rval_ref_typeE, symObjAddr: 0x1DD88, symBinAddr: 0x100020F40, symSize: 0x48 }
  - { offsetInCU: 0x45FC6, offset: 0x45FC6, size: 0x8, addend: 0x0, symName: __ZNSt3__117__compressed_pairIPNS_11__tree_nodeINS_12__value_typeINS_12basic_stringIcNS_11char_traitsIcEENS_9allocatorIcEEEEiEEPvEENS_22__tree_node_destructorINS6_ISB_EEEEEC1B8ue170006IRSC_SF_EEOT_OT0_, symObjAddr: 0x1DDD0, symBinAddr: 0x100020F88, symSize: 0x3C }
  - { offsetInCU: 0x4601E, offset: 0x4601E, size: 0x8, addend: 0x0, symName: __ZNSt3__117__compressed_pairIPNS_11__tree_nodeINS_12__value_typeINS_12basic_stringIcNS_11char_traitsIcEENS_9allocatorIcEEEEiEEPvEENS_22__tree_node_destructorINS6_ISB_EEEEEC2B8ue170006IRSC_SF_EEOT_OT0_, symObjAddr: 0x1DE0C, symBinAddr: 0x100020FC4, symSize: 0x48 }
  - { offsetInCU: 0x46076, offset: 0x46076, size: 0x8, addend: 0x0, symName: __ZNSt3__122__compressed_pair_elemIPNS_11__tree_nodeINS_12__value_typeINS_12basic_stringIcNS_11char_traitsIcEENS_9allocatorIcEEEEiEEPvEELi0ELb0EEC2B8ue170006IRSC_vEEOT_, symObjAddr: 0x1DE54, symBinAddr: 0x10002100C, symSize: 0x24 }
  - { offsetInCU: 0x460B8, offset: 0x460B8, size: 0x8, addend: 0x0, symName: __ZNSt3__122__compressed_pair_elemINS_22__tree_node_destructorINS_9allocatorINS_11__tree_nodeINS_12__value_typeINS_12basic_stringIcNS_11char_traitsIcEENS2_IcEEEEiEEPvEEEEEELi1ELb0EEC2B8ue170006ISE_vEEOT_, symObjAddr: 0x1DE78, symBinAddr: 0x100021030, symSize: 0x24 }
  - { offsetInCU: 0x460FA, offset: 0x460FA, size: 0x8, addend: 0x0, symName: __ZNSt3__14pairIKNS_12basic_stringIcNS_11char_traitsIcEENS_9allocatorIcEEEEiEC1B8ue170006IJRS7_EJEEENS_21piecewise_construct_tENS_5tupleIJDpT_EEENSC_IJDpT0_EEE, symObjAddr: 0x1DEEC, symBinAddr: 0x1000210A4, symSize: 0x3C }
  - { offsetInCU: 0x46161, offset: 0x46161, size: 0x8, addend: 0x0, symName: __ZNSt3__14pairIKNS_12basic_stringIcNS_11char_traitsIcEENS_9allocatorIcEEEEiEC1B8ue170006IJRS7_EJEJLm0EEJEEENS_21piecewise_construct_tERNS_5tupleIJDpT_EEERNSC_IJDpT0_EEENS_15__tuple_indicesIJXspT1_EEEENSL_IJXspT2_EEEE, symObjAddr: 0x1DF28, symBinAddr: 0x1000210E0, symSize: 0x3C }
  - { offsetInCU: 0x461F1, offset: 0x461F1, size: 0x8, addend: 0x0, symName: __ZNSt3__14pairIKNS_12basic_stringIcNS_11char_traitsIcEENS_9allocatorIcEEEEiEC2B8ue170006IJRS7_EJEJLm0EEJEEENS_21piecewise_construct_tERNS_5tupleIJDpT_EEERNSC_IJDpT0_EEENS_15__tuple_indicesIJXspT1_EEEENSL_IJXspT2_EEEE, symObjAddr: 0x1DF64, symBinAddr: 0x10002111C, symSize: 0x48 }
  - { offsetInCU: 0x46281, offset: 0x46281, size: 0x8, addend: 0x0, symName: __ZNSt3__112__tuple_leafILm0ERKNS_12basic_stringIcNS_11char_traitsIcEENS_9allocatorIcEEEELb0EE3getB8ue170006Ev, symObjAddr: 0x1DFD0, symBinAddr: 0x100021188, symSize: 0x18 }
  - { offsetInCU: 0x462A7, offset: 0x462A7, size: 0x8, addend: 0x0, symName: __ZNKSt3__117__compressed_pairIPNS_11__tree_nodeINS_12__value_typeINS_12basic_stringIcNS_11char_traitsIcEENS_9allocatorIcEEEEiEEPvEENS_22__tree_node_destructorINS6_ISB_EEEEE5firstB8ue170006Ev, symObjAddr: 0x1DFE8, symBinAddr: 0x1000211A0, symSize: 0x24 }
  - { offsetInCU: 0x462CD, offset: 0x462CD, size: 0x8, addend: 0x0, symName: __ZNKSt3__122__compressed_pair_elemIPNS_11__tree_nodeINS_12__value_typeINS_12basic_stringIcNS_11char_traitsIcEENS_9allocatorIcEEEEiEEPvEELi0ELb0EE5__getB8ue170006Ev, symObjAddr: 0x1E00C, symBinAddr: 0x1000211C4, symSize: 0x14 }
  - { offsetInCU: 0x462F3, offset: 0x462F3, size: 0x8, addend: 0x0, symName: __ZNSt3__117__compressed_pairIPNS_11__tree_nodeINS_12__value_typeINS_12basic_stringIcNS_11char_traitsIcEENS_9allocatorIcEEEEiEEPvEENS_22__tree_node_destructorINS6_ISB_EEEEE6secondB8ue170006Ev, symObjAddr: 0x1E020, symBinAddr: 0x1000211D8, symSize: 0x28 }
  - { offsetInCU: 0x46319, offset: 0x46319, size: 0x8, addend: 0x0, symName: __ZNSt3__122__compressed_pair_elemINS_22__tree_node_destructorINS_9allocatorINS_11__tree_nodeINS_12__value_typeINS_12basic_stringIcNS_11char_traitsIcEENS2_IcEEEEiEEPvEEEEEELi1ELb0EE5__getB8ue170006Ev, symObjAddr: 0x1E048, symBinAddr: 0x100021200, symSize: 0x14 }
  - { offsetInCU: 0x4633F, offset: 0x4633F, size: 0x8, addend: 0x0, symName: __ZNSt3__16__treeINS_12__value_typeINS_12basic_stringIcNS_11char_traitsIcEENS_9allocatorIcEEEEiEENS_19__map_value_compareIS7_S8_NS_4lessIS7_EELb1EEENS5_IS8_EEE4sizeB8ue170006Ev, symObjAddr: 0x1E05C, symBinAddr: 0x100021214, symSize: 0x28 }
  - { offsetInCU: 0x46365, offset: 0x46365, size: 0x8, addend: 0x0, symName: __ZNSt3__117__compressed_pairImNS_19__map_value_compareINS_12basic_stringIcNS_11char_traitsIcEENS_9allocatorIcEEEENS_12__value_typeIS7_iEENS_4lessIS7_EELb1EEEE5firstB8ue170006Ev, symObjAddr: 0x1E084, symBinAddr: 0x10002123C, symSize: 0x24 }
  - { offsetInCU: 0x4638B, offset: 0x4638B, size: 0x8, addend: 0x0, symName: __ZNSt3__117__compressed_pairIPNS_11__tree_nodeINS_12__value_typeINS_12basic_stringIcNS_11char_traitsIcEENS_9allocatorIcEEEEiEEPvEENS_22__tree_node_destructorINS6_ISB_EEEEE5firstB8ue170006Ev, symObjAddr: 0x1E0A8, symBinAddr: 0x100021260, symSize: 0x24 }
  - { offsetInCU: 0x463B1, offset: 0x463B1, size: 0x8, addend: 0x0, symName: __ZNSt3__122__compressed_pair_elemIPNS_11__tree_nodeINS_12__value_typeINS_12basic_stringIcNS_11char_traitsIcEENS_9allocatorIcEEEEiEEPvEELi0ELb0EE5__getB8ue170006Ev, symObjAddr: 0x1E0CC, symBinAddr: 0x100021284, symSize: 0x14 }
  - { offsetInCU: 0x463D7, offset: 0x463D7, size: 0x8, addend: 0x0, symName: __ZNSt3__110unique_ptrINS_11__tree_nodeINS_12__value_typeINS_12basic_stringIcNS_11char_traitsIcEENS_9allocatorIcEEEEiEEPvEENS_22__tree_node_destructorINS6_ISB_EEEEED2B8ue170006Ev, symObjAddr: 0x1E0E0, symBinAddr: 0x100021298, symSize: 0x30 }
  - { offsetInCU: 0x46401, offset: 0x46401, size: 0x8, addend: 0x0, symName: __ZNSt3__110unique_ptrINS_11__tree_nodeINS_12__value_typeINS_12basic_stringIcNS_11char_traitsIcEENS_9allocatorIcEEEEiEEPvEENS_22__tree_node_destructorINS6_ISB_EEEEE5resetB8ue170006EPSB_, symObjAddr: 0x1E110, symBinAddr: 0x1000212C8, symSize: 0x78 }
  - { offsetInCU: 0x46445, offset: 0x46445, size: 0x8, addend: 0x0, symName: __ZNSt3__122__tree_node_destructorINS_9allocatorINS_11__tree_nodeINS_12__value_typeINS_12basic_stringIcNS_11char_traitsIcEENS1_IcEEEEiEEPvEEEEEclB8ue170006EPSB_, symObjAddr: 0x1E188, symBinAddr: 0x100021340, symSize: 0x98 }
  - { offsetInCU: 0x4647A, offset: 0x4647A, size: 0x8, addend: 0x0, symName: __ZNSt3__115__tree_iteratorINS_12__value_typeINS_12basic_stringIcNS_11char_traitsIcEENS_9allocatorIcEEEEiEEPNS_11__tree_nodeIS8_PvEElEC2B8ue170006ESC_, symObjAddr: 0x1E220, symBinAddr: 0x1000213D8, symSize: 0x20 }
  - { offsetInCU: 0x464B3, offset: 0x464B3, size: 0x8, addend: 0x0, symName: __ZNSt3__14pairINS_15__tree_iteratorINS_12__value_typeINS_12basic_stringIcNS_11char_traitsIcEENS_9allocatorIcEEEEiEEPNS_11__tree_nodeIS9_PvEElEEbEC2B8ue170006ISE_RbLSB_0EEEOT_OT0_, symObjAddr: 0x1E240, symBinAddr: 0x1000213F8, symSize: 0x38 }
  - { offsetInCU: 0x46511, offset: 0x46511, size: 0x8, addend: 0x0, symName: __ZNSt3__15tupleIJRKNS_12basic_stringIcNS_11char_traitsIcEENS_9allocatorIcEEEEEEC1B8ue170006INS_4_AndELi0EEES8_, symObjAddr: 0x1E278, symBinAddr: 0x100021430, symSize: 0x34 }
  - { offsetInCU: 0x46559, offset: 0x46559, size: 0x8, addend: 0x0, symName: __ZNSt3__15tupleIJRKNS_12basic_stringIcNS_11char_traitsIcEENS_9allocatorIcEEEEEEC2B8ue170006INS_4_AndELi0EEES8_, symObjAddr: 0x1E2AC, symBinAddr: 0x100021464, symSize: 0x34 }
  - { offsetInCU: 0x465A1, offset: 0x465A1, size: 0x8, addend: 0x0, symName: __ZNSt3__112__tuple_implINS_15__tuple_indicesIJLm0EEEEJRKNS_12basic_stringIcNS_11char_traitsIcEENS_9allocatorIcEEEEEEC1B8ue170006IJLm0EEJSA_EJEJEJSA_EEENS1_IJXspT_EEEENS_13__tuple_typesIJDpT0_EEENS1_IJXspT1_EEEENSE_IJDpT2_EEEDpOT3_, symObjAddr: 0x1E2E0, symBinAddr: 0x100021498, symSize: 0x34 }
  - { offsetInCU: 0x46636, offset: 0x46636, size: 0x8, addend: 0x0, symName: __ZNSt3__112__tuple_implINS_15__tuple_indicesIJLm0EEEEJRKNS_12basic_stringIcNS_11char_traitsIcEENS_9allocatorIcEEEEEEC2B8ue170006IJLm0EEJSA_EJEJEJSA_EEENS1_IJXspT_EEEENS_13__tuple_typesIJDpT0_EEENS1_IJXspT1_EEEENSE_IJDpT2_EEEDpOT3_, symObjAddr: 0x1E314, symBinAddr: 0x1000214CC, symSize: 0x34 }
  - { offsetInCU: 0x466CB, offset: 0x466CB, size: 0x8, addend: 0x0, symName: __ZNSt3__112__tuple_leafILm0ERKNS_12basic_stringIcNS_11char_traitsIcEENS_9allocatorIcEEEELb0EEC2B8ue170006IS8_vEEOT_, symObjAddr: 0x1E348, symBinAddr: 0x100021500, symSize: 0x20 }
  - { offsetInCU: 0x4670E, offset: 0x4670E, size: 0x8, addend: 0x0, symName: __ZNSt3__114pointer_traitsIPNS_12__value_typeINS_12basic_stringIcNS_11char_traitsIcEENS_9allocatorIcEEEEiEEE10pointer_toB8ue170006ERS8_, symObjAddr: 0x1E368, symBinAddr: 0x100021520, symSize: 0x14 }
  - { offsetInCU: 0x46731, offset: 0x46731, size: 0x8, addend: 0x0, symName: __ZNKSt3__115__tree_iteratorINS_12__value_typeINS_12basic_stringIcNS_11char_traitsIcEENS_9allocatorIcEEEEiEEPNS_11__tree_nodeIS8_PvEElE8__get_npB8ue170006Ev, symObjAddr: 0x1E37C, symBinAddr: 0x100021534, symSize: 0x18 }
  - { offsetInCU: 0x46757, offset: 0x46757, size: 0x8, addend: 0x0, symName: __ZNSt3__16__treeINS_12__value_typeIiNS_3mapINS_12basic_stringIcNS_11char_traitsIcEENS_9allocatorIcEEEEiNS_4lessIS8_EENS6_INS_4pairIKS8_iEEEEEEEENS_19__map_value_compareIiSG_NS9_IiEELb1EEENS6_ISG_EEE5beginB8ue170006Ev, symObjAddr: 0x1E394, symBinAddr: 0x10002154C, symSize: 0x34 }
  - { offsetInCU: 0x4677D, offset: 0x4677D, size: 0x8, addend: 0x0, symName: __ZNSt3__114__map_iteratorINS_15__tree_iteratorINS_12__value_typeIiNS_3mapINS_12basic_stringIcNS_11char_traitsIcEENS_9allocatorIcEEEEiNS_4lessIS9_EENS7_INS_4pairIKS9_iEEEEEEEEPNS_11__tree_nodeISH_PvEElEEEC1B8ue170006ESM_, symObjAddr: 0x1E3C8, symBinAddr: 0x100021580, symSize: 0x34 }
  - { offsetInCU: 0x467B6, offset: 0x467B6, size: 0x8, addend: 0x0, symName: __ZNSt3__115__tree_iteratorINS_12__value_typeIiNS_3mapINS_12basic_stringIcNS_11char_traitsIcEENS_9allocatorIcEEEEiNS_4lessIS8_EENS6_INS_4pairIKS8_iEEEEEEEEPNS_11__tree_nodeISG_PvEElEC1B8ue170006EPNS_15__tree_end_nodeIPNS_16__tree_node_baseISI_EEEE, symObjAddr: 0x1E3FC, symBinAddr: 0x1000215B4, symSize: 0x34 }
  - { offsetInCU: 0x467EF, offset: 0x467EF, size: 0x8, addend: 0x0, symName: __ZNSt3__115__tree_iteratorINS_12__value_typeIiNS_3mapINS_12basic_stringIcNS_11char_traitsIcEENS_9allocatorIcEEEEiNS_4lessIS8_EENS6_INS_4pairIKS8_iEEEEEEEEPNS_11__tree_nodeISG_PvEElEC2B8ue170006EPNS_15__tree_end_nodeIPNS_16__tree_node_baseISI_EEEE, symObjAddr: 0x1E430, symBinAddr: 0x1000215E8, symSize: 0x20 }
  - { offsetInCU: 0x46828, offset: 0x46828, size: 0x8, addend: 0x0, symName: __ZNSt3__114__map_iteratorINS_15__tree_iteratorINS_12__value_typeIiNS_3mapINS_12basic_stringIcNS_11char_traitsIcEENS_9allocatorIcEEEEiNS_4lessIS9_EENS7_INS_4pairIKS9_iEEEEEEEEPNS_11__tree_nodeISH_PvEElEEEC2B8ue170006ESM_, symObjAddr: 0x1E450, symBinAddr: 0x100021608, symSize: 0x20 }
  - { offsetInCU: 0x46861, offset: 0x46861, size: 0x8, addend: 0x0, symName: __ZNSt3__16__treeINS_12__value_typeIiNS_3mapINS_12basic_stringIcNS_11char_traitsIcEENS_9allocatorIcEEEEiNS_4lessIS8_EENS6_INS_4pairIKS8_iEEEEEEEENS_19__map_value_compareIiSG_NS9_IiEELb1EEENS6_ISG_EEE3endB8ue170006Ev, symObjAddr: 0x1E470, symBinAddr: 0x100021628, symSize: 0x34 }
  - { offsetInCU: 0x46887, offset: 0x46887, size: 0x8, addend: 0x0, symName: __ZNSt3__115__tree_iteratorINS_12__value_typeIiNS_3mapINS_12basic_stringIcNS_11char_traitsIcEENS_9allocatorIcEEEEiNS_4lessIS8_EENS6_INS_4pairIKS8_iEEEEEEEEPNS_11__tree_nodeISG_PvEElEppB8ue170006Ev, symObjAddr: 0x1E508, symBinAddr: 0x1000216C0, symSize: 0x38 }
  - { offsetInCU: 0x468AD, offset: 0x468AD, size: 0x8, addend: 0x0, symName: __ZNSt3__16__treeINS_12__value_typeINS_12basic_stringIcNS_11char_traitsIcEENS_9allocatorIcEEEEiEENS_19__map_value_compareIS7_S8_NS_4lessIS7_EELb1EEENS5_IS8_EEE5beginB8ue170006Ev, symObjAddr: 0x1E540, symBinAddr: 0x1000216F8, symSize: 0x34 }
  - { offsetInCU: 0x468D3, offset: 0x468D3, size: 0x8, addend: 0x0, symName: __ZNSt3__114__map_iteratorINS_15__tree_iteratorINS_12__value_typeINS_12basic_stringIcNS_11char_traitsIcEENS_9allocatorIcEEEEiEEPNS_11__tree_nodeIS9_PvEElEEEC1B8ue170006ESE_, symObjAddr: 0x1E574, symBinAddr: 0x10002172C, symSize: 0x34 }
  - { offsetInCU: 0x4690C, offset: 0x4690C, size: 0x8, addend: 0x0, symName: __ZNSt3__115__tree_iteratorINS_12__value_typeINS_12basic_stringIcNS_11char_traitsIcEENS_9allocatorIcEEEEiEEPNS_11__tree_nodeIS8_PvEElEC1B8ue170006EPNS_15__tree_end_nodeIPNS_16__tree_node_baseISA_EEEE, symObjAddr: 0x1E5A8, symBinAddr: 0x100021760, symSize: 0x34 }
  - { offsetInCU: 0x46945, offset: 0x46945, size: 0x8, addend: 0x0, symName: __ZNSt3__115__tree_iteratorINS_12__value_typeINS_12basic_stringIcNS_11char_traitsIcEENS_9allocatorIcEEEEiEEPNS_11__tree_nodeIS8_PvEElEC2B8ue170006EPNS_15__tree_end_nodeIPNS_16__tree_node_baseISA_EEEE, symObjAddr: 0x1E5DC, symBinAddr: 0x100021794, symSize: 0x20 }
  - { offsetInCU: 0x4697E, offset: 0x4697E, size: 0x8, addend: 0x0, symName: __ZNSt3__114__map_iteratorINS_15__tree_iteratorINS_12__value_typeINS_12basic_stringIcNS_11char_traitsIcEENS_9allocatorIcEEEEiEEPNS_11__tree_nodeIS9_PvEElEEEC2B8ue170006ESE_, symObjAddr: 0x1E5FC, symBinAddr: 0x1000217B4, symSize: 0x20 }
  - { offsetInCU: 0x469B7, offset: 0x469B7, size: 0x8, addend: 0x0, symName: __ZNSt3__16__treeINS_12__value_typeINS_12basic_stringIcNS_11char_traitsIcEENS_9allocatorIcEEEEiEENS_19__map_value_compareIS7_S8_NS_4lessIS7_EELb1EEENS5_IS8_EEE3endB8ue170006Ev, symObjAddr: 0x1E61C, symBinAddr: 0x1000217D4, symSize: 0x34 }
  - { offsetInCU: 0x469DD, offset: 0x469DD, size: 0x8, addend: 0x0, symName: __ZNSt3__115__tree_iteratorINS_12__value_typeINS_12basic_stringIcNS_11char_traitsIcEENS_9allocatorIcEEEEiEEPNS_11__tree_nodeIS8_PvEElEppB8ue170006Ev, symObjAddr: 0x1E6B4, symBinAddr: 0x10002186C, symSize: 0x38 }
  - { offsetInCU: 0x46A03, offset: 0x46A03, size: 0x8, addend: 0x0, symName: __ZNKSt3__16__treeINS_12__value_typeIiNS_3mapINS_12basic_stringIcNS_11char_traitsIcEENS_9allocatorIcEEEEiNS_4lessIS8_EENS6_INS_4pairIKS8_iEEEEEEEENS_19__map_value_compareIiSG_NS9_IiEELb1EEENS6_ISG_EEE5beginB8ue170006Ev, symObjAddr: 0x1E6EC, symBinAddr: 0x1000218A4, symSize: 0x34 }
  - { offsetInCU: 0x46A29, offset: 0x46A29, size: 0x8, addend: 0x0, symName: __ZNSt3__120__map_const_iteratorINS_21__tree_const_iteratorINS_12__value_typeIiNS_3mapINS_12basic_stringIcNS_11char_traitsIcEENS_9allocatorIcEEEEiNS_4lessIS9_EENS7_INS_4pairIKS9_iEEEEEEEEPNS_11__tree_nodeISH_PvEElEEEC1B8ue170006ESM_, symObjAddr: 0x1E720, symBinAddr: 0x1000218D8, symSize: 0x34 }
  - { offsetInCU: 0x46A62, offset: 0x46A62, size: 0x8, addend: 0x0, symName: __ZNKSt3__16__treeINS_12__value_typeIiNS_3mapINS_12basic_stringIcNS_11char_traitsIcEENS_9allocatorIcEEEEiNS_4lessIS8_EENS6_INS_4pairIKS8_iEEEEEEEENS_19__map_value_compareIiSG_NS9_IiEELb1EEENS6_ISG_EEE12__begin_nodeB8ue170006Ev, symObjAddr: 0x1E754, symBinAddr: 0x10002190C, symSize: 0x14 }
  - { offsetInCU: 0x46A88, offset: 0x46A88, size: 0x8, addend: 0x0, symName: __ZNSt3__121__tree_const_iteratorINS_12__value_typeIiNS_3mapINS_12basic_stringIcNS_11char_traitsIcEENS_9allocatorIcEEEEiNS_4lessIS8_EENS6_INS_4pairIKS8_iEEEEEEEEPNS_11__tree_nodeISG_PvEElEC1B8ue170006EPNS_15__tree_end_nodeIPNS_16__tree_node_baseISI_EEEE, symObjAddr: 0x1E768, symBinAddr: 0x100021920, symSize: 0x34 }
  - { offsetInCU: 0x46AC1, offset: 0x46AC1, size: 0x8, addend: 0x0, symName: __ZNSt3__121__tree_const_iteratorINS_12__value_typeIiNS_3mapINS_12basic_stringIcNS_11char_traitsIcEENS_9allocatorIcEEEEiNS_4lessIS8_EENS6_INS_4pairIKS8_iEEEEEEEEPNS_11__tree_nodeISG_PvEElEC2B8ue170006EPNS_15__tree_end_nodeIPNS_16__tree_node_baseISI_EEEE, symObjAddr: 0x1E79C, symBinAddr: 0x100021954, symSize: 0x20 }
  - { offsetInCU: 0x46AFA, offset: 0x46AFA, size: 0x8, addend: 0x0, symName: __ZNSt3__120__map_const_iteratorINS_21__tree_const_iteratorINS_12__value_typeIiNS_3mapINS_12basic_stringIcNS_11char_traitsIcEENS_9allocatorIcEEEEiNS_4lessIS9_EENS7_INS_4pairIKS9_iEEEEEEEEPNS_11__tree_nodeISH_PvEElEEEC2B8ue170006ESM_, symObjAddr: 0x1E7BC, symBinAddr: 0x100021974, symSize: 0x20 }
  - { offsetInCU: 0x46B33, offset: 0x46B33, size: 0x8, addend: 0x0, symName: __ZNKSt3__16__treeINS_12__value_typeIiNS_3mapINS_12basic_stringIcNS_11char_traitsIcEENS_9allocatorIcEEEEiNS_4lessIS8_EENS6_INS_4pairIKS8_iEEEEEEEENS_19__map_value_compareIiSG_NS9_IiEELb1EEENS6_ISG_EEE3endB8ue170006Ev, symObjAddr: 0x1E7DC, symBinAddr: 0x100021994, symSize: 0x34 }
  - { offsetInCU: 0x46B59, offset: 0x46B59, size: 0x8, addend: 0x0, symName: __ZNSt3__121__tree_const_iteratorINS_12__value_typeIiNS_3mapINS_12basic_stringIcNS_11char_traitsIcEENS_9allocatorIcEEEEiNS_4lessIS8_EENS6_INS_4pairIKS8_iEEEEEEEEPNS_11__tree_nodeISG_PvEElEppB8ue170006Ev, symObjAddr: 0x1E874, symBinAddr: 0x100021A2C, symSize: 0x38 }
  - { offsetInCU: 0x46B7F, offset: 0x46B7F, size: 0x8, addend: 0x0, symName: __ZNKSt3__121__tree_const_iteratorINS_12__value_typeIiNS_3mapINS_12basic_stringIcNS_11char_traitsIcEENS_9allocatorIcEEEEiNS_4lessIS8_EENS6_INS_4pairIKS8_iEEEEEEEEPNS_11__tree_nodeISG_PvEElEptB8ue170006Ev, symObjAddr: 0x1E8AC, symBinAddr: 0x100021A64, symSize: 0x2C }
  - { offsetInCU: 0x46BA5, offset: 0x46BA5, size: 0x8, addend: 0x0, symName: __ZNSt3__114pointer_traitsIPKNS_12__value_typeIiNS_3mapINS_12basic_stringIcNS_11char_traitsIcEENS_9allocatorIcEEEEiNS_4lessIS8_EENS6_INS_4pairIKS8_iEEEEEEEEE10pointer_toB8ue170006ERSH_, symObjAddr: 0x1E8D8, symBinAddr: 0x100021A90, symSize: 0x14 }
  - { offsetInCU: 0x46BC8, offset: 0x46BC8, size: 0x8, addend: 0x0, symName: __ZNKSt3__121__tree_const_iteratorINS_12__value_typeIiNS_3mapINS_12basic_stringIcNS_11char_traitsIcEENS_9allocatorIcEEEEiNS_4lessIS8_EENS6_INS_4pairIKS8_iEEEEEEEEPNS_11__tree_nodeISG_PvEElE8__get_npB8ue170006Ev, symObjAddr: 0x1E8EC, symBinAddr: 0x100021AA4, symSize: 0x18 }
  - { offsetInCU: 0x46BEE, offset: 0x46BEE, size: 0x8, addend: 0x0, symName: __ZNKSt3__16__treeINS_12__value_typeINS_12basic_stringIcNS_11char_traitsIcEENS_9allocatorIcEEEEiEENS_19__map_value_compareIS7_S8_NS_4lessIS7_EELb1EEENS5_IS8_EEE5beginB8ue170006Ev, symObjAddr: 0x1E904, symBinAddr: 0x100021ABC, symSize: 0x34 }
  - { offsetInCU: 0x46C14, offset: 0x46C14, size: 0x8, addend: 0x0, symName: __ZNSt3__120__map_const_iteratorINS_21__tree_const_iteratorINS_12__value_typeINS_12basic_stringIcNS_11char_traitsIcEENS_9allocatorIcEEEEiEEPNS_11__tree_nodeIS9_PvEElEEEC1B8ue170006ESE_, symObjAddr: 0x1E938, symBinAddr: 0x100021AF0, symSize: 0x34 }
  - { offsetInCU: 0x46C4D, offset: 0x46C4D, size: 0x8, addend: 0x0, symName: __ZNKSt3__16__treeINS_12__value_typeINS_12basic_stringIcNS_11char_traitsIcEENS_9allocatorIcEEEEiEENS_19__map_value_compareIS7_S8_NS_4lessIS7_EELb1EEENS5_IS8_EEE12__begin_nodeB8ue170006Ev, symObjAddr: 0x1E96C, symBinAddr: 0x100021B24, symSize: 0x14 }
  - { offsetInCU: 0x46C73, offset: 0x46C73, size: 0x8, addend: 0x0, symName: __ZNSt3__121__tree_const_iteratorINS_12__value_typeINS_12basic_stringIcNS_11char_traitsIcEENS_9allocatorIcEEEEiEEPNS_11__tree_nodeIS8_PvEElEC1B8ue170006EPNS_15__tree_end_nodeIPNS_16__tree_node_baseISA_EEEE, symObjAddr: 0x1E980, symBinAddr: 0x100021B38, symSize: 0x34 }
  - { offsetInCU: 0x46CAC, offset: 0x46CAC, size: 0x8, addend: 0x0, symName: __ZNSt3__121__tree_const_iteratorINS_12__value_typeINS_12basic_stringIcNS_11char_traitsIcEENS_9allocatorIcEEEEiEEPNS_11__tree_nodeIS8_PvEElEC2B8ue170006EPNS_15__tree_end_nodeIPNS_16__tree_node_baseISA_EEEE, symObjAddr: 0x1E9B4, symBinAddr: 0x100021B6C, symSize: 0x20 }
  - { offsetInCU: 0x46CE5, offset: 0x46CE5, size: 0x8, addend: 0x0, symName: __ZNSt3__120__map_const_iteratorINS_21__tree_const_iteratorINS_12__value_typeINS_12basic_stringIcNS_11char_traitsIcEENS_9allocatorIcEEEEiEEPNS_11__tree_nodeIS9_PvEElEEEC2B8ue170006ESE_, symObjAddr: 0x1E9D4, symBinAddr: 0x100021B8C, symSize: 0x20 }
  - { offsetInCU: 0x46D1E, offset: 0x46D1E, size: 0x8, addend: 0x0, symName: __ZNKSt3__16__treeINS_12__value_typeINS_12basic_stringIcNS_11char_traitsIcEENS_9allocatorIcEEEEiEENS_19__map_value_compareIS7_S8_NS_4lessIS7_EELb1EEENS5_IS8_EEE3endB8ue170006Ev, symObjAddr: 0x1E9F4, symBinAddr: 0x100021BAC, symSize: 0x34 }
  - { offsetInCU: 0x46D44, offset: 0x46D44, size: 0x8, addend: 0x0, symName: __ZNSt3__16__treeINS_12__value_typeIiNS_6vectorINS_12basic_stringIcNS_11char_traitsIcEENS_9allocatorIcEEEENS6_IS8_EEEEEENS_19__map_value_compareIiSB_NS_4lessIiEELb1EEENS6_ISB_EEE5beginB8ue170006Ev, symObjAddr: 0x1EA28, symBinAddr: 0x100021BE0, symSize: 0x34 }
  - { offsetInCU: 0x46D6A, offset: 0x46D6A, size: 0x8, addend: 0x0, symName: __ZNSt3__114__map_iteratorINS_15__tree_iteratorINS_12__value_typeIiNS_6vectorINS_12basic_stringIcNS_11char_traitsIcEENS_9allocatorIcEEEENS7_IS9_EEEEEEPNS_11__tree_nodeISC_PvEElEEEC1B8ue170006ESH_, symObjAddr: 0x1EA5C, symBinAddr: 0x100021C14, symSize: 0x34 }
  - { offsetInCU: 0x46DA3, offset: 0x46DA3, size: 0x8, addend: 0x0, symName: __ZNSt3__115__tree_iteratorINS_12__value_typeIiNS_6vectorINS_12basic_stringIcNS_11char_traitsIcEENS_9allocatorIcEEEENS6_IS8_EEEEEEPNS_11__tree_nodeISB_PvEElEC1B8ue170006EPNS_15__tree_end_nodeIPNS_16__tree_node_baseISD_EEEE, symObjAddr: 0x1EA90, symBinAddr: 0x100021C48, symSize: 0x34 }
  - { offsetInCU: 0x46DDC, offset: 0x46DDC, size: 0x8, addend: 0x0, symName: __ZNSt3__115__tree_iteratorINS_12__value_typeIiNS_6vectorINS_12basic_stringIcNS_11char_traitsIcEENS_9allocatorIcEEEENS6_IS8_EEEEEEPNS_11__tree_nodeISB_PvEElEC2B8ue170006EPNS_15__tree_end_nodeIPNS_16__tree_node_baseISD_EEEE, symObjAddr: 0x1EAC4, symBinAddr: 0x100021C7C, symSize: 0x20 }
  - { offsetInCU: 0x46E15, offset: 0x46E15, size: 0x8, addend: 0x0, symName: __ZNSt3__114__map_iteratorINS_15__tree_iteratorINS_12__value_typeIiNS_6vectorINS_12basic_stringIcNS_11char_traitsIcEENS_9allocatorIcEEEENS7_IS9_EEEEEEPNS_11__tree_nodeISC_PvEElEEEC2B8ue170006ESH_, symObjAddr: 0x1EAE4, symBinAddr: 0x100021C9C, symSize: 0x20 }
  - { offsetInCU: 0x46E4E, offset: 0x46E4E, size: 0x8, addend: 0x0, symName: __ZNSt3__16__treeINS_12__value_typeIiNS_6vectorINS_12basic_stringIcNS_11char_traitsIcEENS_9allocatorIcEEEENS6_IS8_EEEEEENS_19__map_value_compareIiSB_NS_4lessIiEELb1EEENS6_ISB_EEE3endB8ue170006Ev, symObjAddr: 0x1EB04, symBinAddr: 0x100021CBC, symSize: 0x34 }
  - { offsetInCU: 0x46E74, offset: 0x46E74, size: 0x8, addend: 0x0, symName: __ZNSt3__115__tree_iteratorINS_12__value_typeIiNS_6vectorINS_12basic_stringIcNS_11char_traitsIcEENS_9allocatorIcEEEENS6_IS8_EEEEEEPNS_11__tree_nodeISB_PvEElEppB8ue170006Ev, symObjAddr: 0x1EB9C, symBinAddr: 0x100021D54, symSize: 0x38 }
  - { offsetInCU: 0x46E9A, offset: 0x46E9A, size: 0x8, addend: 0x0, symName: __ZNSt3__13mapINS_6vectorINS_12basic_stringIcNS_11char_traitsIcEENS_9allocatorIcEEEENS5_IS7_EEEENS1_IiNS5_IiEEEENS_4lessIS9_EENS5_INS_4pairIKS9_SB_EEEEEC2B8ue170006Ev, symObjAddr: 0x1EBD4, symBinAddr: 0x100021D8C, symSize: 0x40 }
  - { offsetInCU: 0x46EC4, offset: 0x46EC4, size: 0x8, addend: 0x0, symName: __ZNSt3__119__map_value_compareINS_6vectorINS_12basic_stringIcNS_11char_traitsIcEENS_9allocatorIcEEEENS5_IS7_EEEENS_12__value_typeIS9_NS1_IiNS5_IiEEEEEENS_4lessIS9_EELb1EEC1B8ue170006ESF_, symObjAddr: 0x1EC14, symBinAddr: 0x100021DCC, symSize: 0x2C }
  - { offsetInCU: 0x46EFD, offset: 0x46EFD, size: 0x8, addend: 0x0, symName: __ZNSt3__16__treeINS_12__value_typeINS_6vectorINS_12basic_stringIcNS_11char_traitsIcEENS_9allocatorIcEEEENS6_IS8_EEEENS2_IiNS6_IiEEEEEENS_19__map_value_compareISA_SD_NS_4lessISA_EELb1EEENS6_ISD_EEEC1ERKSH_, symObjAddr: 0x1EC40, symBinAddr: 0x100021DF8, symSize: 0x34 }
  - { offsetInCU: 0x46F38, offset: 0x46F38, size: 0x8, addend: 0x0, symName: __ZNSt3__119__map_value_compareINS_6vectorINS_12basic_stringIcNS_11char_traitsIcEENS_9allocatorIcEEEENS5_IS7_EEEENS_12__value_typeIS9_NS1_IiNS5_IiEEEEEENS_4lessIS9_EELb1EEC2B8ue170006ESF_, symObjAddr: 0x1EC74, symBinAddr: 0x100021E2C, symSize: 0x14 }
  - { offsetInCU: 0x46F71, offset: 0x46F71, size: 0x8, addend: 0x0, symName: __ZNSt3__16__treeINS_12__value_typeINS_6vectorINS_12basic_stringIcNS_11char_traitsIcEENS_9allocatorIcEEEENS6_IS8_EEEENS2_IiNS6_IiEEEEEENS_19__map_value_compareISA_SD_NS_4lessISA_EELb1EEENS6_ISD_EEEC2ERKSH_, symObjAddr: 0x1EC88, symBinAddr: 0x100021E40, symSize: 0x7C }
  - { offsetInCU: 0x46FAC, offset: 0x46FAC, size: 0x8, addend: 0x0, symName: __ZNSt3__117__compressed_pairINS_15__tree_end_nodeIPNS_16__tree_node_baseIPvEEEENS_9allocatorINS_11__tree_nodeINS_12__value_typeINS_6vectorINS_12basic_stringIcNS_11char_traitsIcEENS7_IcEEEENS7_ISF_EEEENSA_IiNS7_IiEEEEEES3_EEEEEC1B8ue170006ILb1EvEEv, symObjAddr: 0x1ED04, symBinAddr: 0x100021EBC, symSize: 0x2C }
  - { offsetInCU: 0x46FE1, offset: 0x46FE1, size: 0x8, addend: 0x0, symName: __ZNSt3__117__compressed_pairImNS_19__map_value_compareINS_6vectorINS_12basic_stringIcNS_11char_traitsIcEENS_9allocatorIcEEEENS6_IS8_EEEENS_12__value_typeISA_NS2_IiNS6_IiEEEEEENS_4lessISA_EELb1EEEEC1B8ue170006IiRKSH_EEOT_OT0_, symObjAddr: 0x1ED30, symBinAddr: 0x100021EE8, symSize: 0x3C }
  - { offsetInCU: 0x47039, offset: 0x47039, size: 0x8, addend: 0x0, symName: __ZNSt3__16__treeINS_12__value_typeINS_6vectorINS_12basic_stringIcNS_11char_traitsIcEENS_9allocatorIcEEEENS6_IS8_EEEENS2_IiNS6_IiEEEEEENS_19__map_value_compareISA_SD_NS_4lessISA_EELb1EEENS6_ISD_EEE10__end_nodeB8ue170006Ev, symObjAddr: 0x1ED6C, symBinAddr: 0x100021F24, symSize: 0x2C }
  - { offsetInCU: 0x4705F, offset: 0x4705F, size: 0x8, addend: 0x0, symName: __ZNSt3__16__treeINS_12__value_typeINS_6vectorINS_12basic_stringIcNS_11char_traitsIcEENS_9allocatorIcEEEENS6_IS8_EEEENS2_IiNS6_IiEEEEEENS_19__map_value_compareISA_SD_NS_4lessISA_EELb1EEENS6_ISD_EEE12__begin_nodeB8ue170006Ev, symObjAddr: 0x1ED98, symBinAddr: 0x100021F50, symSize: 0x14 }
  - { offsetInCU: 0x47085, offset: 0x47085, size: 0x8, addend: 0x0, symName: __ZNSt3__117__compressed_pairINS_15__tree_end_nodeIPNS_16__tree_node_baseIPvEEEENS_9allocatorINS_11__tree_nodeINS_12__value_typeINS_6vectorINS_12basic_stringIcNS_11char_traitsIcEENS7_IcEEEENS7_ISF_EEEENSA_IiNS7_IiEEEEEES3_EEEEEC2B8ue170006ILb1EvEEv, symObjAddr: 0x1EDAC, symBinAddr: 0x100021F64, symSize: 0x34 }
  - { offsetInCU: 0x470BA, offset: 0x470BA, size: 0x8, addend: 0x0, symName: __ZNSt3__122__compressed_pair_elemINS_9allocatorINS_11__tree_nodeINS_12__value_typeINS_6vectorINS_12basic_stringIcNS_11char_traitsIcEENS1_IcEEEENS1_IS9_EEEENS4_IiNS1_IiEEEEEEPvEEEELi1ELb1EEC2B8ue170006ENS_16__value_init_tagE, symObjAddr: 0x1EDE0, symBinAddr: 0x100021F98, symSize: 0x2C }
  - { offsetInCU: 0x470EF, offset: 0x470EF, size: 0x8, addend: 0x0, symName: __ZNSt3__19allocatorINS_11__tree_nodeINS_12__value_typeINS_6vectorINS_12basic_stringIcNS_11char_traitsIcEENS0_IcEEEENS0_IS8_EEEENS3_IiNS0_IiEEEEEEPvEEEC2B8ue170006Ev, symObjAddr: 0x1EE0C, symBinAddr: 0x100021FC4, symSize: 0x2C }
  - { offsetInCU: 0x47119, offset: 0x47119, size: 0x8, addend: 0x0, symName: __ZNSt3__116__non_trivial_ifILb1ENS_9allocatorINS_11__tree_nodeINS_12__value_typeINS_6vectorINS_12basic_stringIcNS_11char_traitsIcEENS1_IcEEEENS1_IS9_EEEENS4_IiNS1_IiEEEEEEPvEEEEEC2B8ue170006Ev, symObjAddr: 0x1EE38, symBinAddr: 0x100021FF0, symSize: 0x14 }
  - { offsetInCU: 0x47143, offset: 0x47143, size: 0x8, addend: 0x0, symName: __ZNSt3__117__compressed_pairImNS_19__map_value_compareINS_6vectorINS_12basic_stringIcNS_11char_traitsIcEENS_9allocatorIcEEEENS6_IS8_EEEENS_12__value_typeISA_NS2_IiNS6_IiEEEEEENS_4lessISA_EELb1EEEEC2B8ue170006IiRKSH_EEOT_OT0_, symObjAddr: 0x1EE4C, symBinAddr: 0x100022004, symSize: 0x44 }
  - { offsetInCU: 0x4719B, offset: 0x4719B, size: 0x8, addend: 0x0, symName: __ZNSt3__122__compressed_pair_elemINS_19__map_value_compareINS_6vectorINS_12basic_stringIcNS_11char_traitsIcEENS_9allocatorIcEEEENS6_IS8_EEEENS_12__value_typeISA_NS2_IiNS6_IiEEEEEENS_4lessISA_EELb1EEELi1ELb1EEC2B8ue170006IRKSH_vEEOT_, symObjAddr: 0x1EE90, symBinAddr: 0x100022048, symSize: 0x18 }
  - { offsetInCU: 0x471DD, offset: 0x471DD, size: 0x8, addend: 0x0, symName: __ZNSt3__117__compressed_pairINS_15__tree_end_nodeIPNS_16__tree_node_baseIPvEEEENS_9allocatorINS_11__tree_nodeINS_12__value_typeINS_6vectorINS_12basic_stringIcNS_11char_traitsIcEENS7_IcEEEENS7_ISF_EEEENSA_IiNS7_IiEEEEEES3_EEEEE5firstB8ue170006Ev, symObjAddr: 0x1EEA8, symBinAddr: 0x100022060, symSize: 0x24 }
  - { offsetInCU: 0x47203, offset: 0x47203, size: 0x8, addend: 0x0, symName: __ZNSt3__13mapINS_6vectorINS_12basic_stringIcNS_11char_traitsIcEENS_9allocatorIcEEEENS5_IS7_EEEENS1_IiNS5_IiEEEENS_4lessIS9_EENS5_INS_4pairIKS9_SB_EEEEED2B8ue170006Ev, symObjAddr: 0x1EECC, symBinAddr: 0x100022084, symSize: 0x2C }
  - { offsetInCU: 0x4722D, offset: 0x4722D, size: 0x8, addend: 0x0, symName: __ZNSt3__16__treeINS_12__value_typeINS_6vectorINS_12basic_stringIcNS_11char_traitsIcEENS_9allocatorIcEEEENS6_IS8_EEEENS2_IiNS6_IiEEEEEENS_19__map_value_compareISA_SD_NS_4lessISA_EELb1EEENS6_ISD_EEED1Ev, symObjAddr: 0x1EEF8, symBinAddr: 0x1000220B0, symSize: 0x2C }
  - { offsetInCU: 0x47259, offset: 0x47259, size: 0x8, addend: 0x0, symName: __ZNSt3__16__treeINS_12__value_typeINS_6vectorINS_12basic_stringIcNS_11char_traitsIcEENS_9allocatorIcEEEENS6_IS8_EEEENS2_IiNS6_IiEEEEEENS_19__map_value_compareISA_SD_NS_4lessISA_EELb1EEENS6_ISD_EEED2Ev, symObjAddr: 0x1EF24, symBinAddr: 0x1000220DC, symSize: 0x38 }
  - { offsetInCU: 0x47285, offset: 0x47285, size: 0x8, addend: 0x0, symName: __ZNSt3__16__treeINS_12__value_typeINS_6vectorINS_12basic_stringIcNS_11char_traitsIcEENS_9allocatorIcEEEENS6_IS8_EEEENS2_IiNS6_IiEEEEEENS_19__map_value_compareISA_SD_NS_4lessISA_EELb1EEENS6_ISD_EEE7destroyEPNS_11__tree_nodeISD_PvEE, symObjAddr: 0x1EF5C, symBinAddr: 0x100022114, symSize: 0xAC }
  - { offsetInCU: 0x472D1, offset: 0x472D1, size: 0x8, addend: 0x0, symName: __ZNKSt3__16__treeINS_12__value_typeINS_6vectorINS_12basic_stringIcNS_11char_traitsIcEENS_9allocatorIcEEEENS6_IS8_EEEENS2_IiNS6_IiEEEEEENS_19__map_value_compareISA_SD_NS_4lessISA_EELb1EEENS6_ISD_EEE6__rootB8ue170006Ev, symObjAddr: 0x1F008, symBinAddr: 0x1000221C0, symSize: 0x28 }
  - { offsetInCU: 0x472F7, offset: 0x472F7, size: 0x8, addend: 0x0, symName: __ZNSt3__16__treeINS_12__value_typeINS_6vectorINS_12basic_stringIcNS_11char_traitsIcEENS_9allocatorIcEEEENS6_IS8_EEEENS2_IiNS6_IiEEEEEENS_19__map_value_compareISA_SD_NS_4lessISA_EELb1EEENS6_ISD_EEE12__node_allocB8ue170006Ev, symObjAddr: 0x1F030, symBinAddr: 0x1000221E8, symSize: 0x28 }
  - { offsetInCU: 0x4731D, offset: 0x4731D, size: 0x8, addend: 0x0, symName: __ZNSt3__116allocator_traitsINS_9allocatorINS_11__tree_nodeINS_12__value_typeINS_6vectorINS_12basic_stringIcNS_11char_traitsIcEENS1_IcEEEENS1_IS9_EEEENS4_IiNS1_IiEEEEEEPvEEEEE7destroyB8ue170006INS_4pairIKSB_SD_EEvvEEvRSH_PT_, symObjAddr: 0x1F058, symBinAddr: 0x100022210, symSize: 0x28 }
  - { offsetInCU: 0x47358, offset: 0x47358, size: 0x8, addend: 0x0, symName: __ZNSt3__122__tree_key_value_typesINS_12__value_typeINS_6vectorINS_12basic_stringIcNS_11char_traitsIcEENS_9allocatorIcEEEENS6_IS8_EEEENS2_IiNS6_IiEEEEEEE9__get_ptrB8ue170006ERSD_, symObjAddr: 0x1F080, symBinAddr: 0x100022238, symSize: 0x24 }
  - { offsetInCU: 0x4737C, offset: 0x4737C, size: 0x8, addend: 0x0, symName: __ZNSt3__116allocator_traitsINS_9allocatorINS_11__tree_nodeINS_12__value_typeINS_6vectorINS_12basic_stringIcNS_11char_traitsIcEENS1_IcEEEENS1_IS9_EEEENS4_IiNS1_IiEEEEEEPvEEEEE10deallocateB8ue170006ERSH_PSG_m, symObjAddr: 0x1F0A4, symBinAddr: 0x10002225C, symSize: 0x34 }
  - { offsetInCU: 0x473BE, offset: 0x473BE, size: 0x8, addend: 0x0, symName: __ZNSt3__117__compressed_pairINS_15__tree_end_nodeIPNS_16__tree_node_baseIPvEEEENS_9allocatorINS_11__tree_nodeINS_12__value_typeINS_6vectorINS_12basic_stringIcNS_11char_traitsIcEENS7_IcEEEENS7_ISF_EEEENSA_IiNS7_IiEEEEEES3_EEEEE6secondB8ue170006Ev, symObjAddr: 0x1F0D8, symBinAddr: 0x100022290, symSize: 0x24 }
  - { offsetInCU: 0x473E4, offset: 0x473E4, size: 0x8, addend: 0x0, symName: __ZNSt3__122__compressed_pair_elemINS_9allocatorINS_11__tree_nodeINS_12__value_typeINS_6vectorINS_12basic_stringIcNS_11char_traitsIcEENS1_IcEEEENS1_IS9_EEEENS4_IiNS1_IiEEEEEEPvEEEELi1ELb1EE5__getB8ue170006Ev, symObjAddr: 0x1F0FC, symBinAddr: 0x1000222B4, symSize: 0x14 }
  - { offsetInCU: 0x4740A, offset: 0x4740A, size: 0x8, addend: 0x0, symName: __ZNSt3__14pairIKNS_6vectorINS_12basic_stringIcNS_11char_traitsIcEENS_9allocatorIcEEEENS5_IS7_EEEENS1_IiNS5_IiEEEEED1Ev, symObjAddr: 0x1F158, symBinAddr: 0x100022310, symSize: 0x2C }
  - { offsetInCU: 0x47436, offset: 0x47436, size: 0x8, addend: 0x0, symName: __ZNSt3__14pairIKNS_6vectorINS_12basic_stringIcNS_11char_traitsIcEENS_9allocatorIcEEEENS5_IS7_EEEENS1_IiNS5_IiEEEEED2Ev, symObjAddr: 0x1F184, symBinAddr: 0x10002233C, symSize: 0x38 }
  - { offsetInCU: 0x47462, offset: 0x47462, size: 0x8, addend: 0x0, symName: __ZNSt3__112__value_typeINS_6vectorINS_12basic_stringIcNS_11char_traitsIcEENS_9allocatorIcEEEENS5_IS7_EEEENS1_IiNS5_IiEEEEE11__get_valueB8ue170006Ev, symObjAddr: 0x1F1BC, symBinAddr: 0x100022374, symSize: 0x24 }
  - { offsetInCU: 0x47488, offset: 0x47488, size: 0x8, addend: 0x0, symName: __ZNSt3__19allocatorINS_11__tree_nodeINS_12__value_typeINS_6vectorINS_12basic_stringIcNS_11char_traitsIcEENS0_IcEEEENS0_IS8_EEEENS3_IiNS0_IiEEEEEEPvEEE10deallocateB8ue170006EPSF_m, symObjAddr: 0x1F218, symBinAddr: 0x1000223D0, symSize: 0x44 }
  - { offsetInCU: 0x474CA, offset: 0x474CA, size: 0x8, addend: 0x0, symName: __ZNKSt3__16__treeINS_12__value_typeINS_6vectorINS_12basic_stringIcNS_11char_traitsIcEENS_9allocatorIcEEEENS6_IS8_EEEENS2_IiNS6_IiEEEEEENS_19__map_value_compareISA_SD_NS_4lessISA_EELb1EEENS6_ISD_EEE10__end_nodeB8ue170006Ev, symObjAddr: 0x1F25C, symBinAddr: 0x100022414, symSize: 0x2C }
  - { offsetInCU: 0x474F0, offset: 0x474F0, size: 0x8, addend: 0x0, symName: __ZNKSt3__117__compressed_pairINS_15__tree_end_nodeIPNS_16__tree_node_baseIPvEEEENS_9allocatorINS_11__tree_nodeINS_12__value_typeINS_6vectorINS_12basic_stringIcNS_11char_traitsIcEENS7_IcEEEENS7_ISF_EEEENSA_IiNS7_IiEEEEEES3_EEEEE5firstB8ue170006Ev, symObjAddr: 0x1F288, symBinAddr: 0x100022440, symSize: 0x24 }
  - { offsetInCU: 0x47516, offset: 0x47516, size: 0x8, addend: 0x0, symName: __ZNKSt3__16__treeINS_12__value_typeIiNS_6vectorINS_12basic_stringIcNS_11char_traitsIcEENS_9allocatorIcEEEENS6_IS8_EEEEEENS_19__map_value_compareIiSB_NS_4lessIiEELb1EEENS6_ISB_EEE5beginB8ue170006Ev, symObjAddr: 0x1F2AC, symBinAddr: 0x100022464, symSize: 0x34 }
  - { offsetInCU: 0x4753C, offset: 0x4753C, size: 0x8, addend: 0x0, symName: __ZNKSt3__16__treeINS_12__value_typeIiNS_6vectorINS_12basic_stringIcNS_11char_traitsIcEENS_9allocatorIcEEEENS6_IS8_EEEEEENS_19__map_value_compareIiSB_NS_4lessIiEELb1EEENS6_ISB_EEE12__begin_nodeB8ue170006Ev, symObjAddr: 0x1F2E0, symBinAddr: 0x100022498, symSize: 0x14 }
  - { offsetInCU: 0x47562, offset: 0x47562, size: 0x8, addend: 0x0, symName: __ZNSt3__121__tree_const_iteratorINS_12__value_typeIiNS_6vectorINS_12basic_stringIcNS_11char_traitsIcEENS_9allocatorIcEEEENS6_IS8_EEEEEEPNS_11__tree_nodeISB_PvEElEppB8ue170006Ev, symObjAddr: 0x1F2F4, symBinAddr: 0x1000224AC, symSize: 0x38 }
  - { offsetInCU: 0x47588, offset: 0x47588, size: 0x8, addend: 0x0, symName: __ZNKSt3__121__tree_const_iteratorINS_12__value_typeIiNS_6vectorINS_12basic_stringIcNS_11char_traitsIcEENS_9allocatorIcEEEENS6_IS8_EEEEEEPNS_11__tree_nodeISB_PvEElEptB8ue170006Ev, symObjAddr: 0x1F32C, symBinAddr: 0x1000224E4, symSize: 0x2C }
  - { offsetInCU: 0x475AE, offset: 0x475AE, size: 0x8, addend: 0x0, symName: __ZNSt3__114pointer_traitsIPKNS_12__value_typeIiNS_6vectorINS_12basic_stringIcNS_11char_traitsIcEENS_9allocatorIcEEEENS6_IS8_EEEEEEE10pointer_toB8ue170006ERSC_, symObjAddr: 0x1F358, symBinAddr: 0x100022510, symSize: 0x14 }
  - { offsetInCU: 0x475D1, offset: 0x475D1, size: 0x8, addend: 0x0, symName: __ZNSt3__16__treeINS_12__value_typeINS_6vectorINS_12basic_stringIcNS_11char_traitsIcEENS_9allocatorIcEEEENS6_IS8_EEEENS2_IiNS6_IiEEEEEENS_19__map_value_compareISA_SD_NS_4lessISA_EELb1EEENS6_ISD_EEE25__emplace_unique_key_argsISA_JRKNS_21piecewise_construct_tENS_5tupleIJRKSA_EEENSO_IJEEEEEENS_4pairINS_15__tree_iteratorISD_PNS_11__tree_nodeISD_PvEElEEbEERKT_DpOT0_, symObjAddr: 0x1F36C, symBinAddr: 0x100022524, symSize: 0x100 }
  - { offsetInCU: 0x476A7, offset: 0x476A7, size: 0x8, addend: 0x0, symName: __ZNKSt3__115__tree_iteratorINS_12__value_typeINS_6vectorINS_12basic_stringIcNS_11char_traitsIcEENS_9allocatorIcEEEENS6_IS8_EEEENS2_IiNS6_IiEEEEEEPNS_11__tree_nodeISD_PvEElEptB8ue170006Ev, symObjAddr: 0x1F498, symBinAddr: 0x100022650, symSize: 0x2C }
  - { offsetInCU: 0x476CD, offset: 0x476CD, size: 0x8, addend: 0x0, symName: __ZNSt3__16__treeINS_12__value_typeINS_6vectorINS_12basic_stringIcNS_11char_traitsIcEENS_9allocatorIcEEEENS6_IS8_EEEENS2_IiNS6_IiEEEEEENS_19__map_value_compareISA_SD_NS_4lessISA_EELb1EEENS6_ISD_EEE12__find_equalISA_EERPNS_16__tree_node_baseIPvEERPNS_15__tree_end_nodeISO_EERKT_, symObjAddr: 0x1F4C4, symBinAddr: 0x10002267C, symSize: 0x184 }
  - { offsetInCU: 0x4773A, offset: 0x4773A, size: 0x8, addend: 0x0, symName: __ZNSt3__16__treeINS_12__value_typeINS_6vectorINS_12basic_stringIcNS_11char_traitsIcEENS_9allocatorIcEEEENS6_IS8_EEEENS2_IiNS6_IiEEEEEENS_19__map_value_compareISA_SD_NS_4lessISA_EELb1EEENS6_ISD_EEE16__construct_nodeIJRKNS_21piecewise_construct_tENS_5tupleIJRKSA_EEENSO_IJEEEEEENS_10unique_ptrINS_11__tree_nodeISD_PvEENS_22__tree_node_destructorINS6_ISW_EEEEEEDpOT_, symObjAddr: 0x1F648, symBinAddr: 0x100022800, symSize: 0x120 }
  - { offsetInCU: 0x477C3, offset: 0x477C3, size: 0x8, addend: 0x0, symName: __ZNSt3__16__treeINS_12__value_typeINS_6vectorINS_12basic_stringIcNS_11char_traitsIcEENS_9allocatorIcEEEENS6_IS8_EEEENS2_IiNS6_IiEEEEEENS_19__map_value_compareISA_SD_NS_4lessISA_EELb1EEENS6_ISD_EEE16__insert_node_atEPNS_15__tree_end_nodeIPNS_16__tree_node_baseIPvEEEERSO_SO_, symObjAddr: 0x1F768, symBinAddr: 0x100022920, symSize: 0xCC }
  - { offsetInCU: 0x47818, offset: 0x47818, size: 0x8, addend: 0x0, symName: __ZNKSt3__110unique_ptrINS_11__tree_nodeINS_12__value_typeINS_6vectorINS_12basic_stringIcNS_11char_traitsIcEENS_9allocatorIcEEEENS7_IS9_EEEENS3_IiNS7_IiEEEEEEPvEENS_22__tree_node_destructorINS7_ISG_EEEEE3getB8ue170006Ev, symObjAddr: 0x1F834, symBinAddr: 0x1000229EC, symSize: 0x28 }
  - { offsetInCU: 0x4783E, offset: 0x4783E, size: 0x8, addend: 0x0, symName: __ZNSt3__110unique_ptrINS_11__tree_nodeINS_12__value_typeINS_6vectorINS_12basic_stringIcNS_11char_traitsIcEENS_9allocatorIcEEEENS7_IS9_EEEENS3_IiNS7_IiEEEEEEPvEENS_22__tree_node_destructorINS7_ISG_EEEEE7releaseB8ue170006Ev, symObjAddr: 0x1F85C, symBinAddr: 0x100022A14, symSize: 0x44 }
  - { offsetInCU: 0x47873, offset: 0x47873, size: 0x8, addend: 0x0, symName: __ZNSt3__110unique_ptrINS_11__tree_nodeINS_12__value_typeINS_6vectorINS_12basic_stringIcNS_11char_traitsIcEENS_9allocatorIcEEEENS7_IS9_EEEENS3_IiNS7_IiEEEEEEPvEENS_22__tree_node_destructorINS7_ISG_EEEEED1B8ue170006Ev, symObjAddr: 0x1F8A0, symBinAddr: 0x100022A58, symSize: 0x2C }
  - { offsetInCU: 0x4789D, offset: 0x4789D, size: 0x8, addend: 0x0, symName: __ZNSt3__115__tree_iteratorINS_12__value_typeINS_6vectorINS_12basic_stringIcNS_11char_traitsIcEENS_9allocatorIcEEEENS6_IS8_EEEENS2_IiNS6_IiEEEEEEPNS_11__tree_nodeISD_PvEElEC1B8ue170006ESH_, symObjAddr: 0x1F8CC, symBinAddr: 0x100022A84, symSize: 0x34 }
  - { offsetInCU: 0x478DC, offset: 0x478DC, size: 0x8, addend: 0x0, symName: __ZNSt3__14pairINS_15__tree_iteratorINS_12__value_typeINS_6vectorINS_12basic_stringIcNS_11char_traitsIcEENS_9allocatorIcEEEENS7_IS9_EEEENS3_IiNS7_IiEEEEEEPNS_11__tree_nodeISE_PvEElEEbEC1B8ue170006ISJ_RbLSG_0EEEOT_OT0_, symObjAddr: 0x1F900, symBinAddr: 0x100022AB8, symSize: 0x3C }
  - { offsetInCU: 0x4793A, offset: 0x4793A, size: 0x8, addend: 0x0, symName: __ZNKSt3__16__treeINS_12__value_typeINS_6vectorINS_12basic_stringIcNS_11char_traitsIcEENS_9allocatorIcEEEENS6_IS8_EEEENS2_IiNS6_IiEEEEEENS_19__map_value_compareISA_SD_NS_4lessISA_EELb1EEENS6_ISD_EEE10__root_ptrB8ue170006Ev, symObjAddr: 0x1F93C, symBinAddr: 0x100022AF4, symSize: 0x24 }
  - { offsetInCU: 0x47960, offset: 0x47960, size: 0x8, addend: 0x0, symName: __ZNSt3__16__treeINS_12__value_typeINS_6vectorINS_12basic_stringIcNS_11char_traitsIcEENS_9allocatorIcEEEENS6_IS8_EEEENS2_IiNS6_IiEEEEEENS_19__map_value_compareISA_SD_NS_4lessISA_EELb1EEENS6_ISD_EEE10value_compB8ue170006Ev, symObjAddr: 0x1F960, symBinAddr: 0x100022B18, symSize: 0x28 }
  - { offsetInCU: 0x47986, offset: 0x47986, size: 0x8, addend: 0x0, symName: __ZNKSt3__119__map_value_compareINS_6vectorINS_12basic_stringIcNS_11char_traitsIcEENS_9allocatorIcEEEENS5_IS7_EEEENS_12__value_typeIS9_NS1_IiNS5_IiEEEEEENS_4lessIS9_EELb1EEclB8ue170006ERKS9_RKSD_, symObjAddr: 0x1F988, symBinAddr: 0x100022B40, symSize: 0x50 }
  - { offsetInCU: 0x479CA, offset: 0x479CA, size: 0x8, addend: 0x0, symName: __ZNKSt3__119__map_value_compareINS_6vectorINS_12basic_stringIcNS_11char_traitsIcEENS_9allocatorIcEEEENS5_IS7_EEEENS_12__value_typeIS9_NS1_IiNS5_IiEEEEEENS_4lessIS9_EELb1EEclB8ue170006ERKSD_RKS9_, symObjAddr: 0x1F9D8, symBinAddr: 0x100022B90, symSize: 0x48 }
  - { offsetInCU: 0x47A0E, offset: 0x47A0E, size: 0x8, addend: 0x0, symName: __ZNSt3__117__compressed_pairImNS_19__map_value_compareINS_6vectorINS_12basic_stringIcNS_11char_traitsIcEENS_9allocatorIcEEEENS6_IS8_EEEENS_12__value_typeISA_NS2_IiNS6_IiEEEEEENS_4lessISA_EELb1EEEE6secondB8ue170006Ev, symObjAddr: 0x1FA20, symBinAddr: 0x100022BD8, symSize: 0x24 }
  - { offsetInCU: 0x47A34, offset: 0x47A34, size: 0x8, addend: 0x0, symName: __ZNSt3__122__compressed_pair_elemINS_19__map_value_compareINS_6vectorINS_12basic_stringIcNS_11char_traitsIcEENS_9allocatorIcEEEENS6_IS8_EEEENS_12__value_typeISA_NS2_IiNS6_IiEEEEEENS_4lessISA_EELb1EEELi1ELb1EE5__getB8ue170006Ev, symObjAddr: 0x1FA44, symBinAddr: 0x100022BFC, symSize: 0x14 }
  - { offsetInCU: 0x47A5A, offset: 0x47A5A, size: 0x8, addend: 0x0, symName: __ZNKSt3__14lessINS_6vectorINS_12basic_stringIcNS_11char_traitsIcEENS_9allocatorIcEEEENS5_IS7_EEEEEclB8ue170006ERKS9_SC_, symObjAddr: 0x1FA58, symBinAddr: 0x100022C10, symSize: 0x50 }
  - { offsetInCU: 0x47A9E, offset: 0x47A9E, size: 0x8, addend: 0x0, symName: __ZNKSt3__112__value_typeINS_6vectorINS_12basic_stringIcNS_11char_traitsIcEENS_9allocatorIcEEEENS5_IS7_EEEENS1_IiNS5_IiEEEEE11__get_valueB8ue170006Ev, symObjAddr: 0x1FAA8, symBinAddr: 0x100022C60, symSize: 0x24 }
  - { offsetInCU: 0x47ACF, offset: 0x47ACF, size: 0x8, addend: 0x0, symName: __ZNKSt3__16__lessIvvEclB8ue170006IllEEbRKT_RKT0_, symObjAddr: 0x1FE40, symBinAddr: 0x100022FF8, symSize: 0x34 }
  - { offsetInCU: 0x47B23, offset: 0x47B23, size: 0x8, addend: 0x0, symName: __ZNSt3__116allocator_traitsINS_9allocatorINS_11__tree_nodeINS_12__value_typeINS_6vectorINS_12basic_stringIcNS_11char_traitsIcEENS1_IcEEEENS1_IS9_EEEENS4_IiNS1_IiEEEEEEPvEEEEE8allocateB8ue170006ERSH_m, symObjAddr: 0x1FEAC, symBinAddr: 0x100023064, symSize: 0x2C }
  - { offsetInCU: 0x47B56, offset: 0x47B56, size: 0x8, addend: 0x0, symName: __ZNSt3__122__tree_node_destructorINS_9allocatorINS_11__tree_nodeINS_12__value_typeINS_6vectorINS_12basic_stringIcNS_11char_traitsIcEENS1_IcEEEENS1_IS9_EEEENS4_IiNS1_IiEEEEEEPvEEEEEC1B8ue170006ERSH_b, symObjAddr: 0x1FED8, symBinAddr: 0x100023090, symSize: 0x48 }
  - { offsetInCU: 0x47BA4, offset: 0x47BA4, size: 0x8, addend: 0x0, symName: __ZNSt3__110unique_ptrINS_11__tree_nodeINS_12__value_typeINS_6vectorINS_12basic_stringIcNS_11char_traitsIcEENS_9allocatorIcEEEENS7_IS9_EEEENS3_IiNS7_IiEEEEEEPvEENS_22__tree_node_destructorINS7_ISG_EEEEEC1B8ue170006ILb1EvEEPSG_NS_16__dependent_typeINS_27__unique_ptr_deleter_sfinaeISJ_EEXT_EE20__good_rval_ref_typeE, symObjAddr: 0x1FF20, symBinAddr: 0x1000230D8, symSize: 0x3C }
  - { offsetInCU: 0x47BF5, offset: 0x47BF5, size: 0x8, addend: 0x0, symName: __ZNSt3__116allocator_traitsINS_9allocatorINS_11__tree_nodeINS_12__value_typeINS_6vectorINS_12basic_stringIcNS_11char_traitsIcEENS1_IcEEEENS1_IS9_EEEENS4_IiNS1_IiEEEEEEPvEEEEE9constructB8ue170006INS_4pairIKSB_SD_EEJRKNS_21piecewise_construct_tENS_5tupleIJRSL_EEENSQ_IJEEEEvvEEvRSH_PT_DpOT0_, symObjAddr: 0x1FF5C, symBinAddr: 0x100023114, symSize: 0x40 }
  - { offsetInCU: 0x47C72, offset: 0x47C72, size: 0x8, addend: 0x0, symName: __ZNKSt3__110unique_ptrINS_11__tree_nodeINS_12__value_typeINS_6vectorINS_12basic_stringIcNS_11char_traitsIcEENS_9allocatorIcEEEENS7_IS9_EEEENS3_IiNS7_IiEEEEEEPvEENS_22__tree_node_destructorINS7_ISG_EEEEEptB8ue170006Ev, symObjAddr: 0x1FF9C, symBinAddr: 0x100023154, symSize: 0x28 }
  - { offsetInCU: 0x47C98, offset: 0x47C98, size: 0x8, addend: 0x0, symName: __ZNSt3__110unique_ptrINS_11__tree_nodeINS_12__value_typeINS_6vectorINS_12basic_stringIcNS_11char_traitsIcEENS_9allocatorIcEEEENS7_IS9_EEEENS3_IiNS7_IiEEEEEEPvEENS_22__tree_node_destructorINS7_ISG_EEEEE11get_deleterB8ue170006Ev, symObjAddr: 0x1FFC4, symBinAddr: 0x10002317C, symSize: 0x24 }
  - { offsetInCU: 0x47CBE, offset: 0x47CBE, size: 0x8, addend: 0x0, symName: __ZNSt3__19allocatorINS_11__tree_nodeINS_12__value_typeINS_6vectorINS_12basic_stringIcNS_11char_traitsIcEENS0_IcEEEENS0_IS8_EEEENS3_IiNS0_IiEEEEEEPvEEE8allocateB8ue170006Em, symObjAddr: 0x1FFE8, symBinAddr: 0x1000231A0, symSize: 0x5C }
  - { offsetInCU: 0x47CFD, offset: 0x47CFD, size: 0x8, addend: 0x0, symName: __ZNSt3__116allocator_traitsINS_9allocatorINS_11__tree_nodeINS_12__value_typeINS_6vectorINS_12basic_stringIcNS_11char_traitsIcEENS1_IcEEEENS1_IS9_EEEENS4_IiNS1_IiEEEEEEPvEEEEE8max_sizeB8ue170006ISH_vvEEmRKSH_, symObjAddr: 0x20044, symBinAddr: 0x1000231FC, symSize: 0x28 }
  - { offsetInCU: 0x47D29, offset: 0x47D29, size: 0x8, addend: 0x0, symName: __ZNSt3__122__tree_node_destructorINS_9allocatorINS_11__tree_nodeINS_12__value_typeINS_6vectorINS_12basic_stringIcNS_11char_traitsIcEENS1_IcEEEENS1_IS9_EEEENS4_IiNS1_IiEEEEEEPvEEEEEC2B8ue170006ERSH_b, symObjAddr: 0x2006C, symBinAddr: 0x100023224, symSize: 0x38 }
  - { offsetInCU: 0x47D71, offset: 0x47D71, size: 0x8, addend: 0x0, symName: __ZNSt3__110unique_ptrINS_11__tree_nodeINS_12__value_typeINS_6vectorINS_12basic_stringIcNS_11char_traitsIcEENS_9allocatorIcEEEENS7_IS9_EEEENS3_IiNS7_IiEEEEEEPvEENS_22__tree_node_destructorINS7_ISG_EEEEEC2B8ue170006ILb1EvEEPSG_NS_16__dependent_typeINS_27__unique_ptr_deleter_sfinaeISJ_EEXT_EE20__good_rval_ref_typeE, symObjAddr: 0x200A4, symBinAddr: 0x10002325C, symSize: 0x48 }
  - { offsetInCU: 0x47DC2, offset: 0x47DC2, size: 0x8, addend: 0x0, symName: __ZNSt3__117__compressed_pairIPNS_11__tree_nodeINS_12__value_typeINS_6vectorINS_12basic_stringIcNS_11char_traitsIcEENS_9allocatorIcEEEENS7_IS9_EEEENS3_IiNS7_IiEEEEEEPvEENS_22__tree_node_destructorINS7_ISG_EEEEEC1B8ue170006IRSH_SK_EEOT_OT0_, symObjAddr: 0x200EC, symBinAddr: 0x1000232A4, symSize: 0x3C }
  - { offsetInCU: 0x47E1A, offset: 0x47E1A, size: 0x8, addend: 0x0, symName: __ZNSt3__117__compressed_pairIPNS_11__tree_nodeINS_12__value_typeINS_6vectorINS_12basic_stringIcNS_11char_traitsIcEENS_9allocatorIcEEEENS7_IS9_EEEENS3_IiNS7_IiEEEEEEPvEENS_22__tree_node_destructorINS7_ISG_EEEEEC2B8ue170006IRSH_SK_EEOT_OT0_, symObjAddr: 0x20128, symBinAddr: 0x1000232E0, symSize: 0x48 }
  - { offsetInCU: 0x47E72, offset: 0x47E72, size: 0x8, addend: 0x0, symName: __ZNSt3__122__compressed_pair_elemIPNS_11__tree_nodeINS_12__value_typeINS_6vectorINS_12basic_stringIcNS_11char_traitsIcEENS_9allocatorIcEEEENS7_IS9_EEEENS3_IiNS7_IiEEEEEEPvEELi0ELb0EEC2B8ue170006IRSH_vEEOT_, symObjAddr: 0x20170, symBinAddr: 0x100023328, symSize: 0x24 }
  - { offsetInCU: 0x47EB4, offset: 0x47EB4, size: 0x8, addend: 0x0, symName: __ZNSt3__122__compressed_pair_elemINS_22__tree_node_destructorINS_9allocatorINS_11__tree_nodeINS_12__value_typeINS_6vectorINS_12basic_stringIcNS_11char_traitsIcEENS2_IcEEEENS2_ISA_EEEENS5_IiNS2_IiEEEEEEPvEEEEEELi1ELb0EEC2B8ue170006ISJ_vEEOT_, symObjAddr: 0x20194, symBinAddr: 0x10002334C, symSize: 0x24 }
  - { offsetInCU: 0x47EF6, offset: 0x47EF6, size: 0x8, addend: 0x0, symName: __ZNSt3__14pairIKNS_6vectorINS_12basic_stringIcNS_11char_traitsIcEENS_9allocatorIcEEEENS5_IS7_EEEENS1_IiNS5_IiEEEEEC1B8ue170006IJRSA_EJEEENS_21piecewise_construct_tENS_5tupleIJDpT_EEENSH_IJDpT0_EEE, symObjAddr: 0x20208, symBinAddr: 0x1000233C0, symSize: 0x3C }
  - { offsetInCU: 0x47F5D, offset: 0x47F5D, size: 0x8, addend: 0x0, symName: __ZNSt3__14pairIKNS_6vectorINS_12basic_stringIcNS_11char_traitsIcEENS_9allocatorIcEEEENS5_IS7_EEEENS1_IiNS5_IiEEEEEC1B8ue170006IJRSA_EJEJLm0EEJEEENS_21piecewise_construct_tERNS_5tupleIJDpT_EEERNSH_IJDpT0_EEENS_15__tuple_indicesIJXspT1_EEEENSQ_IJXspT2_EEEE, symObjAddr: 0x20244, symBinAddr: 0x1000233FC, symSize: 0x3C }
  - { offsetInCU: 0x47FED, offset: 0x47FED, size: 0x8, addend: 0x0, symName: __ZNSt3__14pairIKNS_6vectorINS_12basic_stringIcNS_11char_traitsIcEENS_9allocatorIcEEEENS5_IS7_EEEENS1_IiNS5_IiEEEEEC2B8ue170006IJRSA_EJEJLm0EEJEEENS_21piecewise_construct_tERNS_5tupleIJDpT_EEERNSH_IJDpT0_EEENS_15__tuple_indicesIJXspT1_EEEENSQ_IJXspT2_EEEE, symObjAddr: 0x20280, symBinAddr: 0x100023438, symSize: 0x50 }
  - { offsetInCU: 0x4807D, offset: 0x4807D, size: 0x8, addend: 0x0, symName: __ZNSt3__112__tuple_leafILm0ERKNS_6vectorINS_12basic_stringIcNS_11char_traitsIcEENS_9allocatorIcEEEENS5_IS7_EEEELb0EE3getB8ue170006Ev, symObjAddr: 0x202F4, symBinAddr: 0x1000234AC, symSize: 0x18 }
  - { offsetInCU: 0x480A3, offset: 0x480A3, size: 0x8, addend: 0x0, symName: __ZNKSt3__117__compressed_pairIPNS_11__tree_nodeINS_12__value_typeINS_6vectorINS_12basic_stringIcNS_11char_traitsIcEENS_9allocatorIcEEEENS7_IS9_EEEENS3_IiNS7_IiEEEEEEPvEENS_22__tree_node_destructorINS7_ISG_EEEEE5firstB8ue170006Ev, symObjAddr: 0x2030C, symBinAddr: 0x1000234C4, symSize: 0x24 }
  - { offsetInCU: 0x480C9, offset: 0x480C9, size: 0x8, addend: 0x0, symName: __ZNKSt3__122__compressed_pair_elemIPNS_11__tree_nodeINS_12__value_typeINS_6vectorINS_12basic_stringIcNS_11char_traitsIcEENS_9allocatorIcEEEENS7_IS9_EEEENS3_IiNS7_IiEEEEEEPvEELi0ELb0EE5__getB8ue170006Ev, symObjAddr: 0x20330, symBinAddr: 0x1000234E8, symSize: 0x14 }
  - { offsetInCU: 0x480EF, offset: 0x480EF, size: 0x8, addend: 0x0, symName: __ZNSt3__117__compressed_pairIPNS_11__tree_nodeINS_12__value_typeINS_6vectorINS_12basic_stringIcNS_11char_traitsIcEENS_9allocatorIcEEEENS7_IS9_EEEENS3_IiNS7_IiEEEEEEPvEENS_22__tree_node_destructorINS7_ISG_EEEEE6secondB8ue170006Ev, symObjAddr: 0x20344, symBinAddr: 0x1000234FC, symSize: 0x28 }
  - { offsetInCU: 0x48115, offset: 0x48115, size: 0x8, addend: 0x0, symName: __ZNSt3__122__compressed_pair_elemINS_22__tree_node_destructorINS_9allocatorINS_11__tree_nodeINS_12__value_typeINS_6vectorINS_12basic_stringIcNS_11char_traitsIcEENS2_IcEEEENS2_ISA_EEEENS5_IiNS2_IiEEEEEEPvEEEEEELi1ELb0EE5__getB8ue170006Ev, symObjAddr: 0x2036C, symBinAddr: 0x100023524, symSize: 0x14 }
  - { offsetInCU: 0x4813B, offset: 0x4813B, size: 0x8, addend: 0x0, symName: __ZNSt3__16__treeINS_12__value_typeINS_6vectorINS_12basic_stringIcNS_11char_traitsIcEENS_9allocatorIcEEEENS6_IS8_EEEENS2_IiNS6_IiEEEEEENS_19__map_value_compareISA_SD_NS_4lessISA_EELb1EEENS6_ISD_EEE4sizeB8ue170006Ev, symObjAddr: 0x20380, symBinAddr: 0x100023538, symSize: 0x28 }
  - { offsetInCU: 0x48161, offset: 0x48161, size: 0x8, addend: 0x0, symName: __ZNSt3__117__compressed_pairImNS_19__map_value_compareINS_6vectorINS_12basic_stringIcNS_11char_traitsIcEENS_9allocatorIcEEEENS6_IS8_EEEENS_12__value_typeISA_NS2_IiNS6_IiEEEEEENS_4lessISA_EELb1EEEE5firstB8ue170006Ev, symObjAddr: 0x203A8, symBinAddr: 0x100023560, symSize: 0x24 }
  - { offsetInCU: 0x48187, offset: 0x48187, size: 0x8, addend: 0x0, symName: __ZNSt3__117__compressed_pairIPNS_11__tree_nodeINS_12__value_typeINS_6vectorINS_12basic_stringIcNS_11char_traitsIcEENS_9allocatorIcEEEENS7_IS9_EEEENS3_IiNS7_IiEEEEEEPvEENS_22__tree_node_destructorINS7_ISG_EEEEE5firstB8ue170006Ev, symObjAddr: 0x203CC, symBinAddr: 0x100023584, symSize: 0x24 }
  - { offsetInCU: 0x481AD, offset: 0x481AD, size: 0x8, addend: 0x0, symName: __ZNSt3__122__compressed_pair_elemIPNS_11__tree_nodeINS_12__value_typeINS_6vectorINS_12basic_stringIcNS_11char_traitsIcEENS_9allocatorIcEEEENS7_IS9_EEEENS3_IiNS7_IiEEEEEEPvEELi0ELb0EE5__getB8ue170006Ev, symObjAddr: 0x203F0, symBinAddr: 0x1000235A8, symSize: 0x14 }
  - { offsetInCU: 0x481D3, offset: 0x481D3, size: 0x8, addend: 0x0, symName: __ZNSt3__110unique_ptrINS_11__tree_nodeINS_12__value_typeINS_6vectorINS_12basic_stringIcNS_11char_traitsIcEENS_9allocatorIcEEEENS7_IS9_EEEENS3_IiNS7_IiEEEEEEPvEENS_22__tree_node_destructorINS7_ISG_EEEEED2B8ue170006Ev, symObjAddr: 0x20404, symBinAddr: 0x1000235BC, symSize: 0x30 }
  - { offsetInCU: 0x481FD, offset: 0x481FD, size: 0x8, addend: 0x0, symName: __ZNSt3__110unique_ptrINS_11__tree_nodeINS_12__value_typeINS_6vectorINS_12basic_stringIcNS_11char_traitsIcEENS_9allocatorIcEEEENS7_IS9_EEEENS3_IiNS7_IiEEEEEEPvEENS_22__tree_node_destructorINS7_ISG_EEEEE5resetB8ue170006EPSG_, symObjAddr: 0x20434, symBinAddr: 0x1000235EC, symSize: 0x78 }
  - { offsetInCU: 0x48241, offset: 0x48241, size: 0x8, addend: 0x0, symName: __ZNSt3__122__tree_node_destructorINS_9allocatorINS_11__tree_nodeINS_12__value_typeINS_6vectorINS_12basic_stringIcNS_11char_traitsIcEENS1_IcEEEENS1_IS9_EEEENS4_IiNS1_IiEEEEEEPvEEEEEclB8ue170006EPSG_, symObjAddr: 0x204AC, symBinAddr: 0x100023664, symSize: 0x98 }
  - { offsetInCU: 0x48276, offset: 0x48276, size: 0x8, addend: 0x0, symName: __ZNSt3__115__tree_iteratorINS_12__value_typeINS_6vectorINS_12basic_stringIcNS_11char_traitsIcEENS_9allocatorIcEEEENS6_IS8_EEEENS2_IiNS6_IiEEEEEEPNS_11__tree_nodeISD_PvEElEC2B8ue170006ESH_, symObjAddr: 0x20544, symBinAddr: 0x1000236FC, symSize: 0x20 }
  - { offsetInCU: 0x482AF, offset: 0x482AF, size: 0x8, addend: 0x0, symName: __ZNSt3__14pairINS_15__tree_iteratorINS_12__value_typeINS_6vectorINS_12basic_stringIcNS_11char_traitsIcEENS_9allocatorIcEEEENS7_IS9_EEEENS3_IiNS7_IiEEEEEEPNS_11__tree_nodeISE_PvEElEEbEC2B8ue170006ISJ_RbLSG_0EEEOT_OT0_, symObjAddr: 0x20564, symBinAddr: 0x10002371C, symSize: 0x38 }
  - { offsetInCU: 0x4830D, offset: 0x4830D, size: 0x8, addend: 0x0, symName: __ZNSt3__15tupleIJRKNS_6vectorINS_12basic_stringIcNS_11char_traitsIcEENS_9allocatorIcEEEENS5_IS7_EEEEEEC1B8ue170006INS_4_AndELi0EEESB_, symObjAddr: 0x2059C, symBinAddr: 0x100023754, symSize: 0x34 }
  - { offsetInCU: 0x48355, offset: 0x48355, size: 0x8, addend: 0x0, symName: __ZNSt3__15tupleIJRKNS_6vectorINS_12basic_stringIcNS_11char_traitsIcEENS_9allocatorIcEEEENS5_IS7_EEEEEEC2B8ue170006INS_4_AndELi0EEESB_, symObjAddr: 0x205D0, symBinAddr: 0x100023788, symSize: 0x34 }
  - { offsetInCU: 0x4839D, offset: 0x4839D, size: 0x8, addend: 0x0, symName: __ZNSt3__112__tuple_implINS_15__tuple_indicesIJLm0EEEEJRKNS_6vectorINS_12basic_stringIcNS_11char_traitsIcEENS_9allocatorIcEEEENS7_IS9_EEEEEEC1B8ue170006IJLm0EEJSD_EJEJEJSD_EEENS1_IJXspT_EEEENS_13__tuple_typesIJDpT0_EEENS1_IJXspT1_EEEENSH_IJDpT2_EEEDpOT3_, symObjAddr: 0x20604, symBinAddr: 0x1000237BC, symSize: 0x34 }
  - { offsetInCU: 0x48432, offset: 0x48432, size: 0x8, addend: 0x0, symName: __ZNSt3__112__tuple_implINS_15__tuple_indicesIJLm0EEEEJRKNS_6vectorINS_12basic_stringIcNS_11char_traitsIcEENS_9allocatorIcEEEENS7_IS9_EEEEEEC2B8ue170006IJLm0EEJSD_EJEJEJSD_EEENS1_IJXspT_EEEENS_13__tuple_typesIJDpT0_EEENS1_IJXspT1_EEEENSH_IJDpT2_EEEDpOT3_, symObjAddr: 0x20638, symBinAddr: 0x1000237F0, symSize: 0x34 }
  - { offsetInCU: 0x484C7, offset: 0x484C7, size: 0x8, addend: 0x0, symName: __ZNSt3__112__tuple_leafILm0ERKNS_6vectorINS_12basic_stringIcNS_11char_traitsIcEENS_9allocatorIcEEEENS5_IS7_EEEELb0EEC2B8ue170006ISB_vEEOT_, symObjAddr: 0x2066C, symBinAddr: 0x100023824, symSize: 0x20 }
  - { offsetInCU: 0x4850A, offset: 0x4850A, size: 0x8, addend: 0x0, symName: __ZNSt3__114pointer_traitsIPNS_12__value_typeINS_6vectorINS_12basic_stringIcNS_11char_traitsIcEENS_9allocatorIcEEEENS6_IS8_EEEENS2_IiNS6_IiEEEEEEE10pointer_toB8ue170006ERSD_, symObjAddr: 0x2068C, symBinAddr: 0x100023844, symSize: 0x14 }
  - { offsetInCU: 0x4852D, offset: 0x4852D, size: 0x8, addend: 0x0, symName: __ZNKSt3__115__tree_iteratorINS_12__value_typeINS_6vectorINS_12basic_stringIcNS_11char_traitsIcEENS_9allocatorIcEEEENS6_IS8_EEEENS2_IiNS6_IiEEEEEEPNS_11__tree_nodeISD_PvEElE8__get_npB8ue170006Ev, symObjAddr: 0x206A0, symBinAddr: 0x100023858, symSize: 0x18 }
  - { offsetInCU: 0x48553, offset: 0x48553, size: 0x8, addend: 0x0, symName: __ZNSt3__16__treeINS_12__value_typeINS_6vectorINS_12basic_stringIcNS_11char_traitsIcEENS_9allocatorIcEEEENS6_IS8_EEEENS2_IiNS6_IiEEEEEENS_19__map_value_compareISA_SD_NS_4lessISA_EELb1EEENS6_ISD_EEE5beginB8ue170006Ev, symObjAddr: 0x206B8, symBinAddr: 0x100023870, symSize: 0x34 }
  - { offsetInCU: 0x48579, offset: 0x48579, size: 0x8, addend: 0x0, symName: __ZNSt3__114__map_iteratorINS_15__tree_iteratorINS_12__value_typeINS_6vectorINS_12basic_stringIcNS_11char_traitsIcEENS_9allocatorIcEEEENS7_IS9_EEEENS3_IiNS7_IiEEEEEEPNS_11__tree_nodeISE_PvEElEEEC1B8ue170006ESJ_, symObjAddr: 0x206EC, symBinAddr: 0x1000238A4, symSize: 0x34 }
  - { offsetInCU: 0x485B2, offset: 0x485B2, size: 0x8, addend: 0x0, symName: __ZNSt3__115__tree_iteratorINS_12__value_typeINS_6vectorINS_12basic_stringIcNS_11char_traitsIcEENS_9allocatorIcEEEENS6_IS8_EEEENS2_IiNS6_IiEEEEEEPNS_11__tree_nodeISD_PvEElEC1B8ue170006EPNS_15__tree_end_nodeIPNS_16__tree_node_baseISF_EEEE, symObjAddr: 0x20720, symBinAddr: 0x1000238D8, symSize: 0x34 }
  - { offsetInCU: 0x485EB, offset: 0x485EB, size: 0x8, addend: 0x0, symName: __ZNSt3__115__tree_iteratorINS_12__value_typeINS_6vectorINS_12basic_stringIcNS_11char_traitsIcEENS_9allocatorIcEEEENS6_IS8_EEEENS2_IiNS6_IiEEEEEEPNS_11__tree_nodeISD_PvEElEC2B8ue170006EPNS_15__tree_end_nodeIPNS_16__tree_node_baseISF_EEEE, symObjAddr: 0x20754, symBinAddr: 0x10002390C, symSize: 0x20 }
  - { offsetInCU: 0x48624, offset: 0x48624, size: 0x8, addend: 0x0, symName: __ZNSt3__114__map_iteratorINS_15__tree_iteratorINS_12__value_typeINS_6vectorINS_12basic_stringIcNS_11char_traitsIcEENS_9allocatorIcEEEENS7_IS9_EEEENS3_IiNS7_IiEEEEEEPNS_11__tree_nodeISE_PvEElEEEC2B8ue170006ESJ_, symObjAddr: 0x20774, symBinAddr: 0x10002392C, symSize: 0x20 }
  - { offsetInCU: 0x4865D, offset: 0x4865D, size: 0x8, addend: 0x0, symName: __ZNSt3__16__treeINS_12__value_typeINS_6vectorINS_12basic_stringIcNS_11char_traitsIcEENS_9allocatorIcEEEENS6_IS8_EEEENS2_IiNS6_IiEEEEEENS_19__map_value_compareISA_SD_NS_4lessISA_EELb1EEENS6_ISD_EEE3endB8ue170006Ev, symObjAddr: 0x20794, symBinAddr: 0x10002394C, symSize: 0x34 }
  - { offsetInCU: 0x48683, offset: 0x48683, size: 0x8, addend: 0x0, symName: __ZNSt3__115__tree_iteratorINS_12__value_typeINS_6vectorINS_12basic_stringIcNS_11char_traitsIcEENS_9allocatorIcEEEENS6_IS8_EEEENS2_IiNS6_IiEEEEEEPNS_11__tree_nodeISD_PvEElEppB8ue170006Ev, symObjAddr: 0x2082C, symBinAddr: 0x1000239E4, symSize: 0x38 }
  - { offsetInCU: 0x486A9, offset: 0x486A9, size: 0x8, addend: 0x0, symName: __ZNSt3__16__treeINS_12__value_typeIiNS_6vectorINS_12basic_stringIcNS_11char_traitsIcEENS_9allocatorIcEEEENS6_IS8_EEEEEENS_19__map_value_compareIiSB_NS_4lessIiEELb1EEENS6_ISB_EEEaSEOSH_, symObjAddr: 0x20864, symBinAddr: 0x100023A1C, symSize: 0x34 }
  - { offsetInCU: 0x486E0, offset: 0x486E0, size: 0x8, addend: 0x0, symName: __ZNSt3__16__treeINS_12__value_typeIiNS_6vectorINS_12basic_stringIcNS_11char_traitsIcEENS_9allocatorIcEEEENS6_IS8_EEEEEENS_19__map_value_compareIiSB_NS_4lessIiEELb1EEENS6_ISB_EEE13__move_assignERSH_NS_17integral_constantIbLb1EEE, symObjAddr: 0x20898, symBinAddr: 0x100023A50, symSize: 0x138 }
  - { offsetInCU: 0x48723, offset: 0x48723, size: 0x8, addend: 0x0, symName: __ZNSt3__16__treeINS_12__value_typeIiNS_6vectorINS_12basic_stringIcNS_11char_traitsIcEENS_9allocatorIcEEEENS6_IS8_EEEEEENS_19__map_value_compareIiSB_NS_4lessIiEELb1EEENS6_ISB_EEE19__move_assign_allocB8ue170006ERSH_, symObjAddr: 0x209D0, symBinAddr: 0x100023B88, symSize: 0x2C }
  - { offsetInCU: 0x48758, offset: 0x48758, size: 0x8, addend: 0x0, symName: __ZNSt3__16__treeINS_12__value_typeIiNS_6vectorINS_12basic_stringIcNS_11char_traitsIcEENS_9allocatorIcEEEENS6_IS8_EEEEEENS_19__map_value_compareIiSB_NS_4lessIiEELb1EEENS6_ISB_EEE19__move_assign_allocB8ue170006ERSH_NS_17integral_constantIbLb1EEE, symObjAddr: 0x209FC, symBinAddr: 0x100023BB4, symSize: 0x38 }
  - { offsetInCU: 0x48799, offset: 0x48799, size: 0x8, addend: 0x0, symName: __ZNKSt3__16__treeINS_12__value_typeIiNS_6vectorINS_12basic_stringIcNS_11char_traitsIcEENS_9allocatorIcEEEENS6_IS8_EEEEEENS_19__map_value_compareIiSB_NS_4lessIiEELb1EEENS6_ISB_EEE4sizeB8ue170006Ev, symObjAddr: 0x20A34, symBinAddr: 0x100023BEC, symSize: 0x28 }
  - { offsetInCU: 0x487BF, offset: 0x487BF, size: 0x8, addend: 0x0, symName: __ZNKSt3__117__compressed_pairImNS_19__map_value_compareIiNS_12__value_typeIiNS_6vectorINS_12basic_stringIcNS_11char_traitsIcEENS_9allocatorIcEEEENS7_IS9_EEEEEENS_4lessIiEELb1EEEE5firstB8ue170006Ev, symObjAddr: 0x20A5C, symBinAddr: 0x100023C14, symSize: 0x24 }
  - { offsetInCU: 0x487E5, offset: 0x487E5, size: 0x8, addend: 0x0, symName: __ZNKSt3__122__compressed_pair_elemImLi0ELb0EE5__getB8ue170006Ev, symObjAddr: 0x20A80, symBinAddr: 0x100023C38, symSize: 0x14 }
  - { offsetInCU: 0x4880B, offset: 0x4880B, size: 0x8, addend: 0x0, symName: __ZNSt3__16__treeINS_12__value_typeIiNS_6vectorIiNS_9allocatorIiEEEEEENS_19__map_value_compareIiS6_NS_4lessIiEELb1EEENS3_IS6_EEEaSEOSC_, symObjAddr: 0x20A94, symBinAddr: 0x100023C4C, symSize: 0x34 }
  - { offsetInCU: 0x48842, offset: 0x48842, size: 0x8, addend: 0x0, symName: __ZNSt3__16__treeINS_12__value_typeIiNS_6vectorIiNS_9allocatorIiEEEEEENS_19__map_value_compareIiS6_NS_4lessIiEELb1EEENS3_IS6_EEE13__move_assignERSC_NS_17integral_constantIbLb1EEE, symObjAddr: 0x20AC8, symBinAddr: 0x100023C80, symSize: 0x138 }
  - { offsetInCU: 0x48885, offset: 0x48885, size: 0x8, addend: 0x0, symName: __ZNSt3__16__treeINS_12__value_typeIiNS_6vectorIiNS_9allocatorIiEEEEEENS_19__map_value_compareIiS6_NS_4lessIiEELb1EEENS3_IS6_EEE19__move_assign_allocB8ue170006ERSC_, symObjAddr: 0x20C00, symBinAddr: 0x100023DB8, symSize: 0x2C }
  - { offsetInCU: 0x488BA, offset: 0x488BA, size: 0x8, addend: 0x0, symName: __ZNSt3__16__treeINS_12__value_typeIiNS_6vectorIiNS_9allocatorIiEEEEEENS_19__map_value_compareIiS6_NS_4lessIiEELb1EEENS3_IS6_EEE19__move_assign_allocB8ue170006ERSC_NS_17integral_constantIbLb1EEE, symObjAddr: 0x20C2C, symBinAddr: 0x100023DE4, symSize: 0x38 }
  - { offsetInCU: 0x488FB, offset: 0x488FB, size: 0x8, addend: 0x0, symName: __ZNSt3__16__treeINS_12__value_typeIiNS_3mapINS_12basic_stringIcNS_11char_traitsIcEENS_9allocatorIcEEEEiNS_4lessIS8_EENS6_INS_4pairIKS8_iEEEEEEEENS_19__map_value_compareIiSG_NS9_IiEELb1EEENS6_ISG_EEEaSEOSL_, symObjAddr: 0x20C64, symBinAddr: 0x100023E1C, symSize: 0x34 }
  - { offsetInCU: 0x48932, offset: 0x48932, size: 0x8, addend: 0x0, symName: __ZNSt3__16__treeINS_12__value_typeIiNS_3mapINS_12basic_stringIcNS_11char_traitsIcEENS_9allocatorIcEEEEiNS_4lessIS8_EENS6_INS_4pairIKS8_iEEEEEEEENS_19__map_value_compareIiSG_NS9_IiEELb1EEENS6_ISG_EEE13__move_assignERSL_NS_17integral_constantIbLb1EEE, symObjAddr: 0x20C98, symBinAddr: 0x100023E50, symSize: 0x138 }
  - { offsetInCU: 0x48975, offset: 0x48975, size: 0x8, addend: 0x0, symName: __ZNSt3__16__treeINS_12__value_typeIiNS_3mapINS_12basic_stringIcNS_11char_traitsIcEENS_9allocatorIcEEEEiNS_4lessIS8_EENS6_INS_4pairIKS8_iEEEEEEEENS_19__map_value_compareIiSG_NS9_IiEELb1EEENS6_ISG_EEE19__move_assign_allocB8ue170006ERSL_, symObjAddr: 0x20DD0, symBinAddr: 0x100023F88, symSize: 0x2C }
  - { offsetInCU: 0x489AA, offset: 0x489AA, size: 0x8, addend: 0x0, symName: __ZNSt3__16__treeINS_12__value_typeIiNS_3mapINS_12basic_stringIcNS_11char_traitsIcEENS_9allocatorIcEEEEiNS_4lessIS8_EENS6_INS_4pairIKS8_iEEEEEEEENS_19__map_value_compareIiSG_NS9_IiEELb1EEENS6_ISG_EEE19__move_assign_allocB8ue170006ERSL_NS_17integral_constantIbLb1EEE, symObjAddr: 0x20DFC, symBinAddr: 0x100023FB4, symSize: 0x38 }
  - { offsetInCU: 0x489EB, offset: 0x489EB, size: 0x8, addend: 0x0, symName: __ZNSt3__13mapIiiNS_4lessIiEENS_9allocatorINS_4pairIKiiEEEEEC2B8ue170006Ev, symObjAddr: 0x20E34, symBinAddr: 0x100023FEC, symSize: 0x40 }
  - { offsetInCU: 0x48A15, offset: 0x48A15, size: 0x8, addend: 0x0, symName: __ZNSt3__119__map_value_compareIiNS_12__value_typeIiiEENS_4lessIiEELb1EEC1B8ue170006ES4_, symObjAddr: 0x20E74, symBinAddr: 0x10002402C, symSize: 0x2C }
  - { offsetInCU: 0x48A4E, offset: 0x48A4E, size: 0x8, addend: 0x0, symName: __ZNSt3__16__treeINS_12__value_typeIiiEENS_19__map_value_compareIiS2_NS_4lessIiEELb1EEENS_9allocatorIS2_EEEC1ERKS6_, symObjAddr: 0x20EA0, symBinAddr: 0x100024058, symSize: 0x34 }
  - { offsetInCU: 0x48A89, offset: 0x48A89, size: 0x8, addend: 0x0, symName: __ZNSt3__119__map_value_compareIiNS_12__value_typeIiiEENS_4lessIiEELb1EEC2B8ue170006ES4_, symObjAddr: 0x20ED4, symBinAddr: 0x10002408C, symSize: 0x14 }
  - { offsetInCU: 0x48AC2, offset: 0x48AC2, size: 0x8, addend: 0x0, symName: __ZNSt3__16__treeINS_12__value_typeIiiEENS_19__map_value_compareIiS2_NS_4lessIiEELb1EEENS_9allocatorIS2_EEEC2ERKS6_, symObjAddr: 0x20EE8, symBinAddr: 0x1000240A0, symSize: 0x7C }
  - { offsetInCU: 0x48AFD, offset: 0x48AFD, size: 0x8, addend: 0x0, symName: __ZNSt3__117__compressed_pairINS_15__tree_end_nodeIPNS_16__tree_node_baseIPvEEEENS_9allocatorINS_11__tree_nodeINS_12__value_typeIiiEES3_EEEEEC1B8ue170006ILb1EvEEv, symObjAddr: 0x20F64, symBinAddr: 0x10002411C, symSize: 0x2C }
  - { offsetInCU: 0x48B32, offset: 0x48B32, size: 0x8, addend: 0x0, symName: __ZNSt3__117__compressed_pairImNS_19__map_value_compareIiNS_12__value_typeIiiEENS_4lessIiEELb1EEEEC1B8ue170006IiRKS6_EEOT_OT0_, symObjAddr: 0x20F90, symBinAddr: 0x100024148, symSize: 0x3C }
  - { offsetInCU: 0x48B8A, offset: 0x48B8A, size: 0x8, addend: 0x0, symName: __ZNSt3__16__treeINS_12__value_typeIiiEENS_19__map_value_compareIiS2_NS_4lessIiEELb1EEENS_9allocatorIS2_EEE10__end_nodeB8ue170006Ev, symObjAddr: 0x20FCC, symBinAddr: 0x100024184, symSize: 0x2C }
  - { offsetInCU: 0x48BB0, offset: 0x48BB0, size: 0x8, addend: 0x0, symName: __ZNSt3__16__treeINS_12__value_typeIiiEENS_19__map_value_compareIiS2_NS_4lessIiEELb1EEENS_9allocatorIS2_EEE12__begin_nodeB8ue170006Ev, symObjAddr: 0x20FF8, symBinAddr: 0x1000241B0, symSize: 0x14 }
  - { offsetInCU: 0x48BD6, offset: 0x48BD6, size: 0x8, addend: 0x0, symName: __ZNSt3__117__compressed_pairINS_15__tree_end_nodeIPNS_16__tree_node_baseIPvEEEENS_9allocatorINS_11__tree_nodeINS_12__value_typeIiiEES3_EEEEEC2B8ue170006ILb1EvEEv, symObjAddr: 0x2100C, symBinAddr: 0x1000241C4, symSize: 0x34 }
  - { offsetInCU: 0x48C0B, offset: 0x48C0B, size: 0x8, addend: 0x0, symName: __ZNSt3__122__compressed_pair_elemINS_9allocatorINS_11__tree_nodeINS_12__value_typeIiiEEPvEEEELi1ELb1EEC2B8ue170006ENS_16__value_init_tagE, symObjAddr: 0x21040, symBinAddr: 0x1000241F8, symSize: 0x2C }
  - { offsetInCU: 0x48C40, offset: 0x48C40, size: 0x8, addend: 0x0, symName: __ZNSt3__19allocatorINS_11__tree_nodeINS_12__value_typeIiiEEPvEEEC2B8ue170006Ev, symObjAddr: 0x2106C, symBinAddr: 0x100024224, symSize: 0x2C }
  - { offsetInCU: 0x48C6A, offset: 0x48C6A, size: 0x8, addend: 0x0, symName: __ZNSt3__116__non_trivial_ifILb1ENS_9allocatorINS_11__tree_nodeINS_12__value_typeIiiEEPvEEEEEC2B8ue170006Ev, symObjAddr: 0x21098, symBinAddr: 0x100024250, symSize: 0x14 }
  - { offsetInCU: 0x48C94, offset: 0x48C94, size: 0x8, addend: 0x0, symName: __ZNSt3__117__compressed_pairImNS_19__map_value_compareIiNS_12__value_typeIiiEENS_4lessIiEELb1EEEEC2B8ue170006IiRKS6_EEOT_OT0_, symObjAddr: 0x210AC, symBinAddr: 0x100024264, symSize: 0x44 }
  - { offsetInCU: 0x48CEC, offset: 0x48CEC, size: 0x8, addend: 0x0, symName: __ZNSt3__122__compressed_pair_elemINS_19__map_value_compareIiNS_12__value_typeIiiEENS_4lessIiEELb1EEELi1ELb1EEC2B8ue170006IRKS6_vEEOT_, symObjAddr: 0x210F0, symBinAddr: 0x1000242A8, symSize: 0x18 }
  - { offsetInCU: 0x48D2E, offset: 0x48D2E, size: 0x8, addend: 0x0, symName: __ZNSt3__117__compressed_pairINS_15__tree_end_nodeIPNS_16__tree_node_baseIPvEEEENS_9allocatorINS_11__tree_nodeINS_12__value_typeIiiEES3_EEEEE5firstB8ue170006Ev, symObjAddr: 0x21108, symBinAddr: 0x1000242C0, symSize: 0x24 }
  - { offsetInCU: 0x48D54, offset: 0x48D54, size: 0x8, addend: 0x0, symName: __ZNSt3__13mapIiiNS_4lessIiEENS_9allocatorINS_4pairIKiiEEEEED2B8ue170006Ev, symObjAddr: 0x2112C, symBinAddr: 0x1000242E4, symSize: 0x2C }
  - { offsetInCU: 0x48D7E, offset: 0x48D7E, size: 0x8, addend: 0x0, symName: __ZNSt3__16__treeINS_12__value_typeIiiEENS_19__map_value_compareIiS2_NS_4lessIiEELb1EEENS_9allocatorIS2_EEED1Ev, symObjAddr: 0x21158, symBinAddr: 0x100024310, symSize: 0x2C }
  - { offsetInCU: 0x48DAA, offset: 0x48DAA, size: 0x8, addend: 0x0, symName: __ZNSt3__16__treeINS_12__value_typeIiiEENS_19__map_value_compareIiS2_NS_4lessIiEELb1EEENS_9allocatorIS2_EEED2Ev, symObjAddr: 0x21184, symBinAddr: 0x10002433C, symSize: 0x38 }
  - { offsetInCU: 0x48DD6, offset: 0x48DD6, size: 0x8, addend: 0x0, symName: __ZNSt3__16__treeINS_12__value_typeIiiEENS_19__map_value_compareIiS2_NS_4lessIiEELb1EEENS_9allocatorIS2_EEE7destroyEPNS_11__tree_nodeIS2_PvEE, symObjAddr: 0x211BC, symBinAddr: 0x100024374, symSize: 0xAC }
  - { offsetInCU: 0x48E22, offset: 0x48E22, size: 0x8, addend: 0x0, symName: __ZNKSt3__16__treeINS_12__value_typeIiiEENS_19__map_value_compareIiS2_NS_4lessIiEELb1EEENS_9allocatorIS2_EEE6__rootB8ue170006Ev, symObjAddr: 0x21268, symBinAddr: 0x100024420, symSize: 0x28 }
  - { offsetInCU: 0x48E48, offset: 0x48E48, size: 0x8, addend: 0x0, symName: __ZNSt3__16__treeINS_12__value_typeIiiEENS_19__map_value_compareIiS2_NS_4lessIiEELb1EEENS_9allocatorIS2_EEE12__node_allocB8ue170006Ev, symObjAddr: 0x21290, symBinAddr: 0x100024448, symSize: 0x28 }
  - { offsetInCU: 0x48E6E, offset: 0x48E6E, size: 0x8, addend: 0x0, symName: __ZNSt3__116allocator_traitsINS_9allocatorINS_11__tree_nodeINS_12__value_typeIiiEEPvEEEEE7destroyB8ue170006INS_4pairIKiiEEvvEEvRS7_PT_, symObjAddr: 0x212B8, symBinAddr: 0x100024470, symSize: 0x28 }
  - { offsetInCU: 0x48EA9, offset: 0x48EA9, size: 0x8, addend: 0x0, symName: __ZNSt3__122__tree_key_value_typesINS_12__value_typeIiiEEE9__get_ptrB8ue170006ERS2_, symObjAddr: 0x212E0, symBinAddr: 0x100024498, symSize: 0x24 }
  - { offsetInCU: 0x48ECD, offset: 0x48ECD, size: 0x8, addend: 0x0, symName: __ZNSt3__116allocator_traitsINS_9allocatorINS_11__tree_nodeINS_12__value_typeIiiEEPvEEEEE10deallocateB8ue170006ERS7_PS6_m, symObjAddr: 0x21304, symBinAddr: 0x1000244BC, symSize: 0x34 }
  - { offsetInCU: 0x48F0F, offset: 0x48F0F, size: 0x8, addend: 0x0, symName: __ZNSt3__117__compressed_pairINS_15__tree_end_nodeIPNS_16__tree_node_baseIPvEEEENS_9allocatorINS_11__tree_nodeINS_12__value_typeIiiEES3_EEEEE6secondB8ue170006Ev, symObjAddr: 0x21338, symBinAddr: 0x1000244F0, symSize: 0x24 }
  - { offsetInCU: 0x48F35, offset: 0x48F35, size: 0x8, addend: 0x0, symName: __ZNSt3__122__compressed_pair_elemINS_9allocatorINS_11__tree_nodeINS_12__value_typeIiiEEPvEEEELi1ELb1EE5__getB8ue170006Ev, symObjAddr: 0x2135C, symBinAddr: 0x100024514, symSize: 0x14 }
  - { offsetInCU: 0x48F5B, offset: 0x48F5B, size: 0x8, addend: 0x0, symName: __ZNSt3__112__value_typeIiiE11__get_valueB8ue170006Ev, symObjAddr: 0x213A4, symBinAddr: 0x10002455C, symSize: 0x24 }
  - { offsetInCU: 0x48F81, offset: 0x48F81, size: 0x8, addend: 0x0, symName: __ZNSt3__19allocatorINS_11__tree_nodeINS_12__value_typeIiiEEPvEEE10deallocateB8ue170006EPS5_m, symObjAddr: 0x21400, symBinAddr: 0x1000245B8, symSize: 0x44 }
  - { offsetInCU: 0x48FC3, offset: 0x48FC3, size: 0x8, addend: 0x0, symName: __ZNKSt3__16__treeINS_12__value_typeIiiEENS_19__map_value_compareIiS2_NS_4lessIiEELb1EEENS_9allocatorIS2_EEE10__end_nodeB8ue170006Ev, symObjAddr: 0x21444, symBinAddr: 0x1000245FC, symSize: 0x2C }
  - { offsetInCU: 0x48FE9, offset: 0x48FE9, size: 0x8, addend: 0x0, symName: __ZNKSt3__117__compressed_pairINS_15__tree_end_nodeIPNS_16__tree_node_baseIPvEEEENS_9allocatorINS_11__tree_nodeINS_12__value_typeIiiEES3_EEEEE5firstB8ue170006Ev, symObjAddr: 0x21470, symBinAddr: 0x100024628, symSize: 0x24 }
  - { offsetInCU: 0x4900F, offset: 0x4900F, size: 0x8, addend: 0x0, symName: __ZNSt3__16__treeINS_12__value_typeIiiEENS_19__map_value_compareIiS2_NS_4lessIiEELb1EEENS_9allocatorIS2_EEE25__emplace_unique_key_argsIiJRKNS_21piecewise_construct_tENS_5tupleIJRKiEEENSE_IJEEEEEENS_4pairINS_15__tree_iteratorIS2_PNS_11__tree_nodeIS2_PvEElEEbEERKT_DpOT0_, symObjAddr: 0x21494, symBinAddr: 0x10002464C, symSize: 0x100 }
  - { offsetInCU: 0x490E5, offset: 0x490E5, size: 0x8, addend: 0x0, symName: __ZNKSt3__115__tree_iteratorINS_12__value_typeIiiEEPNS_11__tree_nodeIS2_PvEElEptB8ue170006Ev, symObjAddr: 0x21594, symBinAddr: 0x10002474C, symSize: 0x2C }
  - { offsetInCU: 0x4910B, offset: 0x4910B, size: 0x8, addend: 0x0, symName: __ZNSt3__16__treeINS_12__value_typeIiiEENS_19__map_value_compareIiS2_NS_4lessIiEELb1EEENS_9allocatorIS2_EEE12__find_equalIiEERPNS_16__tree_node_baseIPvEERPNS_15__tree_end_nodeISE_EERKT_, symObjAddr: 0x215C0, symBinAddr: 0x100024778, symSize: 0x184 }
  - { offsetInCU: 0x49178, offset: 0x49178, size: 0x8, addend: 0x0, symName: __ZNSt3__16__treeINS_12__value_typeIiiEENS_19__map_value_compareIiS2_NS_4lessIiEELb1EEENS_9allocatorIS2_EEE16__construct_nodeIJRKNS_21piecewise_construct_tENS_5tupleIJRKiEEENSE_IJEEEEEENS_10unique_ptrINS_11__tree_nodeIS2_PvEENS_22__tree_node_destructorINS7_ISM_EEEEEEDpOT_, symObjAddr: 0x21744, symBinAddr: 0x1000248FC, symSize: 0x120 }
  - { offsetInCU: 0x49201, offset: 0x49201, size: 0x8, addend: 0x0, symName: __ZNSt3__16__treeINS_12__value_typeIiiEENS_19__map_value_compareIiS2_NS_4lessIiEELb1EEENS_9allocatorIS2_EEE16__insert_node_atEPNS_15__tree_end_nodeIPNS_16__tree_node_baseIPvEEEERSE_SE_, symObjAddr: 0x21864, symBinAddr: 0x100024A1C, symSize: 0xCC }
  - { offsetInCU: 0x49256, offset: 0x49256, size: 0x8, addend: 0x0, symName: __ZNKSt3__110unique_ptrINS_11__tree_nodeINS_12__value_typeIiiEEPvEENS_22__tree_node_destructorINS_9allocatorIS5_EEEEE3getB8ue170006Ev, symObjAddr: 0x21930, symBinAddr: 0x100024AE8, symSize: 0x28 }
  - { offsetInCU: 0x4927C, offset: 0x4927C, size: 0x8, addend: 0x0, symName: __ZNSt3__110unique_ptrINS_11__tree_nodeINS_12__value_typeIiiEEPvEENS_22__tree_node_destructorINS_9allocatorIS5_EEEEE7releaseB8ue170006Ev, symObjAddr: 0x21958, symBinAddr: 0x100024B10, symSize: 0x44 }
  - { offsetInCU: 0x492B1, offset: 0x492B1, size: 0x8, addend: 0x0, symName: __ZNSt3__110unique_ptrINS_11__tree_nodeINS_12__value_typeIiiEEPvEENS_22__tree_node_destructorINS_9allocatorIS5_EEEEED1B8ue170006Ev, symObjAddr: 0x2199C, symBinAddr: 0x100024B54, symSize: 0x2C }
  - { offsetInCU: 0x492DB, offset: 0x492DB, size: 0x8, addend: 0x0, symName: __ZNSt3__115__tree_iteratorINS_12__value_typeIiiEEPNS_11__tree_nodeIS2_PvEElEC1B8ue170006ES6_, symObjAddr: 0x219C8, symBinAddr: 0x100024B80, symSize: 0x34 }
  - { offsetInCU: 0x4931A, offset: 0x4931A, size: 0x8, addend: 0x0, symName: __ZNSt3__14pairINS_15__tree_iteratorINS_12__value_typeIiiEEPNS_11__tree_nodeIS3_PvEElEEbEC1B8ue170006IS8_RbLS5_0EEEOT_OT0_, symObjAddr: 0x219FC, symBinAddr: 0x100024BB4, symSize: 0x3C }
  - { offsetInCU: 0x49378, offset: 0x49378, size: 0x8, addend: 0x0, symName: __ZNKSt3__16__treeINS_12__value_typeIiiEENS_19__map_value_compareIiS2_NS_4lessIiEELb1EEENS_9allocatorIS2_EEE10__root_ptrB8ue170006Ev, symObjAddr: 0x21A38, symBinAddr: 0x100024BF0, symSize: 0x24 }
  - { offsetInCU: 0x4939E, offset: 0x4939E, size: 0x8, addend: 0x0, symName: __ZNSt3__16__treeINS_12__value_typeIiiEENS_19__map_value_compareIiS2_NS_4lessIiEELb1EEENS_9allocatorIS2_EEE10value_compB8ue170006Ev, symObjAddr: 0x21A5C, symBinAddr: 0x100024C14, symSize: 0x28 }
  - { offsetInCU: 0x493C4, offset: 0x493C4, size: 0x8, addend: 0x0, symName: __ZNKSt3__119__map_value_compareIiNS_12__value_typeIiiEENS_4lessIiEELb1EEclB8ue170006ERKiRKS2_, symObjAddr: 0x21A84, symBinAddr: 0x100024C3C, symSize: 0x50 }
  - { offsetInCU: 0x49408, offset: 0x49408, size: 0x8, addend: 0x0, symName: __ZNKSt3__119__map_value_compareIiNS_12__value_typeIiiEENS_4lessIiEELb1EEclB8ue170006ERKS2_RKi, symObjAddr: 0x21AD4, symBinAddr: 0x100024C8C, symSize: 0x48 }
  - { offsetInCU: 0x4944C, offset: 0x4944C, size: 0x8, addend: 0x0, symName: __ZNSt3__117__compressed_pairImNS_19__map_value_compareIiNS_12__value_typeIiiEENS_4lessIiEELb1EEEE6secondB8ue170006Ev, symObjAddr: 0x21B1C, symBinAddr: 0x100024CD4, symSize: 0x24 }
  - { offsetInCU: 0x49472, offset: 0x49472, size: 0x8, addend: 0x0, symName: __ZNSt3__122__compressed_pair_elemINS_19__map_value_compareIiNS_12__value_typeIiiEENS_4lessIiEELb1EEELi1ELb1EE5__getB8ue170006Ev, symObjAddr: 0x21B40, symBinAddr: 0x100024CF8, symSize: 0x14 }
  - { offsetInCU: 0x49498, offset: 0x49498, size: 0x8, addend: 0x0, symName: __ZNKSt3__112__value_typeIiiE11__get_valueB8ue170006Ev, symObjAddr: 0x21B54, symBinAddr: 0x100024D0C, symSize: 0x24 }
  - { offsetInCU: 0x494BE, offset: 0x494BE, size: 0x8, addend: 0x0, symName: __ZNSt3__116allocator_traitsINS_9allocatorINS_11__tree_nodeINS_12__value_typeIiiEEPvEEEEE8allocateB8ue170006ERS7_m, symObjAddr: 0x21BB0, symBinAddr: 0x100024D68, symSize: 0x2C }
  - { offsetInCU: 0x494F1, offset: 0x494F1, size: 0x8, addend: 0x0, symName: __ZNSt3__122__tree_node_destructorINS_9allocatorINS_11__tree_nodeINS_12__value_typeIiiEEPvEEEEEC1B8ue170006ERS7_b, symObjAddr: 0x21BDC, symBinAddr: 0x100024D94, symSize: 0x48 }
  - { offsetInCU: 0x4953F, offset: 0x4953F, size: 0x8, addend: 0x0, symName: __ZNSt3__110unique_ptrINS_11__tree_nodeINS_12__value_typeIiiEEPvEENS_22__tree_node_destructorINS_9allocatorIS5_EEEEEC1B8ue170006ILb1EvEEPS5_NS_16__dependent_typeINS_27__unique_ptr_deleter_sfinaeIS9_EEXT_EE20__good_rval_ref_typeE, symObjAddr: 0x21C24, symBinAddr: 0x100024DDC, symSize: 0x3C }
  - { offsetInCU: 0x49590, offset: 0x49590, size: 0x8, addend: 0x0, symName: __ZNSt3__116allocator_traitsINS_9allocatorINS_11__tree_nodeINS_12__value_typeIiiEEPvEEEEE9constructB8ue170006INS_4pairIKiiEEJRKNS_21piecewise_construct_tENS_5tupleIJRSB_EEENSG_IJEEEEvvEEvRS7_PT_DpOT0_, symObjAddr: 0x21C60, symBinAddr: 0x100024E18, symSize: 0x40 }
  - { offsetInCU: 0x4960D, offset: 0x4960D, size: 0x8, addend: 0x0, symName: __ZNKSt3__110unique_ptrINS_11__tree_nodeINS_12__value_typeIiiEEPvEENS_22__tree_node_destructorINS_9allocatorIS5_EEEEEptB8ue170006Ev, symObjAddr: 0x21CA0, symBinAddr: 0x100024E58, symSize: 0x28 }
  - { offsetInCU: 0x49633, offset: 0x49633, size: 0x8, addend: 0x0, symName: __ZNSt3__110unique_ptrINS_11__tree_nodeINS_12__value_typeIiiEEPvEENS_22__tree_node_destructorINS_9allocatorIS5_EEEEE11get_deleterB8ue170006Ev, symObjAddr: 0x21CC8, symBinAddr: 0x100024E80, symSize: 0x24 }
  - { offsetInCU: 0x49659, offset: 0x49659, size: 0x8, addend: 0x0, symName: __ZNSt3__19allocatorINS_11__tree_nodeINS_12__value_typeIiiEEPvEEE8allocateB8ue170006Em, symObjAddr: 0x21CEC, symBinAddr: 0x100024EA4, symSize: 0x5C }
  - { offsetInCU: 0x49698, offset: 0x49698, size: 0x8, addend: 0x0, symName: __ZNSt3__116allocator_traitsINS_9allocatorINS_11__tree_nodeINS_12__value_typeIiiEEPvEEEEE8max_sizeB8ue170006IS7_vvEEmRKS7_, symObjAddr: 0x21D48, symBinAddr: 0x100024F00, symSize: 0x28 }
  - { offsetInCU: 0x496C4, offset: 0x496C4, size: 0x8, addend: 0x0, symName: __ZNSt3__122__tree_node_destructorINS_9allocatorINS_11__tree_nodeINS_12__value_typeIiiEEPvEEEEEC2B8ue170006ERS7_b, symObjAddr: 0x21D70, symBinAddr: 0x100024F28, symSize: 0x38 }
  - { offsetInCU: 0x4970C, offset: 0x4970C, size: 0x8, addend: 0x0, symName: __ZNSt3__110unique_ptrINS_11__tree_nodeINS_12__value_typeIiiEEPvEENS_22__tree_node_destructorINS_9allocatorIS5_EEEEEC2B8ue170006ILb1EvEEPS5_NS_16__dependent_typeINS_27__unique_ptr_deleter_sfinaeIS9_EEXT_EE20__good_rval_ref_typeE, symObjAddr: 0x21DA8, symBinAddr: 0x100024F60, symSize: 0x48 }
  - { offsetInCU: 0x4975D, offset: 0x4975D, size: 0x8, addend: 0x0, symName: __ZNSt3__117__compressed_pairIPNS_11__tree_nodeINS_12__value_typeIiiEEPvEENS_22__tree_node_destructorINS_9allocatorIS5_EEEEEC1B8ue170006IRS6_SA_EEOT_OT0_, symObjAddr: 0x21DF0, symBinAddr: 0x100024FA8, symSize: 0x3C }
  - { offsetInCU: 0x497B5, offset: 0x497B5, size: 0x8, addend: 0x0, symName: __ZNSt3__117__compressed_pairIPNS_11__tree_nodeINS_12__value_typeIiiEEPvEENS_22__tree_node_destructorINS_9allocatorIS5_EEEEEC2B8ue170006IRS6_SA_EEOT_OT0_, symObjAddr: 0x21E2C, symBinAddr: 0x100024FE4, symSize: 0x48 }
  - { offsetInCU: 0x4980D, offset: 0x4980D, size: 0x8, addend: 0x0, symName: __ZNSt3__122__compressed_pair_elemIPNS_11__tree_nodeINS_12__value_typeIiiEEPvEELi0ELb0EEC2B8ue170006IRS6_vEEOT_, symObjAddr: 0x21E74, symBinAddr: 0x10002502C, symSize: 0x24 }
  - { offsetInCU: 0x4984F, offset: 0x4984F, size: 0x8, addend: 0x0, symName: __ZNSt3__122__compressed_pair_elemINS_22__tree_node_destructorINS_9allocatorINS_11__tree_nodeINS_12__value_typeIiiEEPvEEEEEELi1ELb0EEC2B8ue170006IS9_vEEOT_, symObjAddr: 0x21E98, symBinAddr: 0x100025050, symSize: 0x24 }
  - { offsetInCU: 0x49891, offset: 0x49891, size: 0x8, addend: 0x0, symName: __ZNSt3__14pairIKiiEC1B8ue170006IJRS1_EJEEENS_21piecewise_construct_tENS_5tupleIJDpT_EEENS6_IJDpT0_EEE, symObjAddr: 0x21F0C, symBinAddr: 0x1000250C4, symSize: 0x44 }
  - { offsetInCU: 0x498F8, offset: 0x498F8, size: 0x8, addend: 0x0, symName: __ZNSt3__14pairIKiiEC1B8ue170006IJRS1_EJEJLm0EEJEEENS_21piecewise_construct_tERNS_5tupleIJDpT_EEERNS6_IJDpT0_EEENS_15__tuple_indicesIJXspT1_EEEENSF_IJXspT2_EEEE, symObjAddr: 0x21F50, symBinAddr: 0x100025108, symSize: 0x3C }
  - { offsetInCU: 0x49988, offset: 0x49988, size: 0x8, addend: 0x0, symName: __ZNSt3__14pairIKiiEC2B8ue170006IJRS1_EJEJLm0EEJEEENS_21piecewise_construct_tERNS_5tupleIJDpT_EEERNS6_IJDpT0_EEENS_15__tuple_indicesIJXspT1_EEEENSF_IJXspT2_EEEE, symObjAddr: 0x21F8C, symBinAddr: 0x100025144, symSize: 0x48 }
  - { offsetInCU: 0x49A18, offset: 0x49A18, size: 0x8, addend: 0x0, symName: __ZNKSt3__117__compressed_pairIPNS_11__tree_nodeINS_12__value_typeIiiEEPvEENS_22__tree_node_destructorINS_9allocatorIS5_EEEEE5firstB8ue170006Ev, symObjAddr: 0x21FD4, symBinAddr: 0x10002518C, symSize: 0x24 }
  - { offsetInCU: 0x49A3E, offset: 0x49A3E, size: 0x8, addend: 0x0, symName: __ZNKSt3__122__compressed_pair_elemIPNS_11__tree_nodeINS_12__value_typeIiiEEPvEELi0ELb0EE5__getB8ue170006Ev, symObjAddr: 0x21FF8, symBinAddr: 0x1000251B0, symSize: 0x14 }
  - { offsetInCU: 0x49A64, offset: 0x49A64, size: 0x8, addend: 0x0, symName: __ZNSt3__117__compressed_pairIPNS_11__tree_nodeINS_12__value_typeIiiEEPvEENS_22__tree_node_destructorINS_9allocatorIS5_EEEEE6secondB8ue170006Ev, symObjAddr: 0x2200C, symBinAddr: 0x1000251C4, symSize: 0x28 }
  - { offsetInCU: 0x49A8A, offset: 0x49A8A, size: 0x8, addend: 0x0, symName: __ZNSt3__122__compressed_pair_elemINS_22__tree_node_destructorINS_9allocatorINS_11__tree_nodeINS_12__value_typeIiiEEPvEEEEEELi1ELb0EE5__getB8ue170006Ev, symObjAddr: 0x22034, symBinAddr: 0x1000251EC, symSize: 0x14 }
  - { offsetInCU: 0x49AB0, offset: 0x49AB0, size: 0x8, addend: 0x0, symName: __ZNSt3__16__treeINS_12__value_typeIiiEENS_19__map_value_compareIiS2_NS_4lessIiEELb1EEENS_9allocatorIS2_EEE4sizeB8ue170006Ev, symObjAddr: 0x22048, symBinAddr: 0x100025200, symSize: 0x28 }
  - { offsetInCU: 0x49AD6, offset: 0x49AD6, size: 0x8, addend: 0x0, symName: __ZNSt3__117__compressed_pairImNS_19__map_value_compareIiNS_12__value_typeIiiEENS_4lessIiEELb1EEEE5firstB8ue170006Ev, symObjAddr: 0x22070, symBinAddr: 0x100025228, symSize: 0x24 }
  - { offsetInCU: 0x49AFC, offset: 0x49AFC, size: 0x8, addend: 0x0, symName: __ZNSt3__117__compressed_pairIPNS_11__tree_nodeINS_12__value_typeIiiEEPvEENS_22__tree_node_destructorINS_9allocatorIS5_EEEEE5firstB8ue170006Ev, symObjAddr: 0x22094, symBinAddr: 0x10002524C, symSize: 0x24 }
  - { offsetInCU: 0x49B22, offset: 0x49B22, size: 0x8, addend: 0x0, symName: __ZNSt3__122__compressed_pair_elemIPNS_11__tree_nodeINS_12__value_typeIiiEEPvEELi0ELb0EE5__getB8ue170006Ev, symObjAddr: 0x220B8, symBinAddr: 0x100025270, symSize: 0x14 }
  - { offsetInCU: 0x49B48, offset: 0x49B48, size: 0x8, addend: 0x0, symName: __ZNSt3__110unique_ptrINS_11__tree_nodeINS_12__value_typeIiiEEPvEENS_22__tree_node_destructorINS_9allocatorIS5_EEEEED2B8ue170006Ev, symObjAddr: 0x220CC, symBinAddr: 0x100025284, symSize: 0x30 }
  - { offsetInCU: 0x49B72, offset: 0x49B72, size: 0x8, addend: 0x0, symName: __ZNSt3__110unique_ptrINS_11__tree_nodeINS_12__value_typeIiiEEPvEENS_22__tree_node_destructorINS_9allocatorIS5_EEEEE5resetB8ue170006EPS5_, symObjAddr: 0x220FC, symBinAddr: 0x1000252B4, symSize: 0x78 }
  - { offsetInCU: 0x49BB6, offset: 0x49BB6, size: 0x8, addend: 0x0, symName: __ZNSt3__122__tree_node_destructorINS_9allocatorINS_11__tree_nodeINS_12__value_typeIiiEEPvEEEEEclB8ue170006EPS6_, symObjAddr: 0x22174, symBinAddr: 0x10002532C, symSize: 0x98 }
  - { offsetInCU: 0x49BEB, offset: 0x49BEB, size: 0x8, addend: 0x0, symName: __ZNSt3__115__tree_iteratorINS_12__value_typeIiiEEPNS_11__tree_nodeIS2_PvEElEC2B8ue170006ES6_, symObjAddr: 0x2220C, symBinAddr: 0x1000253C4, symSize: 0x20 }
  - { offsetInCU: 0x49C24, offset: 0x49C24, size: 0x8, addend: 0x0, symName: __ZNSt3__14pairINS_15__tree_iteratorINS_12__value_typeIiiEEPNS_11__tree_nodeIS3_PvEElEEbEC2B8ue170006IS8_RbLS5_0EEEOT_OT0_, symObjAddr: 0x2222C, symBinAddr: 0x1000253E4, symSize: 0x38 }
  - { offsetInCU: 0x49C82, offset: 0x49C82, size: 0x8, addend: 0x0, symName: __ZNSt3__114pointer_traitsIPNS_12__value_typeIiiEEE10pointer_toB8ue170006ERS2_, symObjAddr: 0x22264, symBinAddr: 0x10002541C, symSize: 0x14 }
  - { offsetInCU: 0x49CA5, offset: 0x49CA5, size: 0x8, addend: 0x0, symName: __ZNKSt3__115__tree_iteratorINS_12__value_typeIiiEEPNS_11__tree_nodeIS2_PvEElE8__get_npB8ue170006Ev, symObjAddr: 0x22278, symBinAddr: 0x100025430, symSize: 0x18 }
  - { offsetInCU: 0x49CCB, offset: 0x49CCB, size: 0x8, addend: 0x0, symName: __ZNSt3__16__treeINS_12__value_typeIiiEENS_19__map_value_compareIiS2_NS_4lessIiEELb1EEENS_9allocatorIS2_EEEaSEOS9_, symObjAddr: 0x22290, symBinAddr: 0x100025448, symSize: 0x34 }
  - { offsetInCU: 0x49D02, offset: 0x49D02, size: 0x8, addend: 0x0, symName: __ZNSt3__16__treeINS_12__value_typeIiiEENS_19__map_value_compareIiS2_NS_4lessIiEELb1EEENS_9allocatorIS2_EEE13__move_assignERS9_NS_17integral_constantIbLb1EEE, symObjAddr: 0x222C4, symBinAddr: 0x10002547C, symSize: 0x138 }
  - { offsetInCU: 0x49D45, offset: 0x49D45, size: 0x8, addend: 0x0, symName: __ZNSt3__16__treeINS_12__value_typeIiiEENS_19__map_value_compareIiS2_NS_4lessIiEELb1EEENS_9allocatorIS2_EEE19__move_assign_allocB8ue170006ERS9_, symObjAddr: 0x223FC, symBinAddr: 0x1000255B4, symSize: 0x2C }
  - { offsetInCU: 0x49D7A, offset: 0x49D7A, size: 0x8, addend: 0x0, symName: __ZNSt3__16__treeINS_12__value_typeIiiEENS_19__map_value_compareIiS2_NS_4lessIiEELb1EEENS_9allocatorIS2_EEE19__move_assign_allocB8ue170006ERS9_NS_17integral_constantIbLb1EEE, symObjAddr: 0x22428, symBinAddr: 0x1000255E0, symSize: 0x38 }
...
